LIBRARY icuin58
EXPORTS
    ??0?$CacheKey@VDateFmtBestPattern@icu_58@@@icu_58@@QEAA@AEBV01@@Z @1
    ??0?$CacheKey@VDateFmtBestPattern@icu_58@@@icu_58@@QEAA@XZ @2
    ??0?$EnumSet@W4UDateFormatBooleanAttribute@@$0A@$03@icu_58@@QEAA@AEBV01@@Z @3
    ??0?$EnumSet@W4UDateFormatBooleanAttribute@@$0A@$03@icu_58@@QEAA@XZ @4
    ??0?$EnumSet@W4UNumberFormatAttribute@@$0BAAA@$0BAAD@@icu_58@@QEAA@AEBV01@@Z @5
    ??0?$EnumSet@W4UNumberFormatAttribute@@$0BAAA@$0BAAD@@icu_58@@QEAA@XZ @6
    ??0?$LocaleCacheKey@VDateFmtBestPattern@icu_58@@@icu_58@@QEAA@AEBV01@@Z @7
    ??0?$LocaleCacheKey@VDateFmtBestPattern@icu_58@@@icu_58@@QEAA@AEBVLocale@1@@Z @8
    ??0?$MaybeStackHeaderAndArray@UdecNumber@@D$0CI@@icu_58@@AEAA@AEBV01@@Z @9
    ??0?$MaybeStackHeaderAndArray@UdecNumber@@D$0CI@@icu_58@@QEAA@XZ @10
    ??0?$PluralMap@VDigitAffix@icu_58@@@icu_58@@QEAA@AEBV01@@Z @11
    ??0?$PluralMap@VDigitAffix@icu_58@@@icu_58@@QEAA@AEBVDigitAffix@1@@Z @12
    ??0?$PluralMap@VDigitAffix@icu_58@@@icu_58@@QEAA@XZ @13
    ??0AffixPattern@icu_58@@QEAA@$$QEAV01@@Z @14
    ??0AffixPattern@icu_58@@QEAA@AEBV01@@Z @15
    ??0AffixPattern@icu_58@@QEAA@XZ @16
    ??0AffixPatternIterator@icu_58@@QEAA@XZ @17
    ??0AffixPatternParser@icu_58@@QEAA@$$QEAV01@@Z @18
    ??0AffixPatternParser@icu_58@@QEAA@AEBV01@@Z @19
    ??0AffixPatternParser@icu_58@@QEAA@AEBVDecimalFormatSymbols@1@@Z @20
    ??0AffixPatternParser@icu_58@@QEAA@XZ @21
    ??0AlphabeticIndex@icu_58@@QEAA@AEBVLocale@1@AEAW4UErrorCode@@@Z @22
    ??0AlphabeticIndex@icu_58@@QEAA@PEAVRuleBasedCollator@1@AEAW4UErrorCode@@@Z @23
    ??0AnnualTimeZoneRule@icu_58@@QEAA@AEBV01@@Z @24
    ??0AnnualTimeZoneRule@icu_58@@QEAA@AEBVUnicodeString@1@HHAEBVDateTimeRule@1@HH@Z @25
    ??0AnnualTimeZoneRule@icu_58@@QEAA@AEBVUnicodeString@1@HHPEAVDateTimeRule@1@HH@Z @26
    ??0BasicTimeZone@icu_58@@IEAA@AEBV01@@Z @27
    ??0BasicTimeZone@icu_58@@IEAA@AEBVUnicodeString@1@@Z @28
    ??0BasicTimeZone@icu_58@@IEAA@XZ @29
    ??0Bucket@AlphabeticIndex@icu_58@@AEAA@AEBVUnicodeString@2@0W4UAlphabeticIndexLabelType@@@Z @30
    ??0Bucket@AlphabeticIndex@icu_58@@QEAA@AEBV012@@Z @31
    ??0CECalendar@icu_58@@IEAA@AEBV01@@Z @32
    ??0CECalendar@icu_58@@IEAA@AEBVLocale@1@AEAW4UErrorCode@@@Z @33
    ??0Calendar@icu_58@@IEAA@AEAW4UErrorCode@@@Z @34
    ??0Calendar@icu_58@@IEAA@AEBV01@@Z @35
    ??0Calendar@icu_58@@IEAA@AEBVTimeZone@1@AEBVLocale@1@AEAW4UErrorCode@@@Z @36
    ??0Calendar@icu_58@@IEAA@PEAVTimeZone@1@AEBVLocale@1@AEAW4UErrorCode@@@Z @37
    ??0CalendarAstronomer@icu_58@@QEAA@N@Z @38
    ??0CalendarAstronomer@icu_58@@QEAA@NN@Z @39
    ??0CalendarAstronomer@icu_58@@QEAA@XZ @40
    ??0ChineseCalendar@icu_58@@IEAA@AEBVLocale@1@HPEBVTimeZone@1@AEAW4UErrorCode@@@Z @41
    ??0ChineseCalendar@icu_58@@QEAA@AEBV01@@Z @42
    ??0ChineseCalendar@icu_58@@QEAA@AEBVLocale@1@AEAW4UErrorCode@@@Z @43
    ??0ChoiceFormat@icu_58@@AEAA@AEBVUnicodeString@1@AEAUUParseError@@AEAW4UErrorCode@@@Z @44
    ??0ChoiceFormat@icu_58@@QEAA@AEBV01@@Z @45
    ??0ChoiceFormat@icu_58@@QEAA@AEBVUnicodeString@1@AEAW4UErrorCode@@@Z @46
    ??0ChoiceFormat@icu_58@@QEAA@PEBNPEBCPEBVUnicodeString@1@H@Z @47
    ??0ChoiceFormat@icu_58@@QEAA@PEBNPEBVUnicodeString@1@H@Z @48
    ??0CollationBuilder@icu_58@@QEAA@PEBUCollationTailoring@1@AEAW4UErrorCode@@@Z @49
    ??0CollationData@icu_58@@QEAA@AEBVNormalizer2Impl@1@@Z @50
    ??0CollationDataBuilder@icu_58@@QEAA@AEAW4UErrorCode@@@Z @51
    ??0CollationElementIterator@icu_58@@AEAA@AEBVCharacterIterator@1@PEBVRuleBasedCollator@1@AEAW4UErrorCode@@@Z @52
    ??0CollationElementIterator@icu_58@@AEAA@AEBVUnicodeString@1@PEBVRuleBasedCollator@1@AEAW4UErrorCode@@@Z @53
    ??0CollationElementIterator@icu_58@@QEAA@AEBV01@@Z @54
    ??0CollationFastLatinBuilder@icu_58@@QEAA@AEAW4UErrorCode@@@Z @55
    ??0CollationIterator@icu_58@@IEAA@AEBV01@@Z @56
    ??0CollationIterator@icu_58@@QEAA@PEBUCollationData@1@C@Z @57
    ??0CollationKey@icu_58@@QEAA@AEBV01@@Z @58
    ??0CollationKey@icu_58@@QEAA@PEBEH@Z @59
    ??0CollationKey@icu_58@@QEAA@XZ @60
    ??0CollationRootElements@icu_58@@QEAA@PEBIH@Z @61
    ??0CollationRuleParser@icu_58@@QEAA@PEBUCollationData@1@AEAW4UErrorCode@@@Z @62
    ??0CollationSettings@icu_58@@QEAA@AEBU01@@Z @63
    ??0CollationSettings@icu_58@@QEAA@XZ @64
    ??0CollationTailoring@icu_58@@QEAA@PEBUCollationSettings@1@@Z @65
    ??0CollationWeights@icu_58@@QEAA@XZ @66
    ??0Collator@icu_58@@IEAA@AEBV01@@Z @67
    ??0Collator@icu_58@@IEAA@W4UColAttributeValue@@W4UNormalizationMode@@@Z @68
    ??0Collator@icu_58@@IEAA@XZ @69
    ??0CollatorFactory@icu_58@@QEAA@AEBV01@@Z @70
    ??0CollatorFactory@icu_58@@QEAA@XZ @71
    ??0CompactDecimalFormat@icu_58@@AEAA@AEBVDecimalFormat@1@PEBUUHashtable@@PEBNPEAVPluralRules@1@@Z @72
    ??0CompactDecimalFormat@icu_58@@QEAA@AEBV01@@Z @73
    ??0CompoundTransliterator@icu_58@@AEAA@AEAVUVector@1@AEAUUParseError@@AEAW4UErrorCode@@@Z @74
    ??0CompoundTransliterator@icu_58@@AEAA@AEAVUVector@1@HAEAUUParseError@@AEAW4UErrorCode@@@Z @75
    ??0CompoundTransliterator@icu_58@@AEAA@AEBVUnicodeString@1@AEAVUVector@1@PEAVUnicodeFilter@1@HAEAUUParseError@@AEAW4UErrorCode@@@Z @76
    ??0CompoundTransliterator@icu_58@@QEAA@AEBV01@@Z @77
    ??0CompoundTransliterator@icu_58@@QEAA@AEBVUnicodeString@1@AEAUUParseError@@AEAW4UErrorCode@@@Z @78
    ??0CompoundTransliterator@icu_58@@QEAA@AEBVUnicodeString@1@W4UTransDirection@@PEAVUnicodeFilter@1@AEAUUParseError@@AEAW4UErrorCode@@@Z @79
    ??0CompoundTransliterator@icu_58@@QEAA@QEBQEAVTransliterator@1@HPEAVUnicodeFilter@1@@Z @80
    ??0CurrencyAffixInfo@icu_58@@QEAA@$$QEAV01@@Z @81
    ??0CurrencyAffixInfo@icu_58@@QEAA@AEBV01@@Z @82
    ??0CurrencyAffixInfo@icu_58@@QEAA@XZ @83
    ??0CurrencyAmount@icu_58@@QEAA@AEBV01@@Z @84
    ??0CurrencyAmount@icu_58@@QEAA@AEBVFormattable@1@PEB_WAEAW4UErrorCode@@@Z @85
    ??0CurrencyAmount@icu_58@@QEAA@NPEB_WAEAW4UErrorCode@@@Z @86
    ??0CurrencyPluralInfo@icu_58@@QEAA@AEAW4UErrorCode@@@Z @87
    ??0CurrencyPluralInfo@icu_58@@QEAA@AEBV01@@Z @88
    ??0CurrencyPluralInfo@icu_58@@QEAA@AEBVLocale@1@AEAW4UErrorCode@@@Z @89
    ??0CurrencyUnit@icu_58@@QEAA@AEBV01@@Z @90
    ??0CurrencyUnit@icu_58@@QEAA@PEB_WAEAW4UErrorCode@@@Z @91
    ??0DateFmtBestPattern@icu_58@@QEAA@AEBV01@@Z @92
    ??0DateFmtBestPattern@icu_58@@QEAA@AEBVUnicodeString@1@@Z @93
    ??0DateFmtBestPatternKey@icu_58@@QEAA@AEBV01@@Z @94
    ??0DateFmtBestPatternKey@icu_58@@QEAA@AEBVLocale@1@AEBVUnicodeString@1@AEAW4UErrorCode@@@Z @95
    ??0DateFormat@icu_58@@IEAA@AEBV01@@Z @96
    ??0DateFormat@icu_58@@IEAA@XZ @97
    ??0DateFormatSymbols@icu_58@@QEAA@AEAW4UErrorCode@@@Z @98
    ??0DateFormatSymbols@icu_58@@QEAA@AEBV01@@Z @99
    ??0DateFormatSymbols@icu_58@@QEAA@AEBVLocale@1@AEAW4UErrorCode@@@Z @100
    ??0DateFormatSymbols@icu_58@@QEAA@AEBVLocale@1@PEBDAEAW4UErrorCode@@@Z @101
    ??0DateFormatSymbols@icu_58@@QEAA@PEBDAEAW4UErrorCode@@@Z @102
    ??0DateIntervalFormat@icu_58@@AEAA@AEBVLocale@1@PEAVDateIntervalInfo@1@PEBVUnicodeString@1@AEAW4UErrorCode@@@Z @103
    ??0DateIntervalFormat@icu_58@@AEAA@XZ @104
    ??0DateIntervalFormat@icu_58@@IEAA@AEBV01@@Z @105
    ??0DateIntervalInfo@icu_58@@QEAA@AEAW4UErrorCode@@@Z @106
    ??0DateIntervalInfo@icu_58@@QEAA@AEBV01@@Z @107
    ??0DateIntervalInfo@icu_58@@QEAA@AEBVLocale@1@AEAW4UErrorCode@@@Z @108
    ??0DateTimePatternGenerator@icu_58@@AEAA@AEAW4UErrorCode@@@Z @109
    ??0DateTimePatternGenerator@icu_58@@AEAA@AEBV01@@Z @110
    ??0DateTimePatternGenerator@icu_58@@AEAA@AEBVLocale@1@AEAW4UErrorCode@@@Z @111
    ??0DateTimeRule@icu_58@@QEAA@AEBV01@@Z @112
    ??0DateTimeRule@icu_58@@QEAA@HHHCHW4TimeRuleType@01@@Z @113
    ??0DateTimeRule@icu_58@@QEAA@HHHHW4TimeRuleType@01@@Z @114
    ??0DateTimeRule@icu_58@@QEAA@HHHW4TimeRuleType@01@@Z @115
    ??0DecimalFormat@icu_58@@QEAA@AEAW4UErrorCode@@@Z @116
    ??0DecimalFormat@icu_58@@QEAA@AEBV01@@Z @117
    ??0DecimalFormat@icu_58@@QEAA@AEBVUnicodeString@1@AEAW4UErrorCode@@@Z @118
    ??0DecimalFormat@icu_58@@QEAA@AEBVUnicodeString@1@AEBVDecimalFormatSymbols@1@AEAW4UErrorCode@@@Z @119
    ??0DecimalFormat@icu_58@@QEAA@AEBVUnicodeString@1@PEAVDecimalFormatSymbols@1@AEAUUParseError@@AEAW4UErrorCode@@@Z @120
    ??0DecimalFormat@icu_58@@QEAA@AEBVUnicodeString@1@PEAVDecimalFormatSymbols@1@AEAW4UErrorCode@@@Z @121
    ??0DecimalFormat@icu_58@@QEAA@AEBVUnicodeString@1@PEAVDecimalFormatSymbols@1@W4UNumberFormatStyle@@AEAW4UErrorCode@@@Z @122
    ??0DecimalFormatSymbols@icu_58@@AEAA@XZ @123
    ??0DecimalFormatSymbols@icu_58@@QEAA@AEAW4UErrorCode@@@Z @124
    ??0DecimalFormatSymbols@icu_58@@QEAA@AEBV01@@Z @125
    ??0DecimalFormatSymbols@icu_58@@QEAA@AEBVLocale@1@AEAW4UErrorCode@@@Z @126
    ??0DigitAffix@icu_58@@QEAA@$$QEAV01@@Z @127
    ??0DigitAffix@icu_58@@QEAA@AEBV01@@Z @128
    ??0DigitAffix@icu_58@@QEAA@PEB_WHH@Z @129
    ??0DigitAffix@icu_58@@QEAA@XZ @130
    ??0DigitAffixesAndPadding@icu_58@@QEAA@$$QEAV01@@Z @131
    ??0DigitAffixesAndPadding@icu_58@@QEAA@AEBV01@@Z @132
    ??0DigitAffixesAndPadding@icu_58@@QEAA@XZ @133
    ??0DigitFormatter@icu_58@@QEAA@$$QEAV01@@Z @134
    ??0DigitFormatter@icu_58@@QEAA@AEBV01@@Z @135
    ??0DigitFormatter@icu_58@@QEAA@AEBVDecimalFormatSymbols@1@@Z @136
    ??0DigitFormatter@icu_58@@QEAA@XZ @137
    ??0DigitFormatterIntOptions@icu_58@@QEAA@XZ @138
    ??0DigitFormatterOptions@icu_58@@QEAA@XZ @139
    ??0DigitGrouping@icu_58@@QEAA@XZ @140
    ??0DigitInterval@icu_58@@QEAA@XZ @141
    ??0DigitList@icu_58@@QEAA@AEBV01@@Z @142
    ??0DigitList@icu_58@@QEAA@XZ @143
    ??0DummyFormat@MessageFormat@icu_58@@QEAA@$$QEAV012@@Z @144
    ??0DummyFormat@MessageFormat@icu_58@@QEAA@AEBV012@@Z @145
    ??0DummyFormat@MessageFormat@icu_58@@QEAA@XZ @146
    ??0Ecliptic@CalendarAstronomer@icu_58@@QEAA@NN@Z @147
    ??0Equatorial@CalendarAstronomer@icu_58@@QEAA@NN@Z @148
    ??0FCDUIterCollationIterator@icu_58@@QEAA@AEBV01@@Z @149
    ??0FCDUIterCollationIterator@icu_58@@QEAA@PEBUCollationData@1@CAEAUUCharIterator@@H@Z @150
    ??0FCDUTF16CollationIterator@icu_58@@QEAA@AEBV01@@Z @151
    ??0FCDUTF16CollationIterator@icu_58@@QEAA@AEBV01@PEB_W@Z @152
    ??0FCDUTF16CollationIterator@icu_58@@QEAA@PEBUCollationData@1@CPEB_W11@Z @153
    ??0FCDUTF8CollationIterator@icu_58@@QEAA@AEBV01@@Z @154
    ??0FCDUTF8CollationIterator@icu_58@@QEAA@PEBUCollationData@1@CPEBEHH@Z @155
    ??0FieldPosition@icu_58@@QEAA@AEBV01@@Z @156
    ??0FieldPosition@icu_58@@QEAA@H@Z @157
    ??0FieldPosition@icu_58@@QEAA@XZ @158
    ??0FieldPositionHandler@icu_58@@QEAA@AEBV01@@Z @159
    ??0FieldPositionHandler@icu_58@@QEAA@XZ @160
    ??0FieldPositionIterator@icu_58@@QEAA@AEBV01@@Z @161
    ??0FieldPositionIterator@icu_58@@QEAA@XZ @162
    ??0FixedDecimal@icu_58@@QEAA@AEBV01@@Z @163
    ??0FixedDecimal@icu_58@@QEAA@AEBVUnicodeString@1@AEAW4UErrorCode@@@Z @164
    ??0FixedDecimal@icu_58@@QEAA@AEBVVisibleDigits@1@@Z @165
    ??0FixedDecimal@icu_58@@QEAA@N@Z @166
    ??0FixedDecimal@icu_58@@QEAA@NH@Z @167
    ??0FixedDecimal@icu_58@@QEAA@NH_J@Z @168
    ??0FixedDecimal@icu_58@@QEAA@XZ @169
    ??0FixedPrecision@icu_58@@QEAA@$$QEAV01@@Z @170
    ??0FixedPrecision@icu_58@@QEAA@AEBV01@@Z @171
    ??0FixedPrecision@icu_58@@QEAA@XZ @172
    ??0Format@icu_58@@IEAA@AEBV01@@Z @173
    ??0Format@icu_58@@IEAA@XZ @174
    ??0Formattable@icu_58@@QEAA@AEBV01@@Z @175
    ??0Formattable@icu_58@@QEAA@AEBVUnicodeString@1@@Z @176
    ??0Formattable@icu_58@@QEAA@H@Z @177
    ??0Formattable@icu_58@@QEAA@N@Z @178
    ??0Formattable@icu_58@@QEAA@NW4ISDATE@01@@Z @179
    ??0Formattable@icu_58@@QEAA@PEAVUObject@1@@Z @180
    ??0Formattable@icu_58@@QEAA@PEAVUnicodeString@1@@Z @181
    ??0Formattable@icu_58@@QEAA@PEBD@Z @182
    ??0Formattable@icu_58@@QEAA@PEBV01@H@Z @183
    ??0Formattable@icu_58@@QEAA@VStringPiece@1@AEAW4UErrorCode@@@Z @184
    ??0Formattable@icu_58@@QEAA@XZ @185
    ??0Formattable@icu_58@@QEAA@_J@Z @186
    ??0GenderInfo@icu_58@@AEAA@XZ @187
    ??0GregorianCalendar@icu_58@@QEAA@AEAW4UErrorCode@@@Z @188
    ??0GregorianCalendar@icu_58@@QEAA@AEBV01@@Z @189
    ??0GregorianCalendar@icu_58@@QEAA@AEBVLocale@1@AEAW4UErrorCode@@@Z @190
    ??0GregorianCalendar@icu_58@@QEAA@AEBVTimeZone@1@AEAW4UErrorCode@@@Z @191
    ??0GregorianCalendar@icu_58@@QEAA@AEBVTimeZone@1@AEBVLocale@1@AEAW4UErrorCode@@@Z @192
    ??0GregorianCalendar@icu_58@@QEAA@HHHAEAW4UErrorCode@@@Z @193
    ??0GregorianCalendar@icu_58@@QEAA@HHHHHAEAW4UErrorCode@@@Z @194
    ??0GregorianCalendar@icu_58@@QEAA@HHHHHHAEAW4UErrorCode@@@Z @195
    ??0GregorianCalendar@icu_58@@QEAA@PEAVTimeZone@1@AEAW4UErrorCode@@@Z @196
    ??0GregorianCalendar@icu_58@@QEAA@PEAVTimeZone@1@AEBVLocale@1@AEAW4UErrorCode@@@Z @197
    ??0HebrewCalendar@icu_58@@QEAA@AEBV01@@Z @198
    ??0HebrewCalendar@icu_58@@QEAA@AEBVLocale@1@AEAW4UErrorCode@@@Z @199
    ??0Horizon@CalendarAstronomer@icu_58@@QEAA@NN@Z @200
    ??0ImmutableIndex@AlphabeticIndex@icu_58@@AEAA@PEAVBucketList@2@PEAVCollator@2@@Z @201
    ??0ImmutableIndex@AlphabeticIndex@icu_58@@QEAA@AEBV012@@Z @202
    ??0Importer@CollationRuleParser@icu_58@@QEAA@AEBV012@@Z @203
    ??0Importer@CollationRuleParser@icu_58@@QEAA@XZ @204
    ??0InitialTimeZoneRule@icu_58@@QEAA@AEBV01@@Z @205
    ??0InitialTimeZoneRule@icu_58@@QEAA@AEBVUnicodeString@1@HH@Z @206
    ??0IntDigitCountRange@icu_58@@QEAA@HH@Z @207
    ??0IntDigitCountRange@icu_58@@QEAA@XZ @208
    ??0IslamicCalendar@icu_58@@QEAA@AEBV01@@Z @209
    ??0IslamicCalendar@icu_58@@QEAA@AEBVLocale@1@AEAW4UErrorCode@@W4ECalculationType@01@@Z @210
    ??0MarkupStyle@ScientificNumberFormatter@icu_58@@QEAA@$$QEAV012@@Z @211
    ??0MarkupStyle@ScientificNumberFormatter@icu_58@@QEAA@AEBV012@@Z @212
    ??0MarkupStyle@ScientificNumberFormatter@icu_58@@QEAA@AEBVUnicodeString@2@0@Z @213
    ??0MatchInfoCollection@TimeZoneNames@icu_58@@QEAA@AEBV012@@Z @214
    ??0MatchInfoCollection@TimeZoneNames@icu_58@@QEAA@XZ @215
    ??0Measure@icu_58@@IEAA@XZ @216
    ??0Measure@icu_58@@QEAA@AEBV01@@Z @217
    ??0Measure@icu_58@@QEAA@AEBVFormattable@1@PEAVMeasureUnit@1@AEAW4UErrorCode@@@Z @218
    ??0MeasureFormat@icu_58@@IEAA@XZ @219
    ??0MeasureFormat@icu_58@@QEAA@AEBV01@@Z @220
    ??0MeasureFormat@icu_58@@QEAA@AEBVLocale@1@W4UMeasureFormatWidth@@AEAW4UErrorCode@@@Z @221
    ??0MeasureFormat@icu_58@@QEAA@AEBVLocale@1@W4UMeasureFormatWidth@@PEAVNumberFormat@1@AEAW4UErrorCode@@@Z @222
    ??0MeasureUnit@icu_58@@AEAA@HH@Z @223
    ??0MeasureUnit@icu_58@@QEAA@AEBV01@@Z @224
    ??0MeasureUnit@icu_58@@QEAA@XZ @225
    ??0MessageFormat@icu_58@@QEAA@AEBV01@@Z @226
    ??0MessageFormat@icu_58@@QEAA@AEBVUnicodeString@1@AEAW4UErrorCode@@@Z @227
    ??0MessageFormat@icu_58@@QEAA@AEBVUnicodeString@1@AEBVLocale@1@AEAUUParseError@@AEAW4UErrorCode@@@Z @228
    ??0MessageFormat@icu_58@@QEAA@AEBVUnicodeString@1@AEBVLocale@1@AEAW4UErrorCode@@@Z @229
    ??0MoonAge@CalendarAstronomer@icu_58@@QEAA@N@Z @230
    ??0NumberFormat@icu_58@@IEAA@AEBV01@@Z @231
    ??0NumberFormat@icu_58@@IEAA@XZ @232
    ??0NumberFormatFactory@icu_58@@QEAA@AEBV01@@Z @233
    ??0NumberFormatFactory@icu_58@@QEAA@XZ @234
    ??0NumberingSystem@icu_58@@QEAA@AEBV01@@Z @235
    ??0NumberingSystem@icu_58@@QEAA@XZ @236
    ??0OlsonTimeZone@icu_58@@QEAA@AEBV01@@Z @237
    ??0OlsonTimeZone@icu_58@@QEAA@PEBUUResourceBundle@@0AEBVUnicodeString@1@AEAW4UErrorCode@@@Z @238
    ??0PluralAffix@icu_58@@QEAA@$$QEAV01@@Z @239
    ??0PluralAffix@icu_58@@QEAA@AEBV01@@Z @240
    ??0PluralAffix@icu_58@@QEAA@AEBVDigitAffix@1@@Z @241
    ??0PluralAffix@icu_58@@QEAA@XZ @242
    ??0PluralAvailableLocalesEnumeration@icu_58@@QEAA@AEAW4UErrorCode@@@Z @243
    ??0PluralAvailableLocalesEnumeration@icu_58@@QEAA@AEBV01@@Z @244
    ??0PluralFormat@icu_58@@QEAA@AEAW4UErrorCode@@@Z @245
    ??0PluralFormat@icu_58@@QEAA@AEBV01@@Z @246
    ??0PluralFormat@icu_58@@QEAA@AEBVLocale@1@AEAW4UErrorCode@@@Z @247
    ??0PluralFormat@icu_58@@QEAA@AEBVLocale@1@AEBVPluralRules@1@AEAW4UErrorCode@@@Z @248
    ??0PluralFormat@icu_58@@QEAA@AEBVLocale@1@AEBVPluralRules@1@AEBVUnicodeString@1@AEAW4UErrorCode@@@Z @249
    ??0PluralFormat@icu_58@@QEAA@AEBVLocale@1@AEBVUnicodeString@1@AEAW4UErrorCode@@@Z @250
    ??0PluralFormat@icu_58@@QEAA@AEBVLocale@1@W4UPluralType@@AEAW4UErrorCode@@@Z @251
    ??0PluralFormat@icu_58@@QEAA@AEBVLocale@1@W4UPluralType@@AEBVUnicodeString@1@AEAW4UErrorCode@@@Z @252
    ??0PluralFormat@icu_58@@QEAA@AEBVPluralRules@1@AEAW4UErrorCode@@@Z @253
    ??0PluralFormat@icu_58@@QEAA@AEBVPluralRules@1@AEBVUnicodeString@1@AEAW4UErrorCode@@@Z @254
    ??0PluralFormat@icu_58@@QEAA@AEBVUnicodeString@1@AEAW4UErrorCode@@@Z @255
    ??0PluralRules@icu_58@@QEAA@AEAW4UErrorCode@@@Z @256
    ??0PluralRules@icu_58@@QEAA@AEBV01@@Z @257
    ??0PluralSelector@PluralFormat@icu_58@@QEAA@AEBV012@@Z @258
    ??0PluralSelector@PluralFormat@icu_58@@QEAA@XZ @259
    ??0PluralSelectorAdapter@PluralFormat@icu_58@@QEAA@AEBV012@@Z @260
    ??0PluralSelectorAdapter@PluralFormat@icu_58@@QEAA@XZ @261
    ??0PluralSelectorProvider@MessageFormat@icu_58@@QEAA@AEBV012@@Z @262
    ??0PluralSelectorProvider@MessageFormat@icu_58@@QEAA@AEBV12@W4UPluralType@@@Z @263
    ??0QuantityFormatter@icu_58@@QEAA@AEBV01@@Z @264
    ??0QuantityFormatter@icu_58@@QEAA@XZ @265
    ??0RegexCompile@icu_58@@QEAA@PEAVRegexPattern@1@AEAW4UErrorCode@@@Z @266
    ??0RegexMatcher@icu_58@@AEAA@PEBVRegexPattern@1@@Z @267
    ??0RegexMatcher@icu_58@@QEAA@AEBVUnicodeString@1@0IAEAW4UErrorCode@@@Z @268
    ??0RegexMatcher@icu_58@@QEAA@AEBVUnicodeString@1@IAEAW4UErrorCode@@@Z @269
    ??0RegexMatcher@icu_58@@QEAA@PEAUUText@@0IAEAW4UErrorCode@@@Z @270
    ??0RegexMatcher@icu_58@@QEAA@PEAUUText@@IAEAW4UErrorCode@@@Z @271
    ??0RegexPattern@icu_58@@QEAA@AEBV01@@Z @272
    ??0RegexPattern@icu_58@@QEAA@XZ @273
    ??0Region@icu_58@@AEAA@XZ @274
    ??0Region@icu_58@@QEAA@AEBV01@@Z @275
    ??0RelativeDateTimeFormatter@icu_58@@QEAA@AEAW4UErrorCode@@@Z @276
    ??0RelativeDateTimeFormatter@icu_58@@QEAA@AEBV01@@Z @277
    ??0RelativeDateTimeFormatter@icu_58@@QEAA@AEBVLocale@1@AEAW4UErrorCode@@@Z @278
    ??0RelativeDateTimeFormatter@icu_58@@QEAA@AEBVLocale@1@PEAVNumberFormat@1@AEAW4UErrorCode@@@Z @279
    ??0RelativeDateTimeFormatter@icu_58@@QEAA@AEBVLocale@1@PEAVNumberFormat@1@W4UDateRelativeDateTimeFormatterStyle@@W4UDisplayContext@@AEAW4UErrorCode@@@Z @280
    ??0RuleBasedCollator@icu_58@@AEAA@PEBUCollationCacheEntry@1@@Z @281
    ??0RuleBasedCollator@icu_58@@QEAA@AEBV01@@Z @282
    ??0RuleBasedCollator@icu_58@@QEAA@AEBVUnicodeString@1@AEAUUParseError@@AEAV21@AEAW4UErrorCode@@@Z @283
    ??0RuleBasedCollator@icu_58@@QEAA@AEBVUnicodeString@1@AEAW4UErrorCode@@@Z @284
    ??0RuleBasedCollator@icu_58@@QEAA@AEBVUnicodeString@1@W4ECollationStrength@Collator@1@AEAW4UErrorCode@@@Z @285
    ??0RuleBasedCollator@icu_58@@QEAA@AEBVUnicodeString@1@W4ECollationStrength@Collator@1@W4UColAttributeValue@@AEAW4UErrorCode@@@Z @286
    ??0RuleBasedCollator@icu_58@@QEAA@AEBVUnicodeString@1@W4UColAttributeValue@@AEAW4UErrorCode@@@Z @287
    ??0RuleBasedCollator@icu_58@@QEAA@PEBEHPEBV01@AEAW4UErrorCode@@@Z @288
    ??0RuleBasedCollator@icu_58@@QEAA@XZ @289
    ??0RuleBasedNumberFormat@icu_58@@AEAA@AEBVUnicodeString@1@PEAVLocalizationInfo@1@AEBVLocale@1@AEAUUParseError@@AEAW4UErrorCode@@@Z @290
    ??0RuleBasedNumberFormat@icu_58@@QEAA@AEBV01@@Z @291
    ??0RuleBasedNumberFormat@icu_58@@QEAA@AEBVUnicodeString@1@0AEAUUParseError@@AEAW4UErrorCode@@@Z @292
    ??0RuleBasedNumberFormat@icu_58@@QEAA@AEBVUnicodeString@1@0AEBVLocale@1@AEAUUParseError@@AEAW4UErrorCode@@@Z @293
    ??0RuleBasedNumberFormat@icu_58@@QEAA@AEBVUnicodeString@1@AEAUUParseError@@AEAW4UErrorCode@@@Z @294
    ??0RuleBasedNumberFormat@icu_58@@QEAA@AEBVUnicodeString@1@AEBVLocale@1@AEAUUParseError@@AEAW4UErrorCode@@@Z @295
    ??0RuleBasedNumberFormat@icu_58@@QEAA@W4URBNFRuleSetTag@1@AEBVLocale@1@AEAW4UErrorCode@@@Z @296
    ??0RuleBasedTimeZone@icu_58@@QEAA@AEBV01@@Z @297
    ??0RuleBasedTimeZone@icu_58@@QEAA@AEBVUnicodeString@1@PEAVInitialTimeZoneRule@1@@Z @298
    ??0SciFormatterOptions@icu_58@@QEAA@XZ @299
    ??0ScientificNumberFormatter@icu_58@@AEAA@AEBV01@@Z @300
    ??0ScientificNumberFormatter@icu_58@@AEAA@PEAVDecimalFormat@1@PEAVStyle@01@AEAW4UErrorCode@@@Z @301
    ??0ScientificPrecision@icu_58@@QEAA@$$QEAV01@@Z @302
    ??0ScientificPrecision@icu_58@@QEAA@AEBV01@@Z @303
    ??0ScientificPrecision@icu_58@@QEAA@XZ @304
    ??0ScriptSet@icu_58@@QEAA@AEBV01@@Z @305
    ??0ScriptSet@icu_58@@QEAA@XZ @306
    ??0SearchIterator@icu_58@@IEAA@AEAVCharacterIterator@1@PEAVBreakIterator@1@@Z @307
    ??0SearchIterator@icu_58@@IEAA@AEBVUnicodeString@1@PEAVBreakIterator@1@@Z @308
    ??0SearchIterator@icu_58@@IEAA@XZ @309
    ??0SearchIterator@icu_58@@QEAA@AEBV01@@Z @310
    ??0SelectFormat@icu_58@@QEAA@AEBV01@@Z @311
    ??0SelectFormat@icu_58@@QEAA@AEBVUnicodeString@1@AEAW4UErrorCode@@@Z @312
    ??0SharedBreakIterator@icu_58@@QEAA@PEAVBreakIterator@1@@Z @313
    ??0SharedCalendar@icu_58@@QEAA@PEAVCalendar@1@@Z @314
    ??0SharedDateFormatSymbols@icu_58@@QEAA@AEBVLocale@1@PEBDAEAW4UErrorCode@@@Z @315
    ??0SharedNumberFormat@icu_58@@QEAA@PEAVNumberFormat@1@@Z @316
    ??0SharedPluralRules@icu_58@@QEAA@PEAVPluralRules@1@@Z @317
    ??0SignificantDigitInterval@icu_58@@QEAA@XZ @318
    ??0SimpleDateFormat@icu_58@@AEAA@AEBVLocale@1@AEAW4UErrorCode@@@Z @319
    ??0SimpleDateFormat@icu_58@@AEAA@W4EStyle@DateFormat@1@0AEBVLocale@1@AEAW4UErrorCode@@@Z @320
    ??0SimpleDateFormat@icu_58@@QEAA@AEAW4UErrorCode@@@Z @321
    ??0SimpleDateFormat@icu_58@@QEAA@AEBV01@@Z @322
    ??0SimpleDateFormat@icu_58@@QEAA@AEBVUnicodeString@1@0AEAW4UErrorCode@@@Z @323
    ??0SimpleDateFormat@icu_58@@QEAA@AEBVUnicodeString@1@0AEBVLocale@1@AEAW4UErrorCode@@@Z @324
    ??0SimpleDateFormat@icu_58@@QEAA@AEBVUnicodeString@1@AEAW4UErrorCode@@@Z @325
    ??0SimpleDateFormat@icu_58@@QEAA@AEBVUnicodeString@1@AEBVDateFormatSymbols@1@AEAW4UErrorCode@@@Z @326
    ??0SimpleDateFormat@icu_58@@QEAA@AEBVUnicodeString@1@AEBVLocale@1@AEAW4UErrorCode@@@Z @327
    ??0SimpleDateFormat@icu_58@@QEAA@AEBVUnicodeString@1@PEAVDateFormatSymbols@1@AEAW4UErrorCode@@@Z @328
    ??0SimpleNumberFormatFactory@icu_58@@QEAA@AEBV01@@Z @329
    ??0SimpleNumberFormatFactory@icu_58@@QEAA@AEBVLocale@1@C@Z @330
    ??0SimpleTimeZone@icu_58@@QEAA@AEBV01@@Z @331
    ??0SimpleTimeZone@icu_58@@QEAA@HAEBVUnicodeString@1@@Z @332
    ??0SimpleTimeZone@icu_58@@QEAA@HAEBVUnicodeString@1@CCCHCCCHAEAW4UErrorCode@@@Z @333
    ??0SimpleTimeZone@icu_58@@QEAA@HAEBVUnicodeString@1@CCCHCCCHHAEAW4UErrorCode@@@Z @334
    ??0SimpleTimeZone@icu_58@@QEAA@HAEBVUnicodeString@1@CCCHW4TimeMode@01@CCCH1HAEAW4UErrorCode@@@Z @335
    ??0Sink@CollationRuleParser@icu_58@@QEAA@AEBV012@@Z @336
    ??0Sink@CollationRuleParser@icu_58@@QEAA@XZ @337
    ??0StringSearch@icu_58@@QEAA@AEBV01@@Z @338
    ??0StringSearch@icu_58@@QEAA@AEBVUnicodeString@1@0AEBVLocale@1@PEAVBreakIterator@1@AEAW4UErrorCode@@@Z @339
    ??0StringSearch@icu_58@@QEAA@AEBVUnicodeString@1@0PEAVRuleBasedCollator@1@PEAVBreakIterator@1@AEAW4UErrorCode@@@Z @340
    ??0StringSearch@icu_58@@QEAA@AEBVUnicodeString@1@AEAVCharacterIterator@1@AEBVLocale@1@PEAVBreakIterator@1@AEAW4UErrorCode@@@Z @341
    ??0StringSearch@icu_58@@QEAA@AEBVUnicodeString@1@AEAVCharacterIterator@1@PEAVRuleBasedCollator@1@PEAVBreakIterator@1@AEAW4UErrorCode@@@Z @342
    ??0Style@ScientificNumberFormatter@icu_58@@QEAA@$$QEAV012@@Z @343
    ??0Style@ScientificNumberFormatter@icu_58@@QEAA@AEBV012@@Z @344
    ??0Style@ScientificNumberFormatter@icu_58@@QEAA@XZ @345
    ??0SuperscriptStyle@ScientificNumberFormatter@icu_58@@QEAA@$$QEAV012@@Z @346
    ??0SuperscriptStyle@ScientificNumberFormatter@icu_58@@QEAA@AEBV012@@Z @347
    ??0SuperscriptStyle@ScientificNumberFormatter@icu_58@@QEAA@XZ @348
    ??0TextTrieMap@icu_58@@QEAA@AEBV01@@Z @349
    ??0TextTrieMap@icu_58@@QEAA@CP6AXPEAX@Z@Z @350
    ??0TimeArrayTimeZoneRule@icu_58@@QEAA@AEBV01@@Z @351
    ??0TimeArrayTimeZoneRule@icu_58@@QEAA@AEBVUnicodeString@1@HHPEBNHW4TimeRuleType@DateTimeRule@1@@Z @352
    ??0TimeUnit@icu_58@@AEAA@W4UTimeUnitFields@01@@Z @353
    ??0TimeUnit@icu_58@@QEAA@AEBV01@@Z @354
    ??0TimeUnitAmount@icu_58@@QEAA@AEBV01@@Z @355
    ??0TimeUnitAmount@icu_58@@QEAA@AEBVFormattable@1@W4UTimeUnitFields@TimeUnit@1@AEAW4UErrorCode@@@Z @356
    ??0TimeUnitAmount@icu_58@@QEAA@NW4UTimeUnitFields@TimeUnit@1@AEAW4UErrorCode@@@Z @357
    ??0TimeUnitFormat@icu_58@@QEAA@AEAW4UErrorCode@@@Z @358
    ??0TimeUnitFormat@icu_58@@QEAA@AEBV01@@Z @359
    ??0TimeUnitFormat@icu_58@@QEAA@AEBVLocale@1@AEAW4UErrorCode@@@Z @360
    ??0TimeUnitFormat@icu_58@@QEAA@AEBVLocale@1@W4UTimeUnitFormatStyle@@AEAW4UErrorCode@@@Z @361
    ??0TimeZone@icu_58@@IEAA@AEBV01@@Z @362
    ??0TimeZone@icu_58@@IEAA@AEBVUnicodeString@1@@Z @363
    ??0TimeZone@icu_58@@IEAA@XZ @364
    ??0TimeZoneFormat@icu_58@@IEAA@AEBVLocale@1@AEAW4UErrorCode@@@Z @365
    ??0TimeZoneFormat@icu_58@@QEAA@AEBV01@@Z @366
    ??0TimeZoneGenericNames@icu_58@@AEAA@XZ @367
    ??0TimeZoneGenericNames@icu_58@@QEAA@AEBV01@@Z @368
    ??0TimeZoneNames@icu_58@@QEAA@AEBV01@@Z @369
    ??0TimeZoneNames@icu_58@@QEAA@XZ @370
    ??0TimeZoneRule@icu_58@@IEAA@AEBV01@@Z @371
    ??0TimeZoneRule@icu_58@@IEAA@AEBVUnicodeString@1@HH@Z @372
    ??0TimeZoneTransition@icu_58@@QEAA@AEBV01@@Z @373
    ??0TimeZoneTransition@icu_58@@QEAA@NAEBVTimeZoneRule@1@0@Z @374
    ??0TimeZoneTransition@icu_58@@QEAA@XZ @375
    ??0Transliterator@icu_58@@IEAA@AEBV01@@Z @376
    ??0Transliterator@icu_58@@IEAA@AEBVUnicodeString@1@PEAVUnicodeFilter@1@@Z @377
    ??0UIterCollationIterator@icu_58@@QEAA@AEBV01@@Z @378
    ??0UIterCollationIterator@icu_58@@QEAA@PEBUCollationData@1@CAEAUUCharIterator@@@Z @379
    ??0UTF16CollationIterator@icu_58@@IEAA@AEBV01@@Z @380
    ??0UTF16CollationIterator@icu_58@@QEAA@AEBV01@PEB_W@Z @381
    ??0UTF16CollationIterator@icu_58@@QEAA@PEBUCollationData@1@CPEB_W11@Z @382
    ??0UTF8CollationIterator@icu_58@@QEAA@AEBV01@@Z @383
    ??0UTF8CollationIterator@icu_58@@QEAA@PEBUCollationData@1@CPEBEHH@Z @384
    ??0UnicodeReplacer@icu_58@@QEAA@AEBV01@@Z @385
    ??0UnicodeReplacer@icu_58@@QEAA@XZ @386
    ??0VTimeZone@icu_58@@AEAA@XZ @387
    ??0VTimeZone@icu_58@@QEAA@AEBV01@@Z @388
    ??0ValueFormatter@icu_58@@QEAA@XZ @389
    ??0VisibleDigits@icu_58@@QEAA@XZ @390
    ??0VisibleDigitsWithExponent@icu_58@@QEAA@XZ @391
    ??0ZNStringPool@icu_58@@QEAA@AEAW4UErrorCode@@@Z @392
    ??1?$CacheKey@VDateFmtBestPattern@icu_58@@@icu_58@@UEAA@XZ @393
    ??1?$EnumSet@W4UDateFormatBooleanAttribute@@$0A@$03@icu_58@@QEAA@XZ @394
    ??1?$EnumSet@W4UNumberFormatAttribute@@$0BAAA@$0BAAD@@icu_58@@QEAA@XZ @395
    ??1?$LocaleCacheKey@VDateFmtBestPattern@icu_58@@@icu_58@@UEAA@XZ @396
    ??1?$MaybeStackHeaderAndArray@UdecNumber@@D$0CI@@icu_58@@QEAA@XZ @397
    ??1?$PluralMap@VDigitAffix@icu_58@@@icu_58@@QEAA@XZ @398
    ??1AffixPattern@icu_58@@QEAA@XZ @399
    ??1AffixPatternParser@icu_58@@QEAA@XZ @400
    ??1AlphabeticIndex@icu_58@@UEAA@XZ @401
    ??1AnnualTimeZoneRule@icu_58@@UEAA@XZ @402
    ??1BasicTimeZone@icu_58@@UEAA@XZ @403
    ??1Bucket@AlphabeticIndex@icu_58@@UEAA@XZ @404
    ??1CECalendar@icu_58@@MEAA@XZ @405
    ??1Calendar@icu_58@@UEAA@XZ @406
    ??1CalendarAstronomer@icu_58@@QEAA@XZ @407
    ??1ChineseCalendar@icu_58@@UEAA@XZ @408
    ??1ChoiceFormat@icu_58@@UEAA@XZ @409
    ??1CollationBuilder@icu_58@@UEAA@XZ @410
    ??1CollationDataBuilder@icu_58@@UEAA@XZ @411
    ??1CollationElementIterator@icu_58@@UEAA@XZ @412
    ??1CollationFastLatinBuilder@icu_58@@UEAA@XZ @413
    ??1CollationIterator@icu_58@@UEAA@XZ @414
    ??1CollationKey@icu_58@@UEAA@XZ @415
    ??1CollationRuleParser@icu_58@@QEAA@XZ @416
    ??1CollationSettings@icu_58@@UEAA@XZ @417
    ??1CollationTailoring@icu_58@@UEAA@XZ @418
    ??1Collator@icu_58@@UEAA@XZ @419
    ??1CollatorFactory@icu_58@@UEAA@XZ @420
    ??1CompactDecimalFormat@icu_58@@UEAA@XZ @421
    ??1CompoundTransliterator@icu_58@@UEAA@XZ @422
    ??1CurrencyAffixInfo@icu_58@@QEAA@XZ @423
    ??1CurrencyAmount@icu_58@@UEAA@XZ @424
    ??1CurrencyPluralInfo@icu_58@@UEAA@XZ @425
    ??1CurrencyUnit@icu_58@@UEAA@XZ @426
    ??1DateFmtBestPattern@icu_58@@UEAA@XZ @427
    ??1DateFmtBestPatternKey@icu_58@@UEAA@XZ @428
    ??1DateFormat@icu_58@@UEAA@XZ @429
    ??1DateFormatSymbols@icu_58@@UEAA@XZ @430
    ??1DateIntervalFormat@icu_58@@UEAA@XZ @431
    ??1DateIntervalInfo@icu_58@@UEAA@XZ @432
    ??1DateTimePatternGenerator@icu_58@@UEAA@XZ @433
    ??1DateTimeRule@icu_58@@UEAA@XZ @434
    ??1DecimalFormat@icu_58@@UEAA@XZ @435
    ??1DecimalFormatSymbols@icu_58@@UEAA@XZ @436
    ??1DigitAffix@icu_58@@QEAA@XZ @437
    ??1DigitAffixesAndPadding@icu_58@@QEAA@XZ @438
    ??1DigitFormatter@icu_58@@QEAA@XZ @439
    ??1DigitList@icu_58@@QEAA@XZ @440
    ??1DummyFormat@MessageFormat@icu_58@@UEAA@XZ @441
    ??1FCDUIterCollationIterator@icu_58@@UEAA@XZ @442
    ??1FCDUTF16CollationIterator@icu_58@@UEAA@XZ @443
    ??1FCDUTF8CollationIterator@icu_58@@UEAA@XZ @444
    ??1FieldPosition@icu_58@@UEAA@XZ @445
    ??1FieldPositionHandler@icu_58@@UEAA@XZ @446
    ??1FieldPositionIterator@icu_58@@UEAA@XZ @447
    ??1FixedPrecision@icu_58@@QEAA@XZ @448
    ??1Format@icu_58@@UEAA@XZ @449
    ??1Formattable@icu_58@@UEAA@XZ @450
    ??1GenderInfo@icu_58@@UEAA@XZ @451
    ??1GregorianCalendar@icu_58@@UEAA@XZ @452
    ??1HebrewCalendar@icu_58@@UEAA@XZ @453
    ??1ImmutableIndex@AlphabeticIndex@icu_58@@UEAA@XZ @454
    ??1Importer@CollationRuleParser@icu_58@@UEAA@XZ @455
    ??1InitialTimeZoneRule@icu_58@@UEAA@XZ @456
    ??1IslamicCalendar@icu_58@@UEAA@XZ @457
    ??1MarkupStyle@ScientificNumberFormatter@icu_58@@UEAA@XZ @458
    ??1MatchInfoCollection@TimeZoneNames@icu_58@@UEAA@XZ @459
    ??1Measure@icu_58@@UEAA@XZ @460
    ??1MeasureFormat@icu_58@@UEAA@XZ @461
    ??1MeasureUnit@icu_58@@UEAA@XZ @462
    ??1MessageFormat@icu_58@@UEAA@XZ @463
    ??1NumberFormat@icu_58@@UEAA@XZ @464
    ??1NumberFormatFactory@icu_58@@UEAA@XZ @465
    ??1NumberingSystem@icu_58@@UEAA@XZ @466
    ??1OlsonTimeZone@icu_58@@UEAA@XZ @467
    ??1PluralAffix@icu_58@@QEAA@XZ @468
    ??1PluralAvailableLocalesEnumeration@icu_58@@UEAA@XZ @469
    ??1PluralFormat@icu_58@@UEAA@XZ @470
    ??1PluralRules@icu_58@@UEAA@XZ @471
    ??1PluralSelector@PluralFormat@icu_58@@UEAA@XZ @472
    ??1PluralSelectorAdapter@PluralFormat@icu_58@@UEAA@XZ @473
    ??1PluralSelectorProvider@MessageFormat@icu_58@@UEAA@XZ @474
    ??1QuantityFormatter@icu_58@@QEAA@XZ @475
    ??1RegexCompile@icu_58@@UEAA@XZ @476
    ??1RegexMatcher@icu_58@@UEAA@XZ @477
    ??1RegexPattern@icu_58@@UEAA@XZ @478
    ??1Region@icu_58@@UEAA@XZ @479
    ??1RelativeDateTimeFormatter@icu_58@@UEAA@XZ @480
    ??1RuleBasedCollator@icu_58@@UEAA@XZ @481
    ??1RuleBasedNumberFormat@icu_58@@UEAA@XZ @482
    ??1RuleBasedTimeZone@icu_58@@UEAA@XZ @483
    ??1ScientificNumberFormatter@icu_58@@UEAA@XZ @484
    ??1ScientificPrecision@icu_58@@QEAA@XZ @485
    ??1ScriptSet@icu_58@@QEAA@XZ @486
    ??1SearchIterator@icu_58@@UEAA@XZ @487
    ??1SelectFormat@icu_58@@UEAA@XZ @488
    ??1SharedBreakIterator@icu_58@@UEAA@XZ @489
    ??1SharedCalendar@icu_58@@UEAA@XZ @490
    ??1SharedDateFormatSymbols@icu_58@@UEAA@XZ @491
    ??1SharedNumberFormat@icu_58@@UEAA@XZ @492
    ??1SharedPluralRules@icu_58@@UEAA@XZ @493
    ??1SimpleDateFormat@icu_58@@UEAA@XZ @494
    ??1SimpleNumberFormatFactory@icu_58@@UEAA@XZ @495
    ??1SimpleTimeZone@icu_58@@UEAA@XZ @496
    ??1Sink@CollationRuleParser@icu_58@@UEAA@XZ @497
    ??1StringSearch@icu_58@@UEAA@XZ @498
    ??1Style@ScientificNumberFormatter@icu_58@@UEAA@XZ @499
    ??1SuperscriptStyle@ScientificNumberFormatter@icu_58@@UEAA@XZ @500
    ??1TextTrieMap@icu_58@@UEAA@XZ @501
    ??1TimeArrayTimeZoneRule@icu_58@@UEAA@XZ @502
    ??1TimeUnit@icu_58@@UEAA@XZ @503
    ??1TimeUnitAmount@icu_58@@UEAA@XZ @504
    ??1TimeUnitFormat@icu_58@@UEAA@XZ @505
    ??1TimeZone@icu_58@@UEAA@XZ @506
    ??1TimeZoneFormat@icu_58@@UEAA@XZ @507
    ??1TimeZoneGenericNames@icu_58@@UEAA@XZ @508
    ??1TimeZoneNames@icu_58@@UEAA@XZ @509
    ??1TimeZoneRule@icu_58@@UEAA@XZ @510
    ??1TimeZoneTransition@icu_58@@UEAA@XZ @511
    ??1Transliterator@icu_58@@UEAA@XZ @512
    ??1UIterCollationIterator@icu_58@@UEAA@XZ @513
    ??1UTF16CollationIterator@icu_58@@UEAA@XZ @514
    ??1UTF8CollationIterator@icu_58@@UEAA@XZ @515
    ??1UnicodeReplacer@icu_58@@UEAA@XZ @516
    ??1VTimeZone@icu_58@@UEAA@XZ @517
    ??1ValueFormatter@icu_58@@UEAA@XZ @518
    ??1VisibleDigits@icu_58@@QEAA@XZ @519
    ??1VisibleDigitsWithExponent@icu_58@@QEAA@XZ @520
    ??1ZNStringPool@icu_58@@QEAA@XZ @521
    ??2DigitList@icu_58@@SAPEAX_KPEAXW4EStackMode@1@@Z @522
    ??3DigitList@icu_58@@SAXPEAX0W4EStackMode@1@@Z @523
    ??4?$CacheKey@VDateFmtBestPattern@icu_58@@@icu_58@@QEAAAEAV01@AEBV01@@Z @524
    ??4?$EnumSet@W4UDateFormatBooleanAttribute@@$0A@$03@icu_58@@QEAAAEBV01@AEBV01@@Z @525
    ??4?$EnumSet@W4UNumberFormatAttribute@@$0BAAA@$0BAAD@@icu_58@@QEAAAEBV01@AEBV01@@Z @526
    ??4?$LocaleCacheKey@VDateFmtBestPattern@icu_58@@@icu_58@@QEAAAEAV01@AEBV01@@Z @527
    ??4?$MaybeStackHeaderAndArray@UdecNumber@@D$0CI@@icu_58@@AEAAXAEBV01@@Z @528
    ??4?$PluralMap@VDigitAffix@icu_58@@@icu_58@@QEAAAEAV01@AEBV01@@Z @529
    ??4AffixPattern@icu_58@@QEAAAEAV01@$$QEAV01@@Z @530
    ??4AffixPattern@icu_58@@QEAAAEAV01@AEBV01@@Z @531
    ??4AffixPatternParser@icu_58@@QEAAAEAV01@$$QEAV01@@Z @532
    ??4AffixPatternParser@icu_58@@QEAAAEAV01@AEBV01@@Z @533
    ??4AlphabeticIndex@icu_58@@AEAAAEAV01@AEBV01@@Z @534
    ??4AnnualTimeZoneRule@icu_58@@QEAAAEAV01@AEBV01@@Z @535
    ??4BasicTimeZone@icu_58@@QEAAAEAV01@AEBV01@@Z @536
    ??4Bucket@AlphabeticIndex@icu_58@@QEAAAEAV012@AEBV012@@Z @537
    ??4CECalendar@icu_58@@IEAAAEAV01@AEBV01@@Z @538
    ??4Calendar@icu_58@@IEAAAEAV01@AEBV01@@Z @539
    ??4CalendarAstronomer@icu_58@@QEAAAEAV01@AEBV01@@Z @540
    ??4ChineseCalendar@icu_58@@QEAAAEAV01@AEBV01@@Z @541
    ??4ChoiceFormat@icu_58@@QEAAAEBV01@AEBV01@@Z @542
    ??4Collation@icu_58@@QEAAAEAV01@$$QEAV01@@Z @543
    ??4Collation@icu_58@@QEAAAEAV01@AEBV01@@Z @544
    ??4CollationCompare@icu_58@@QEAAAEAV01@$$QEAV01@@Z @545
    ??4CollationCompare@icu_58@@QEAAAEAV01@AEBV01@@Z @546
    ??4CollationDataReader@icu_58@@QEAAAEAU01@$$QEAU01@@Z @547
    ??4CollationDataReader@icu_58@@QEAAAEAU01@AEBU01@@Z @548
    ??4CollationDataWriter@icu_58@@QEAAAEAV01@$$QEAV01@@Z @549
    ??4CollationDataWriter@icu_58@@QEAAAEAV01@AEBV01@@Z @550
    ??4CollationElementIterator@icu_58@@AEAAAEBV01@AEBV01@@Z @551
    ??4CollationFCD@icu_58@@QEAAAEAV01@$$QEAV01@@Z @552
    ??4CollationFCD@icu_58@@QEAAAEAV01@AEBV01@@Z @553
    ??4CollationFastLatin@icu_58@@QEAAAEAV01@$$QEAV01@@Z @554
    ??4CollationFastLatin@icu_58@@QEAAAEAV01@AEBV01@@Z @555
    ??4CollationKey@icu_58@@QEAAAEBV01@AEBV01@@Z @556
    ??4CollationKeys@icu_58@@QEAAAEAV01@$$QEAV01@@Z @557
    ??4CollationKeys@icu_58@@QEAAAEAV01@AEBV01@@Z @558
    ??4CollationRoot@icu_58@@QEAAAEAV01@$$QEAV01@@Z @559
    ??4CollationRoot@icu_58@@QEAAAEAV01@AEBV01@@Z @560
    ??4CollationRootElements@icu_58@@QEAAAEAV01@$$QEAV01@@Z @561
    ??4CollationRootElements@icu_58@@QEAAAEAV01@AEBV01@@Z @562
    ??4CollationSettings@icu_58@@QEAAAEAU01@AEBU01@@Z @563
    ??4CollationTailoring@icu_58@@QEAAAEAU01@AEBU01@@Z @564
    ??4CollationWeights@icu_58@@QEAAAEAV01@$$QEAV01@@Z @565
    ??4CollationWeights@icu_58@@QEAAAEAV01@AEBV01@@Z @566
    ??4CollatorFactory@icu_58@@QEAAAEAV01@AEBV01@@Z @567
    ??4CompactDecimalFormat@icu_58@@QEAAAEAV01@AEBV01@@Z @568
    ??4CompoundTransliterator@icu_58@@AEAAAEAV01@AEBV01@@Z @569
    ??4CurrencyAffixInfo@icu_58@@QEAAAEAV01@$$QEAV01@@Z @570
    ??4CurrencyAffixInfo@icu_58@@QEAAAEAV01@AEBV01@@Z @571
    ??4CurrencyAmount@icu_58@@QEAAAEAV01@AEBV01@@Z @572
    ??4CurrencyPluralInfo@icu_58@@QEAAAEAV01@AEBV01@@Z @573
    ??4CurrencyUnit@icu_58@@QEAAAEAV01@AEBV01@@Z @574
    ??4DateFmtBestPattern@icu_58@@QEAAAEAV01@AEBV01@@Z @575
    ??4DateFmtBestPatternKey@icu_58@@QEAAAEAV01@AEBV01@@Z @576
    ??4DateFormat@icu_58@@IEAAAEAV01@AEBV01@@Z @577
    ??4DateFormatSymbols@icu_58@@QEAAAEAV01@AEBV01@@Z @578
    ??4DateIntervalFormat@icu_58@@IEAAAEAV01@AEBV01@@Z @579
    ??4DateIntervalInfo@icu_58@@QEAAAEAV01@AEBV01@@Z @580
    ??4DateTimePatternGenerator@icu_58@@AEAAAEAV01@AEBV01@@Z @581
    ??4DateTimeRule@icu_58@@QEAAAEAV01@AEBV01@@Z @582
    ??4DecimalFormat@icu_58@@QEAAAEAV01@AEBV01@@Z @583
    ??4DecimalFormatSymbols@icu_58@@QEAAAEAV01@AEBV01@@Z @584
    ??4DigitAffix@icu_58@@QEAAAEAV01@$$QEAV01@@Z @585
    ??4DigitAffix@icu_58@@QEAAAEAV01@AEBV01@@Z @586
    ??4DigitAffixesAndPadding@icu_58@@QEAAAEAV01@$$QEAV01@@Z @587
    ??4DigitAffixesAndPadding@icu_58@@QEAAAEAV01@AEBV01@@Z @588
    ??4DigitFormatter@icu_58@@QEAAAEAV01@$$QEAV01@@Z @589
    ??4DigitFormatter@icu_58@@QEAAAEAV01@AEBV01@@Z @590
    ??4DigitFormatterIntOptions@icu_58@@QEAAAEAV01@$$QEAV01@@Z @591
    ??4DigitFormatterIntOptions@icu_58@@QEAAAEAV01@AEBV01@@Z @592
    ??4DigitFormatterOptions@icu_58@@QEAAAEAV01@$$QEAV01@@Z @593
    ??4DigitFormatterOptions@icu_58@@QEAAAEAV01@AEBV01@@Z @594
    ??4DigitGrouping@icu_58@@QEAAAEAV01@$$QEAV01@@Z @595
    ??4DigitGrouping@icu_58@@QEAAAEAV01@AEBV01@@Z @596
    ??4DigitInterval@icu_58@@QEAAAEAV01@$$QEAV01@@Z @597
    ??4DigitInterval@icu_58@@QEAAAEAV01@AEBV01@@Z @598
    ??4DigitList@icu_58@@QEAAAEAV01@AEBV01@@Z @599
    ??4DummyFormat@MessageFormat@icu_58@@QEAAAEAV012@$$QEAV012@@Z @600
    ??4DummyFormat@MessageFormat@icu_58@@QEAAAEAV012@AEBV012@@Z @601
    ??4Ecliptic@CalendarAstronomer@icu_58@@QEAAAEAV012@$$QEAV012@@Z @602
    ??4Ecliptic@CalendarAstronomer@icu_58@@QEAAAEAV012@AEBV012@@Z @603
    ??4Equatorial@CalendarAstronomer@icu_58@@QEAAAEAV012@$$QEAV012@@Z @604
    ??4Equatorial@CalendarAstronomer@icu_58@@QEAAAEAV012@AEBV012@@Z @605
    ??4FieldPosition@icu_58@@QEAAAEAV01@AEBV01@@Z @606
    ??4FieldPositionHandler@icu_58@@QEAAAEAV01@AEBV01@@Z @607
    ??4FieldPositionIterator@icu_58@@QEAAAEAV01@AEBV01@@Z @608
    ??4FixedDecimal@icu_58@@QEAAAEAV01@AEBV01@@Z @609
    ??4FixedPrecision@icu_58@@QEAAAEAV01@$$QEAV01@@Z @610
    ??4FixedPrecision@icu_58@@QEAAAEAV01@AEBV01@@Z @611
    ??4Format@icu_58@@IEAAAEAV01@AEBV01@@Z @612
    ??4Formattable@icu_58@@QEAAAEAV01@AEBV01@@Z @613
    ??4GregorianCalendar@icu_58@@QEAAAEAV01@AEBV01@@Z @614
    ??4Horizon@CalendarAstronomer@icu_58@@QEAAAEAV012@$$QEAV012@@Z @615
    ??4Horizon@CalendarAstronomer@icu_58@@QEAAAEAV012@AEBV012@@Z @616
    ??4ImmutableIndex@AlphabeticIndex@icu_58@@QEAAAEAV012@AEBV012@@Z @617
    ??4Importer@CollationRuleParser@icu_58@@QEAAAEAV012@AEBV012@@Z @618
    ??4InitialTimeZoneRule@icu_58@@QEAAAEAV01@AEBV01@@Z @619
    ??4IntDigitCountRange@icu_58@@QEAAAEAV01@$$QEAV01@@Z @620
    ??4IntDigitCountRange@icu_58@@QEAAAEAV01@AEBV01@@Z @621
    ??4IslamicCalendar@icu_58@@QEAAAEAV01@AEBV01@@Z @622
    ??4MarkupStyle@ScientificNumberFormatter@icu_58@@QEAAAEAV012@$$QEAV012@@Z @623
    ??4MarkupStyle@ScientificNumberFormatter@icu_58@@QEAAAEAV012@AEBV012@@Z @624
    ??4MatchInfoCollection@TimeZoneNames@icu_58@@QEAAAEAV012@AEBV012@@Z @625
    ??4Measure@icu_58@@QEAAAEAV01@AEBV01@@Z @626
    ??4MeasureFormat@icu_58@@QEAAAEAV01@AEBV01@@Z @627
    ??4MeasureUnit@icu_58@@QEAAAEAV01@AEBV01@@Z @628
    ??4MessageFormat@icu_58@@QEAAAEBV01@AEBV01@@Z @629
    ??4MoonAge@CalendarAstronomer@icu_58@@QEAAAEAV012@$$QEAV012@@Z @630
    ??4MoonAge@CalendarAstronomer@icu_58@@QEAAAEAV012@AEBV012@@Z @631
    ??4NumberFormat@icu_58@@IEAAAEAV01@AEBV01@@Z @632
    ??4NumberFormatFactory@icu_58@@QEAAAEAV01@AEBV01@@Z @633
    ??4NumberingSystem@icu_58@@QEAAAEAV01@AEBV01@@Z @634
    ??4OlsonTimeZone@icu_58@@QEAAAEAV01@AEBV01@@Z @635
    ??4PluralAffix@icu_58@@QEAAAEAV01@$$QEAV01@@Z @636
    ??4PluralAffix@icu_58@@QEAAAEAV01@AEBV01@@Z @637
    ??4PluralAvailableLocalesEnumeration@icu_58@@QEAAAEAV01@AEBV01@@Z @638
    ??4PluralFormat@icu_58@@QEAAAEAV01@AEBV01@@Z @639
    ??4PluralRules@icu_58@@QEAAAEAV01@AEBV01@@Z @640
    ??4PluralSelector@PluralFormat@icu_58@@QEAAAEAV012@AEBV012@@Z @641
    ??4PluralSelectorAdapter@PluralFormat@icu_58@@QEAAAEAV012@AEBV012@@Z @642
    ??4QuantityFormatter@icu_58@@QEAAAEAV01@AEBV01@@Z @643
    ??4RegexPattern@icu_58@@QEAAAEAV01@AEBV01@@Z @644
    ??4Region@icu_58@@QEAAAEAV01@AEBV01@@Z @645
    ??4RelativeDateTimeFormatter@icu_58@@QEAAAEAV01@AEBV01@@Z @646
    ??4RuleBasedCollator@icu_58@@QEAAAEAV01@AEBV01@@Z @647
    ??4RuleBasedNumberFormat@icu_58@@QEAAAEAV01@AEBV01@@Z @648
    ??4RuleBasedTimeZone@icu_58@@QEAAAEAV01@AEBV01@@Z @649
    ??4SciFormatterOptions@icu_58@@QEAAAEAV01@$$QEAV01@@Z @650
    ??4SciFormatterOptions@icu_58@@QEAAAEAV01@AEBV01@@Z @651
    ??4ScientificPrecision@icu_58@@QEAAAEAV01@$$QEAV01@@Z @652
    ??4ScientificPrecision@icu_58@@QEAAAEAV01@AEBV01@@Z @653
    ??4ScriptSet@icu_58@@QEAAAEAV01@AEBV01@@Z @654
    ??4SearchIterator@icu_58@@IEAAAEAV01@AEBV01@@Z @655
    ??4SelectFormat@icu_58@@QEAAAEAV01@AEBV01@@Z @656
    ??4SignificantDigitInterval@icu_58@@QEAAAEAV01@$$QEAV01@@Z @657
    ??4SignificantDigitInterval@icu_58@@QEAAAEAV01@AEBV01@@Z @658
    ??4SimpleDateFormat@icu_58@@QEAAAEAV01@AEBV01@@Z @659
    ??4SimpleTimeZone@icu_58@@QEAAAEAV01@AEBV01@@Z @660
    ??4Sink@CollationRuleParser@icu_58@@QEAAAEAV012@AEBV012@@Z @661
    ??4SmallIntFormatter@icu_58@@QEAAAEAV01@$$QEAV01@@Z @662
    ??4SmallIntFormatter@icu_58@@QEAAAEAV01@AEBV01@@Z @663
    ??4StandardPlural@icu_58@@QEAAAEAV01@$$QEAV01@@Z @664
    ??4StandardPlural@icu_58@@QEAAAEAV01@AEBV01@@Z @665
    ??4StringSearch@icu_58@@QEAAAEAV01@AEBV01@@Z @666
    ??4Style@ScientificNumberFormatter@icu_58@@QEAAAEAV012@$$QEAV012@@Z @667
    ??4Style@ScientificNumberFormatter@icu_58@@QEAAAEAV012@AEBV012@@Z @668
    ??4SuperscriptStyle@ScientificNumberFormatter@icu_58@@QEAAAEAV012@$$QEAV012@@Z @669
    ??4SuperscriptStyle@ScientificNumberFormatter@icu_58@@QEAAAEAV012@AEBV012@@Z @670
    ??4TextTrieMap@icu_58@@QEAAAEAV01@AEBV01@@Z @671
    ??4TimeArrayTimeZoneRule@icu_58@@QEAAAEAV01@AEBV01@@Z @672
    ??4TimeUnit@icu_58@@QEAAAEAV01@AEBV01@@Z @673
    ??4TimeUnitAmount@icu_58@@QEAAAEAV01@AEBV01@@Z @674
    ??4TimeUnitFormat@icu_58@@QEAAAEAV01@AEBV01@@Z @675
    ??4TimeZone@icu_58@@IEAAAEAV01@AEBV01@@Z @676
    ??4TimeZoneFormat@icu_58@@QEAAAEAV01@AEBV01@@Z @677
    ??4TimeZoneGenericNames@icu_58@@QEAAAEAV01@AEBV01@@Z @678
    ??4TimeZoneNames@icu_58@@QEAAAEAV01@AEBV01@@Z @679
    ??4TimeZoneRule@icu_58@@IEAAAEAV01@AEBV01@@Z @680
    ??4TimeZoneTransition@icu_58@@QEAAAEAV01@AEBV01@@Z @681
    ??4Transliterator@icu_58@@IEAAAEAV01@AEBV01@@Z @682
    ??4UnicodeReplacer@icu_58@@QEAAAEAV01@AEBV01@@Z @683
    ??4VTimeZone@icu_58@@QEAAAEAV01@AEBV01@@Z @684
    ??4ZNStringPool@icu_58@@QEAAAEAV01@AEBV01@@Z @685
    ??4ZoneMeta@icu_58@@QEAAAEAV01@$$QEAV01@@Z @686
    ??4ZoneMeta@icu_58@@QEAAAEAV01@AEBV01@@Z @687
    ??8?$CacheKey@VDateFmtBestPattern@icu_58@@@icu_58@@UEBACAEBVCacheKeyBase@1@@Z @688
    ??8?$LocaleCacheKey@VDateFmtBestPattern@icu_58@@@icu_58@@UEBACAEBVCacheKeyBase@1@@Z @689
    ??8?$MaybeStackHeaderAndArray@UdecNumber@@D$0CI@@icu_58@@AEAA_NAEBV01@@Z @690
    ??8AlphabeticIndex@icu_58@@EEBACAEBV01@@Z @691
    ??8AnnualTimeZoneRule@icu_58@@UEBACAEBVTimeZoneRule@1@@Z @692
    ??8Calendar@icu_58@@UEBACAEBV01@@Z @693
    ??8ChoiceFormat@icu_58@@UEBACAEBVFormat@1@@Z @694
    ??8CollationElementIterator@icu_58@@QEBACAEBV01@@Z @695
    ??8CollationIterator@icu_58@@UEBACAEBV01@@Z @696
    ??8CollationKey@icu_58@@QEBACAEBV01@@Z @697
    ??8CollationSettings@icu_58@@QEBACAEBU01@@Z @698
    ??8Collator@icu_58@@UEBACAEBV01@@Z @699
    ??8CompactDecimalFormat@icu_58@@UEBACAEBVFormat@1@@Z @700
    ??8CurrencyPluralInfo@icu_58@@QEBACAEBV01@@Z @701
    ??8DateFmtBestPatternKey@icu_58@@UEBACAEBVCacheKeyBase@1@@Z @702
    ??8DateFormat@icu_58@@UEBACAEBVFormat@1@@Z @703
    ??8DateFormatSymbols@icu_58@@QEBACAEBV01@@Z @704
    ??8DateIntervalFormat@icu_58@@UEBACAEBVFormat@1@@Z @705
    ??8DateIntervalInfo@icu_58@@UEBACAEBV01@@Z @706
    ??8DateTimePatternGenerator@icu_58@@QEBACAEBV01@@Z @707
    ??8DateTimeRule@icu_58@@QEBACAEBV01@@Z @708
    ??8DecimalFormat@icu_58@@UEBACAEBVFormat@1@@Z @709
    ??8DecimalFormatSymbols@icu_58@@QEBACAEBV01@@Z @710
    ??8DigitList@icu_58@@QEBACAEBV01@@Z @711
    ??8DummyFormat@MessageFormat@icu_58@@UEBACAEBVFormat@2@@Z @712
    ??8FCDUTF16CollationIterator@icu_58@@UEBACAEBVCollationIterator@1@@Z @713
    ??8FieldPosition@icu_58@@QEBACAEBV01@@Z @714
    ??8FieldPositionIterator@icu_58@@QEBACAEBV01@@Z @715
    ??8Format@icu_58@@UEBACAEBV01@@Z @716
    ??8Formattable@icu_58@@QEBACAEBV01@@Z @717
    ??8InitialTimeZoneRule@icu_58@@UEBACAEBVTimeZoneRule@1@@Z @718
    ??8Measure@icu_58@@QEBACAEBVUObject@1@@Z @719
    ??8MeasureFormat@icu_58@@UEBACAEBVFormat@1@@Z @720
    ??8MeasureUnit@icu_58@@UEBACAEBVUObject@1@@Z @721
    ??8MessageFormat@icu_58@@UEBACAEBVFormat@1@@Z @722
    ??8NumberFormat@icu_58@@UEBACAEBVFormat@1@@Z @723
    ??8OlsonTimeZone@icu_58@@UEBACAEBVTimeZone@1@@Z @724
    ??8PluralFormat@icu_58@@UEBACAEBVFormat@1@@Z @725
    ??8PluralRules@icu_58@@UEBACAEBV01@@Z @726
    ??8RegexPattern@icu_58@@QEBACAEBV01@@Z @727
    ??8Region@icu_58@@QEBACAEBV01@@Z @728
    ??8RuleBasedCollator@icu_58@@UEBACAEBVCollator@1@@Z @729
    ??8RuleBasedNumberFormat@icu_58@@UEBACAEBVFormat@1@@Z @730
    ??8RuleBasedTimeZone@icu_58@@UEBACAEBVTimeZone@1@@Z @731
    ??8ScriptSet@icu_58@@QEBACAEBV01@@Z @732
    ??8SearchIterator@icu_58@@UEBACAEBV01@@Z @733
    ??8SelectFormat@icu_58@@UEBACAEBVFormat@1@@Z @734
    ??8SimpleDateFormat@icu_58@@UEBACAEBVFormat@1@@Z @735
    ??8SimpleTimeZone@icu_58@@UEBACAEBVTimeZone@1@@Z @736
    ??8StringSearch@icu_58@@UEBACAEBVSearchIterator@1@@Z @737
    ??8TimeArrayTimeZoneRule@icu_58@@UEBACAEBVTimeZoneRule@1@@Z @738
    ??8TimeUnitAmount@icu_58@@UEBACAEBVUObject@1@@Z @739
    ??8TimeZone@icu_58@@UEBACAEBV01@@Z @740
    ??8TimeZoneFormat@icu_58@@UEBACAEBVFormat@1@@Z @741
    ??8TimeZoneGenericNames@icu_58@@UEBACAEBV01@@Z @742
    ??8TimeZoneRule@icu_58@@UEBACAEBV01@@Z @743
    ??8TimeZoneTransition@icu_58@@QEBACAEBV01@@Z @744
    ??8UTF16CollationIterator@icu_58@@UEBACAEBVCollationIterator@1@@Z @745
    ??8VTimeZone@icu_58@@UEBACAEBVTimeZone@1@@Z @746
    ??9?$MaybeStackHeaderAndArray@UdecNumber@@D$0CI@@icu_58@@AEAA_NAEBV01@@Z @747
    ??9AlphabeticIndex@icu_58@@EEBACAEBV01@@Z @748
    ??9AnnualTimeZoneRule@icu_58@@UEBACAEBVTimeZoneRule@1@@Z @749
    ??9Calendar@icu_58@@QEBACAEBV01@@Z @750
    ??9CollationElementIterator@icu_58@@QEBACAEBV01@@Z @751
    ??9CollationIterator@icu_58@@QEBACAEBV01@@Z @752
    ??9CollationKey@icu_58@@QEBACAEBV01@@Z @753
    ??9CollationSettings@icu_58@@QEBACAEBU01@@Z @754
    ??9Collator@icu_58@@UEBACAEBV01@@Z @755
    ??9CurrencyPluralInfo@icu_58@@QEBACAEBV01@@Z @756
    ??9DateFormatSymbols@icu_58@@QEBACAEBV01@@Z @757
    ??9DateIntervalFormat@icu_58@@QEBACAEBVFormat@1@@Z @758
    ??9DateIntervalInfo@icu_58@@QEBACAEBV01@@Z @759
    ??9DateTimePatternGenerator@icu_58@@QEBACAEBV01@@Z @760
    ??9DateTimeRule@icu_58@@QEBACAEBV01@@Z @761
    ??9DecimalFormatSymbols@icu_58@@QEBACAEBV01@@Z @762
    ??9DigitList@icu_58@@QEBACAEBV01@@Z @763
    ??9FieldPosition@icu_58@@QEBACAEBV01@@Z @764
    ??9FieldPositionIterator@icu_58@@QEBACAEBV01@@Z @765
    ??9Format@icu_58@@QEBACAEBV01@@Z @766
    ??9Formattable@icu_58@@QEBACAEBV01@@Z @767
    ??9InitialTimeZoneRule@icu_58@@UEBACAEBVTimeZoneRule@1@@Z @768
    ??9MeasureUnit@icu_58@@QEBACAEBVUObject@1@@Z @769
    ??9PluralFormat@icu_58@@UEBACAEBVFormat@1@@Z @770
    ??9PluralRules@icu_58@@QEBACAEBV01@@Z @771
    ??9RegexPattern@icu_58@@QEBACAEBV01@@Z @772
    ??9Region@icu_58@@QEBACAEBV01@@Z @773
    ??9RuleBasedTimeZone@icu_58@@UEBACAEBVTimeZone@1@@Z @774
    ??9ScriptSet@icu_58@@QEBACAEBV01@@Z @775
    ??9SearchIterator@icu_58@@QEBACAEBV01@@Z @776
    ??9SelectFormat@icu_58@@UEBACAEBVFormat@1@@Z @777
    ??9TimeArrayTimeZoneRule@icu_58@@UEBACAEBVTimeZoneRule@1@@Z @778
    ??9TimeUnitAmount@icu_58@@QEBACAEBVUObject@1@@Z @779
    ??9TimeUnitFormat@icu_58@@QEBACAEBVFormat@1@@Z @780
    ??9TimeZone@icu_58@@QEBACAEBV01@@Z @781
    ??9TimeZoneGenericNames@icu_58@@UEBACAEBV01@@Z @782
    ??9TimeZoneNames@icu_58@@QEBACAEBV01@@Z @783
    ??9TimeZoneRule@icu_58@@UEBACAEBV01@@Z @784
    ??9TimeZoneTransition@icu_58@@QEBACAEBV01@@Z @785
    ??9VTimeZone@icu_58@@UEBACAEBVTimeZone@1@@Z @786
    ??A?$MaybeStackHeaderAndArray@UdecNumber@@D$0CI@@icu_58@@QEAAAEAD_J@Z @787
    ??AFormattable@icu_58@@QEAAAEAV01@H@Z @788
    ??B?$MaybeStackHeaderAndArray@UdecNumber@@D$0CI@@icu_58@@QEBAPEAUdecNumber@@XZ @789
    ??CSharedBreakIterator@icu_58@@QEBAPEAVBreakIterator@1@XZ @790
    ??CSharedCalendar@icu_58@@QEBAPEBVCalendar@1@XZ @791
    ??CSharedNumberFormat@icu_58@@QEBAPEBVNumberFormat@1@XZ @792
    ??CSharedPluralRules@icu_58@@QEBAPEBVPluralRules@1@XZ @793
    ??DSharedBreakIterator@icu_58@@QEBAAEAVBreakIterator@1@XZ @794
    ??DSharedCalendar@icu_58@@QEBAAEBVCalendar@1@XZ @795
    ??DSharedNumberFormat@icu_58@@QEBAAEBVNumberFormat@1@XZ @796
    ??DSharedPluralRules@icu_58@@QEBAAEBVPluralRules@1@XZ @797
    ??_7?$CacheKey@VDateFmtBestPattern@icu_58@@@icu_58@@6B@ @798
    ??_7?$LocaleCacheKey@VDateFmtBestPattern@icu_58@@@icu_58@@6B@ @799
    ??_7AlphabeticIndex@icu_58@@6B@ @800
    ??_7AnnualTimeZoneRule@icu_58@@6B@ @801
    ??_7BasicTimeZone@icu_58@@6B@ @802
    ??_7Bucket@AlphabeticIndex@icu_58@@6B@ @803
    ??_7CECalendar@icu_58@@6B@ @804
    ??_7Calendar@icu_58@@6B@ @805
    ??_7ChineseCalendar@icu_58@@6B@ @806
    ??_7ChoiceFormat@icu_58@@6B@ @807
    ??_7CollationBuilder@icu_58@@6B@ @808
    ??_7CollationDataBuilder@icu_58@@6B@ @809
    ??_7CollationElementIterator@icu_58@@6B@ @810
    ??_7CollationFastLatinBuilder@icu_58@@6B@ @811
    ??_7CollationIterator@icu_58@@6B@ @812
    ??_7CollationKey@icu_58@@6B@ @813
    ??_7CollationSettings@icu_58@@6B@ @814
    ??_7CollationTailoring@icu_58@@6B@ @815
    ??_7Collator@icu_58@@6B@ @816
    ??_7CollatorFactory@icu_58@@6B@ @817
    ??_7CompactDecimalFormat@icu_58@@6B@ @818
    ??_7CompoundTransliterator@icu_58@@6B@ @819
    ??_7CurrencyAmount@icu_58@@6B@ @820
    ??_7CurrencyPluralInfo@icu_58@@6B@ @821
    ??_7CurrencyUnit@icu_58@@6B@ @822
    ??_7DateFmtBestPattern@icu_58@@6B@ @823
    ??_7DateFmtBestPatternKey@icu_58@@6B@ @824
    ??_7DateFormat@icu_58@@6B@ @825
    ??_7DateFormatSymbols@icu_58@@6B@ @826
    ??_7DateIntervalFormat@icu_58@@6B@ @827
    ??_7DateIntervalInfo@icu_58@@6B@ @828
    ??_7DateTimePatternGenerator@icu_58@@6B@ @829
    ??_7DateTimeRule@icu_58@@6B@ @830
    ??_7DecimalFormat@icu_58@@6B@ @831
    ??_7DecimalFormatSymbols@icu_58@@6B@ @832
    ??_7DummyFormat@MessageFormat@icu_58@@6B@ @833
    ??_7FCDUIterCollationIterator@icu_58@@6B@ @834
    ??_7FCDUTF16CollationIterator@icu_58@@6B@ @835
    ??_7FCDUTF8CollationIterator@icu_58@@6B@ @836
    ??_7FieldPosition@icu_58@@6B@ @837
    ??_7FieldPositionHandler@icu_58@@6B@ @838
    ??_7FieldPositionIterator@icu_58@@6B@ @839
    ??_7Format@icu_58@@6B@ @840
    ??_7Formattable@icu_58@@6B@ @841
    ??_7GenderInfo@icu_58@@6B@ @842
    ??_7GregorianCalendar@icu_58@@6B@ @843
    ??_7HebrewCalendar@icu_58@@6B@ @844
    ??_7ImmutableIndex@AlphabeticIndex@icu_58@@6B@ @845
    ??_7Importer@CollationRuleParser@icu_58@@6B@ @846
    ??_7InitialTimeZoneRule@icu_58@@6B@ @847
    ??_7IslamicCalendar@icu_58@@6B@ @848
    ??_7MarkupStyle@ScientificNumberFormatter@icu_58@@6B@ @849
    ??_7MatchInfoCollection@TimeZoneNames@icu_58@@6B@ @850
    ??_7Measure@icu_58@@6B@ @851
    ??_7MeasureFormat@icu_58@@6B@ @852
    ??_7MeasureUnit@icu_58@@6B@ @853
    ??_7MessageFormat@icu_58@@6B@ @854
    ??_7NumberFormat@icu_58@@6B@ @855
    ??_7NumberFormatFactory@icu_58@@6B@ @856
    ??_7NumberingSystem@icu_58@@6B@ @857
    ??_7OlsonTimeZone@icu_58@@6B@ @858
    ??_7PluralAvailableLocalesEnumeration@icu_58@@6B@ @859
    ??_7PluralFormat@icu_58@@6B@ @860
    ??_7PluralRules@icu_58@@6B@ @861
    ??_7PluralSelector@PluralFormat@icu_58@@6B@ @862
    ??_7PluralSelectorAdapter@PluralFormat@icu_58@@6B@ @863
    ??_7PluralSelectorProvider@MessageFormat@icu_58@@6B@ @864
    ??_7RegexCompile@icu_58@@6B@ @865
    ??_7RegexMatcher@icu_58@@6B@ @866
    ??_7RegexPattern@icu_58@@6B@ @867
    ??_7Region@icu_58@@6B@ @868
    ??_7RelativeDateTimeFormatter@icu_58@@6B@ @869
    ??_7RuleBasedCollator@icu_58@@6B@ @870
    ??_7RuleBasedNumberFormat@icu_58@@6B@ @871
    ??_7RuleBasedTimeZone@icu_58@@6B@ @872
    ??_7ScientificNumberFormatter@icu_58@@6B@ @873
    ??_7SearchIterator@icu_58@@6B@ @874
    ??_7SelectFormat@icu_58@@6B@ @875
    ??_7SharedBreakIterator@icu_58@@6B@ @876
    ??_7SharedCalendar@icu_58@@6B@ @877
    ??_7SharedDateFormatSymbols@icu_58@@6B@ @878
    ??_7SharedNumberFormat@icu_58@@6B@ @879
    ??_7SharedPluralRules@icu_58@@6B@ @880
    ??_7SimpleDateFormat@icu_58@@6B@ @881
    ??_7SimpleNumberFormatFactory@icu_58@@6B@ @882
    ??_7SimpleTimeZone@icu_58@@6B@ @883
    ??_7Sink@CollationRuleParser@icu_58@@6B@ @884
    ??_7StringSearch@icu_58@@6B@ @885
    ??_7Style@ScientificNumberFormatter@icu_58@@6B@ @886
    ??_7SuperscriptStyle@ScientificNumberFormatter@icu_58@@6B@ @887
    ??_7TextTrieMap@icu_58@@6B@ @888
    ??_7TimeArrayTimeZoneRule@icu_58@@6B@ @889
    ??_7TimeUnit@icu_58@@6B@ @890
    ??_7TimeUnitAmount@icu_58@@6B@ @891
    ??_7TimeUnitFormat@icu_58@@6B@ @892
    ??_7TimeZone@icu_58@@6B@ @893
    ??_7TimeZoneFormat@icu_58@@6B@ @894
    ??_7TimeZoneGenericNames@icu_58@@6B@ @895
    ??_7TimeZoneNames@icu_58@@6B@ @896
    ??_7TimeZoneRule@icu_58@@6B@ @897
    ??_7TimeZoneTransition@icu_58@@6B@ @898
    ??_7Transliterator@icu_58@@6B@ @899
    ??_7UIterCollationIterator@icu_58@@6B@ @900
    ??_7UTF16CollationIterator@icu_58@@6B@ @901
    ??_7UTF8CollationIterator@icu_58@@6B@ @902
    ??_7UnicodeReplacer@icu_58@@6B@ @903
    ??_7VTimeZone@icu_58@@6B@ @904
    ??_7ValueFormatter@icu_58@@6B@ @905
    ??_FEcliptic@CalendarAstronomer@icu_58@@QEAAXXZ @906
    ??_FEquatorial@CalendarAstronomer@icu_58@@QEAAXXZ @907
    ??_FHorizon@CalendarAstronomer@icu_58@@QEAAXXZ @908
    ?ALTERNATE_MASK@CollationSettings@icu_58@@2HB @909
    ?ALTERNATE_TIME_SEPARATOR@DateFormatSymbols@icu_58@@2_WB @910
    ?BACKWARD_SECONDARY@CollationSettings@icu_58@@2HB @911
    ?BAIL_OUT@CollationFastLatin@icu_58@@2IB @912
    ?BAIL_OUT_RESULT@CollationFastLatin@icu_58@@2HB @913
    ?BEFORE_WEIGHT16@Collation@icu_58@@2IB @914
    ?CASE_AND_QUATERNARY_MASK@Collation@icu_58@@2IB @915
    ?CASE_AND_TERTIARY_MASK@Collation@icu_58@@2IB @916
    ?CASE_AND_TERTIARY_MASK@CollationFastLatin@icu_58@@2IB @917
    ?CASE_FIRST@CollationSettings@icu_58@@2HB @918
    ?CASE_FIRST_AND_UPPER_MASK@CollationSettings@icu_58@@2HB @919
    ?CASE_LEVEL@CollationSettings@icu_58@@2HB @920
    ?CASE_LEVEL_FLAG@Collation@icu_58@@2IB @921
    ?CASE_LOWER_FIRST_COMMON_HIGH@CollationKeys@icu_58@@0IB @922
    ?CASE_LOWER_FIRST_COMMON_LOW@CollationKeys@icu_58@@0IB @923
    ?CASE_LOWER_FIRST_COMMON_MAX_COUNT@CollationKeys@icu_58@@0HB @924
    ?CASE_LOWER_FIRST_COMMON_MIDDLE@CollationKeys@icu_58@@0IB @925
    ?CASE_MASK@Collation@icu_58@@2IB @926
    ?CASE_MASK@CollationFastLatin@icu_58@@2IB @927
    ?CASE_UPPER_FIRST_COMMON_HIGH@CollationKeys@icu_58@@0IB @928
    ?CASE_UPPER_FIRST_COMMON_LOW@CollationKeys@icu_58@@0IB @929
    ?CASE_UPPER_FIRST_COMMON_MAX_COUNT@CollationKeys@icu_58@@0HB @930
    ?CHECK_FCD@CollationSettings@icu_58@@2HB @931
    ?CHINESE_DATE_PRECEDENCE@ChineseCalendar@icu_58@@0QAY1M@7$$CBHA @932
    ?COMMON_BYTE@Collation@icu_58@@2EB @933
    ?COMMON_SEC@CollationFastLatin@icu_58@@2IB @934
    ?COMMON_SECONDARY_CE@Collation@icu_58@@2IB @935
    ?COMMON_SEC_AND_TER_CE@Collation@icu_58@@2IB @936
    ?COMMON_SEC_PLUS_OFFSET@CollationFastLatin@icu_58@@2IB @937
    ?COMMON_TER@CollationFastLatin@icu_58@@2IB @938
    ?COMMON_TERTIARY_CE@Collation@icu_58@@2IB @939
    ?COMMON_TER_PLUS_OFFSET@CollationFastLatin@icu_58@@2IB @940
    ?COMMON_WEIGHT16@Collation@icu_58@@2IB @941
    ?CONTRACTION@CollationFastLatin@icu_58@@2IB @942
    ?CONTRACTION_FLAG@CollationFastLatinBuilder@icu_58@@0IB @943
    ?CONTRACT_NEXT_CCC@Collation@icu_58@@2IB @944
    ?CONTRACT_SINGLE_CP_NO_MATCH@Collation@icu_58@@2IB @945
    ?CONTRACT_TRAILING_CCC@Collation@icu_58@@2IB @946
    ?CONTR_CHAR_MASK@CollationFastLatin@icu_58@@2IB @947
    ?CONTR_LENGTH_SHIFT@CollationFastLatin@icu_58@@2IB @948
    ?DEFAULT_TIME_SEPARATOR@DateFormatSymbols@icu_58@@2_WB @949
    ?EOS@CollationFastLatin@icu_58@@2IB @950
    ?EXPANSION@CollationFastLatin@icu_58@@2IB @951
    ?FALLBACK_CE32@Collation@icu_58@@2IB @952
    ?FFFD_CE32@Collation@icu_58@@2IB @953
    ?FFFD_PRIMARY@Collation@icu_58@@2IB @954
    ?FIRST_TRAILING_PRIMARY@Collation@icu_58@@2IB @955
    ?FIRST_UNASSIGNED_PRIMARY@Collation@icu_58@@2IB @956
    ?FULL_MOON@CalendarAstronomer@icu_58@@SA?BVMoonAge@12@XZ @957
    ?HANGUL_NO_SPECIAL_JAMO@Collation@icu_58@@2IB @958
    ?HAS_BEFORE2@CollationBuilder@icu_58@@0HB @959
    ?HAS_BEFORE3@CollationBuilder@icu_58@@0HB @960
    ?IDENTICAL_LEVEL_FLAG@Collation@icu_58@@2IB @961
    ?INDEX_MASK@CollationFastLatin@icu_58@@2IB @962
    ?IS_BUILDER_JAMO_CE32@CollationDataBuilder@icu_58@@1IB @963
    ?IS_TAILORED@CollationBuilder@icu_58@@0HB @964
    ?IncrementTime@RegexMatcher@icu_58@@AEAAXAEAW4UErrorCode@@@Z @965
    ?JAMO_CE32S_LENGTH@CollationData@icu_58@@2HB @966
    ?LATIN_LIMIT@CollationFastLatin@icu_58@@2HB @967
    ?LATIN_MAX@CollationFastLatin@icu_58@@2HB @968
    ?LATIN_MAX_UTF8_LEAD@CollationFastLatin@icu_58@@2HB @969
    ?LEAD_ALL_FALLBACK@Collation@icu_58@@2IB @970
    ?LEAD_ALL_UNASSIGNED@Collation@icu_58@@2IB @971
    ?LEAD_MIXED@Collation@icu_58@@2IB @972
    ?LEAD_TYPE_MASK@Collation@icu_58@@2IB @973
    ?LEVEL_SEPARATOR_BYTE@Collation@icu_58@@2EB @974
    ?LONG_INC@CollationFastLatin@icu_58@@2IB @975
    ?LONG_PRIMARY_CE32_LOW_BYTE@Collation@icu_58@@2EB @976
    ?LONG_PRIMARY_MASK@CollationFastLatin@icu_58@@2IB @977
    ?LOWER_CASE@CollationFastLatin@icu_58@@2IB @978
    ?MAX_EXPANSION_LENGTH@Collation@icu_58@@2HB @979
    ?MAX_INDEX@Collation@icu_58@@2HB @980
    ?MAX_INDEX@CollationBuilder@icu_58@@0HB @981
    ?MAX_LONG@CollationFastLatin@icu_58@@2IB @982
    ?MAX_PRIMARY@Collation@icu_58@@2IB @983
    ?MAX_REGULAR_CE32@Collation@icu_58@@2IB @984
    ?MAX_SEC_AFTER@CollationFastLatin@icu_58@@2IB @985
    ?MAX_SEC_BEFORE@CollationFastLatin@icu_58@@2IB @986
    ?MAX_SEC_HIGH@CollationFastLatin@icu_58@@2IB @987
    ?MAX_SHORT@CollationFastLatin@icu_58@@2IB @988
    ?MAX_TER_AFTER@CollationFastLatin@icu_58@@2IB @989
    ?MAX_VARIABLE_MASK@CollationSettings@icu_58@@2HB @990
    ?MAX_VARIABLE_SHIFT@CollationSettings@icu_58@@2HB @991
    ?MAX_YEAR@AnnualTimeZoneRule@icu_58@@2HB @992
    ?MERGE_SEPARATOR_BYTE@Collation@icu_58@@2EB @993
    ?MERGE_SEPARATOR_CE32@Collation@icu_58@@2IB @994
    ?MERGE_SEPARATOR_PRIMARY@Collation@icu_58@@2IB @995
    ?MERGE_WEIGHT@CollationFastLatin@icu_58@@2IB @996
    ?MIN_LONG@CollationFastLatin@icu_58@@2IB @997
    ?MIN_SEC_AFTER@CollationFastLatin@icu_58@@2IB @998
    ?MIN_SEC_BEFORE@CollationFastLatin@icu_58@@2IB @999
    ?MIN_SEC_HIGH@CollationFastLatin@icu_58@@2IB @1000
    ?MIN_SHORT@CollationFastLatin@icu_58@@2IB @1001
    ?MatchAt@RegexMatcher@icu_58@@AEAAX_JCAEAW4UErrorCode@@@Z @1002
    ?MatchChunkAt@RegexMatcher@icu_58@@AEAAXHCAEAW4UErrorCode@@@Z @1003
    ?NEW_MOON@CalendarAstronomer@icu_58@@SA?BVMoonAge@12@XZ @1004
    ?NO_CE32@Collation@icu_58@@2IB @1005
    ?NO_CE@Collation@icu_58@@2_JB @1006
    ?NO_CE_PRIMARY@Collation@icu_58@@2IB @1007
    ?NO_CE_WEIGHT16@Collation@icu_58@@2IB @1008
    ?NO_LEVEL_FLAG@Collation@icu_58@@2IB @1009
    ?NUMERIC@CollationSettings@icu_58@@2HB @1010
    ?NUM_FAST_CHARS@CollationFastLatin@icu_58@@2HB @1011
    ?OFFSET_SHIFT@CollationRuleParser@icu_58@@0HB @1012
    ?ONLY_SEC_TER_MASK@Collation@icu_58@@2IB @1013
    ?ONLY_TERTIARY_MASK@Collation@icu_58@@2IB @1014
    ?PASS_STRING@CompoundTransliterator@icu_58@@2QB_WB @1015
    ?PI@CalendarAstronomer@icu_58@@2NB @1016
    ?POS_BASE@CollationRuleParser@icu_58@@2_WB @1017
    ?POS_LEAD@CollationRuleParser@icu_58@@2_WB @1018
    ?PRIMARY_COMPRESSION_HIGH_BYTE@Collation@icu_58@@2EB @1019
    ?PRIMARY_COMPRESSION_LOW_BYTE@Collation@icu_58@@2EB @1020
    ?PRIMARY_LEVEL_FLAG@Collation@icu_58@@2IB @1021
    ?PRIMARY_SENTINEL@CollationRootElements@icu_58@@2IB @1022
    ?PRIMARY_STEP_MASK@CollationRootElements@icu_58@@2EB @1023
    ?PUNCT_LIMIT@CollationFastLatin@icu_58@@2HB @1024
    ?PUNCT_START@CollationFastLatin@icu_58@@2HB @1025
    ?QUATERNARY_LEVEL_FLAG@Collation@icu_58@@2IB @1026
    ?QUATERNARY_MASK@Collation@icu_58@@2IB @1027
    ?QUAT_COMMON_HIGH@CollationKeys@icu_58@@0IB @1028
    ?QUAT_COMMON_LOW@CollationKeys@icu_58@@0IB @1029
    ?QUAT_COMMON_MAX_COUNT@CollationKeys@icu_58@@0HB @1030
    ?QUAT_COMMON_MIDDLE@CollationKeys@icu_58@@0IB @1031
    ?QUAT_SHIFTED_LIMIT_BYTE@CollationKeys@icu_58@@0IB @1032
    ?SECONDARY_AND_CASE_MASK@Collation@icu_58@@2IB @1033
    ?SECONDARY_LEVEL_FLAG@Collation@icu_58@@2IB @1034
    ?SECONDARY_MASK@Collation@icu_58@@2IB @1035
    ?SECONDARY_MASK@CollationFastLatin@icu_58@@2IB @1036
    ?SEC_COMMON_HIGH@CollationKeys@icu_58@@0IB @1037
    ?SEC_COMMON_LOW@CollationKeys@icu_58@@0IB @1038
    ?SEC_COMMON_MAX_COUNT@CollationKeys@icu_58@@0HB @1039
    ?SEC_COMMON_MIDDLE@CollationKeys@icu_58@@0IB @1040
    ?SEC_INC@CollationFastLatin@icu_58@@2IB @1041
    ?SEC_OFFSET@CollationFastLatin@icu_58@@2IB @1042
    ?SEC_TER_DELTA_FLAG@CollationRootElements@icu_58@@2IB @1043
    ?SHIFTED@CollationSettings@icu_58@@2HB @1044
    ?SHORT_INC@CollationFastLatin@icu_58@@2IB @1045
    ?SHORT_PRIMARY_MASK@CollationFastLatin@icu_58@@2IB @1046
    ?SPECIAL_CE32_LOW_BYTE@Collation@icu_58@@2EB @1047
    ?STARRED_FLAG@CollationRuleParser@icu_58@@0HB @1048
    ?STATICMONTHLENGTH@SimpleTimeZone@icu_58@@0QBCB @1049
    ?STRENGTH_MASK@CollationRuleParser@icu_58@@0HB @1050
    ?STRENGTH_MASK@CollationSettings@icu_58@@2HB @1051
    ?STRENGTH_SHIFT@CollationSettings@icu_58@@2HB @1052
    ?SUMMER_SOLSTICE@CalendarAstronomer@icu_58@@SANXZ @1053
    ?SYNODIC_MONTH@CalendarAstronomer@icu_58@@2NB @1054
    ?StateSave@RegexMatcher@icu_58@@AEAAPEAUREStackFrame@2@PEAU32@_JAEAW4UErrorCode@@@Z @1055
    ?TERMINATOR_BYTE@Collation@icu_58@@2EB @1056
    ?TERTIARY_LEVEL_FLAG@Collation@icu_58@@2IB @1057
    ?TERTIARY_MASK@CollationFastLatin@icu_58@@2IB @1058
    ?TER_LOWER_FIRST_COMMON_HIGH@CollationKeys@icu_58@@0IB @1059
    ?TER_LOWER_FIRST_COMMON_LOW@CollationKeys@icu_58@@0IB @1060
    ?TER_LOWER_FIRST_COMMON_MAX_COUNT@CollationKeys@icu_58@@0HB @1061
    ?TER_LOWER_FIRST_COMMON_MIDDLE@CollationKeys@icu_58@@0IB @1062
    ?TER_OFFSET@CollationFastLatin@icu_58@@2IB @1063
    ?TER_ONLY_COMMON_HIGH@CollationKeys@icu_58@@0IB @1064
    ?TER_ONLY_COMMON_LOW@CollationKeys@icu_58@@0IB @1065
    ?TER_ONLY_COMMON_MAX_COUNT@CollationKeys@icu_58@@0HB @1066
    ?TER_ONLY_COMMON_MIDDLE@CollationKeys@icu_58@@0IB @1067
    ?TER_UPPER_FIRST_COMMON_HIGH@CollationKeys@icu_58@@0IB @1068
    ?TER_UPPER_FIRST_COMMON_LOW@CollationKeys@icu_58@@0IB @1069
    ?TER_UPPER_FIRST_COMMON_MAX_COUNT@CollationKeys@icu_58@@0HB @1070
    ?TER_UPPER_FIRST_COMMON_MIDDLE@CollationKeys@icu_58@@0IB @1071
    ?TRAIL_WEIGHT_BYTE@Collation@icu_58@@2EB @1072
    ?TWO_CASES_MASK@CollationFastLatin@icu_58@@2IB @1073
    ?TWO_COMMON_SEC_PLUS_OFFSET@CollationFastLatin@icu_58@@2IB @1074
    ?TWO_COMMON_TER_PLUS_OFFSET@CollationFastLatin@icu_58@@2IB @1075
    ?TWO_LONG_PRIMARIES_MASK@CollationFastLatin@icu_58@@2IB @1076
    ?TWO_LOWER_CASES@CollationFastLatin@icu_58@@2IB @1077
    ?TWO_SECONDARIES_MASK@CollationFastLatin@icu_58@@2IB @1078
    ?TWO_SEC_OFFSETS@CollationFastLatin@icu_58@@2IB @1079
    ?TWO_SHORT_PRIMARIES_MASK@CollationFastLatin@icu_58@@2IB @1080
    ?TWO_TERTIARIES_MASK@CollationFastLatin@icu_58@@2IB @1081
    ?TWO_TER_OFFSETS@CollationFastLatin@icu_58@@2IB @1082
    ?UNASSIGNED_CE32@Collation@icu_58@@2IB @1083
    ?UNASSIGNED_IMPLICIT_BYTE@Collation@icu_58@@2EB @1084
    ?UPPER_FIRST@CollationSettings@icu_58@@2HB @1085
    ?Union@ScriptSet@icu_58@@QEAAAEAV12@AEBV12@@Z @1086
    ?VERSION@CollationFastLatin@icu_58@@2GB @1087
    ?WINTER_SOLSTICE@CalendarAstronomer@icu_58@@SANXZ @1088
    ?ZERO_LEVEL_FLAG@Collation@icu_58@@2IB @1089
    ?_countAvailableSources@Transliterator@icu_58@@KAHXZ @1090
    ?_countAvailableTargets@Transliterator@icu_58@@KAHAEBVUnicodeString@2@@Z @1091
    ?_countAvailableVariants@Transliterator@icu_58@@KAHAEBVUnicodeString@2@0@Z @1092
    ?_format@SimpleDateFormat@icu_58@@AEBAAEAVUnicodeString@2@AEAVCalendar@2@AEAV32@AEAVFieldPositionHandler@2@AEAW4UErrorCode@@@Z @1093
    ?_getAvailableSource@Transliterator@icu_58@@KAAEAVUnicodeString@2@HAEAV32@@Z @1094
    ?_getAvailableTarget@Transliterator@icu_58@@KAAEAVUnicodeString@2@HAEBV32@AEAV32@@Z @1095
    ?_getAvailableVariant@Transliterator@icu_58@@KAAEAVUnicodeString@2@HAEBV32@0AEAV32@@Z @1096
    ?_registerAlias@Transliterator@icu_58@@KAXAEBVUnicodeString@2@0@Z @1097
    ?_registerFactory@Transliterator@icu_58@@KAXAEBVUnicodeString@2@P6APEAV12@0TToken@12@@Z1@Z @1098
    ?_registerInstance@Transliterator@icu_58@@KAXPEAV12@@Z @1099
    ?_registerSpecialInverse@Transliterator@icu_58@@KAXAEBVUnicodeString@2@0C@Z @1100
    ?_round@DecimalFormat@icu_58@@IEBAAEAVDigitList@2@AEBV32@AEAV32@AEACAEAW4UErrorCode@@@Z @1101
    ?_transliterate@Transliterator@icu_58@@AEBAXAEAVReplaceable@2@AEAUUTransPosition@@PEBVUnicodeString@2@AEAW4UErrorCode@@@Z @1102
    ?absoluteDayToDayOfWeek@HebrewCalendar@icu_58@@CAHH@Z @1103
    ?add@?$EnumSet@W4UDateFormatBooleanAttribute@@$0A@$03@icu_58@@QEAAXW4UDateFormatBooleanAttribute@@@Z @1104
    ?add@?$EnumSet@W4UNumberFormatAttribute@@$0BAAA@$0BAAD@@icu_58@@QEAAXW4UNumberFormatAttribute@@@Z @1105
    ?add@AffixPattern@icu_58@@AEAAXW4ETokenType@12@E@Z @1106
    ?add@AffixPattern@icu_58@@QEAAXW4ETokenType@12@@Z @1107
    ?add@Calendar@icu_58@@UEAAXW4EDateFields@12@HAEAW4UErrorCode@@@Z @1108
    ?add@Calendar@icu_58@@UEAAXW4UCalendarDateFields@@HAEAW4UErrorCode@@@Z @1109
    ?add@ChineseCalendar@icu_58@@UEAAXW4EDateFields@Calendar@2@HAEAW4UErrorCode@@@Z @1110
    ?add@ChineseCalendar@icu_58@@UEAAXW4UCalendarDateFields@@HAEAW4UErrorCode@@@Z @1111
    ?add@CollationDataBuilder@icu_58@@QEAAXAEBVUnicodeString@2@0QEB_JHAEAW4UErrorCode@@@Z @1112
    ?add@HebrewCalendar@icu_58@@UEAAXW4EDateFields@Calendar@2@HAEAW4UErrorCode@@@Z @1113
    ?add@HebrewCalendar@icu_58@@UEAAXW4UCalendarDateFields@@HAEAW4UErrorCode@@@Z @1114
    ?addAttribute@FieldPositionHandler@icu_58@@UEAAXHHH@Z @1115
    ?addCE32@CollationDataBuilder@icu_58@@IEAAHIAEAW4UErrorCode@@@Z @1116
    ?addCE32@CollationDataBuilder@icu_58@@QEAAXAEBVUnicodeString@2@0IAEAW4UErrorCode@@@Z @1117
    ?addCE@CollationDataBuilder@icu_58@@IEAAH_JAEAW4UErrorCode@@@Z @1118
    ?addCLDRData@DateTimePatternGenerator@icu_58@@AEAAXAEBVLocale@2@AEAW4UErrorCode@@@Z @1119
    ?addCanonicalItems@DateTimePatternGenerator@icu_58@@AEAAXAEAW4UErrorCode@@@Z @1120
    ?addChildNode@TextTrieMap@icu_58@@AEAAPEAUCharacterNode@2@PEAU32@_WAEAW4UErrorCode@@@Z @1121
    ?addChineseIndexCharacters@AlphabeticIndex@icu_58@@AEAACAEAW4UErrorCode@@@Z @1122
    ?addConditionalCE32@CollationDataBuilder@icu_58@@IEAAHAEBVUnicodeString@2@IAEAW4UErrorCode@@@Z @1123
    ?addContextTrie@CollationDataBuilder@icu_58@@IEAAHIAEAVUCharsTrieBuilder@2@AEAW4UErrorCode@@@Z @1124
    ?addContractionEntry@CollationFastLatinBuilder@icu_58@@AEAAXH_J0AEAW4UErrorCode@@@Z @1125
    ?addCurrency@AffixPattern@icu_58@@QEAAXE@Z @1126
    ?addHighScriptRange@CollationData@icu_58@@AEBAHQEAEHH@Z @1127
    ?addICUPatterns@DateTimePatternGenerator@icu_58@@AEAAXAEBVLocale@2@AEAW4UErrorCode@@@Z @1128
    ?addIfAbsent@QuantityFormatter@icu_58@@QEAACPEBDAEBVUnicodeString@2@AEAW4UErrorCode@@@Z @1129
    ?addIfDifferent@CollationBuilder@icu_58@@AEAAIAEBVUnicodeString@2@0QEB_JHIAEAW4UErrorCode@@@Z @1130
    ?addIndexExemplars@AlphabeticIndex@icu_58@@AEAAXAEBVLocale@2@AEAW4UErrorCode@@@Z @1131
    ?addLabels@AlphabeticIndex@icu_58@@UEAAAEAV12@AEBVLocale@2@AEAW4UErrorCode@@@Z @1132
    ?addLabels@AlphabeticIndex@icu_58@@UEAAAEAV12@AEBVUnicodeSet@2@AEAW4UErrorCode@@@Z @1133
    ?addLiteral@AffixPattern@icu_58@@QEAAXPEB_WHH@Z @1134
    ?addLowScriptRange@CollationData@icu_58@@AEBAHQEAEHH@Z @1135
    ?addMetaZone@MatchInfoCollection@TimeZoneNames@icu_58@@QEAAXW4UTimeZoneNameType@@HAEBVUnicodeString@3@AEAW4UErrorCode@@@Z @1136
    ?addOnlyClosure@CollationBuilder@icu_58@@AEAAIAEBVUnicodeString@2@0QEB_JHIAEAW4UErrorCode@@@Z @1137
    ?addPattern@DateTimePatternGenerator@icu_58@@QEAA?AW4UDateTimePatternConflict@@AEBVUnicodeString@2@CAEAV42@AEAW4UErrorCode@@@Z @1138
    ?addPatternWithSkeleton@DateTimePatternGenerator@icu_58@@AEAA?AW4UDateTimePatternConflict@@AEBVUnicodeString@2@PEBV42@CAEAV42@AEAW4UErrorCode@@@Z @1139
    ?addRecord@AlphabeticIndex@icu_58@@UEAAAEAV12@AEBVUnicodeString@2@PEBXAEAW4UErrorCode@@@Z @1140
    ?addRelation@CollationBuilder@icu_58@@EEAAXHAEBVUnicodeString@2@00AEAPEBDAEAW4UErrorCode@@@Z @1141
    ?addReset@CollationBuilder@icu_58@@EEAAXHAEBVUnicodeString@2@AEAPEBDAEAW4UErrorCode@@@Z @1142
    ?addTailComposites@CollationBuilder@icu_58@@AEAAXAEBVUnicodeString@2@0AEAW4UErrorCode@@@Z @1143
    ?addTransitionRule@RuleBasedTimeZone@icu_58@@QEAAXPEAVTimeZoneRule@2@AEAW4UErrorCode@@@Z @1144
    ?addUniqueCE@CollationFastLatinBuilder@icu_58@@AEAAX_JAEAW4UErrorCode@@@Z @1145
    ?addWithClosure@CollationBuilder@icu_58@@AEAAIAEBVUnicodeString@2@0QEB_JHIAEAW4UErrorCode@@@Z @1146
    ?addZone@MatchInfoCollection@TimeZoneNames@icu_58@@QEAAXW4UTimeZoneNameType@@HAEBVUnicodeString@3@AEAW4UErrorCode@@@Z @1147
    ?adjustFieldTypes@DateTimePatternGenerator@icu_58@@AEAA?AVUnicodeString@2@AEBV32@PEBVPtnSkeleton@2@HW4UDateTimePatternMatchOptions@@@Z @1148
    ?adjustFieldWidth@DateIntervalFormat@icu_58@@CAXAEBVUnicodeString@2@00CAEAV32@@Z @1149
    ?adjustForCapitalizationContext@RuleBasedNumberFormat@icu_58@@AEBAAEAVUnicodeString@2@HAEAV32@@Z @1150
    ?adjustForContext@RelativeDateTimeFormatter@icu_58@@AEBAXAEAVUnicodeString@2@@Z @1151
    ?adjustForMinFractionDigits@FixedDecimal@icu_58@@QEAAXH@Z @1152
    ?adjustPosition@DateIntervalFormat@icu_58@@CAXAEAVUnicodeString@2@0AEAVFieldPosition@2@011@Z @1153
    ?adjustPrecision@CurrencyAffixInfo@icu_58@@SAXPEB_WW4UCurrencyUsage@@AEAVFixedPrecision@2@AEAW4UErrorCode@@@Z @1154
    ?adopt@ZNStringPool@icu_58@@QEAAPEB_WPEB_WAEAW4UErrorCode@@@Z @1155
    ?adoptArray@Formattable@icu_58@@QEAAXPEAV12@H@Z @1156
    ?adoptCalendar@DateFormat@icu_58@@UEAAXPEAVCalendar@2@@Z @1157
    ?adoptCalendar@SimpleDateFormat@icu_58@@UEAAXPEAVCalendar@2@@Z @1158
    ?adoptCurrencyPluralInfo@DecimalFormat@icu_58@@UEAAXPEAVCurrencyPluralInfo@2@@Z @1159
    ?adoptDateFormatSymbols@SimpleDateFormat@icu_58@@UEAAXPEAVDateFormatSymbols@2@@Z @1160
    ?adoptDecimalFormatSymbols@DecimalFormat@icu_58@@UEAAXPEAVDecimalFormatSymbols@2@@Z @1161
    ?adoptDecimalFormatSymbols@RuleBasedNumberFormat@icu_58@@UEAAXPEAVDecimalFormatSymbols@2@@Z @1162
    ?adoptDefault@TimeZone@icu_58@@SAXPEAV12@@Z @1163
    ?adoptDigitList@Formattable@icu_58@@QEAAXPEAVDigitList@2@@Z @1164
    ?adoptFilter@Transliterator@icu_58@@QEAAXPEAVUnicodeFilter@2@@Z @1165
    ?adoptFormat@MessageFormat@icu_58@@UEAAXAEBVUnicodeString@2@PEAVFormat@2@AEAW4UErrorCode@@@Z @1166
    ?adoptFormat@MessageFormat@icu_58@@UEAAXHPEAVFormat@2@@Z @1167
    ?adoptFormats@MessageFormat@icu_58@@UEAAXPEAPEAVFormat@2@H@Z @1168
    ?adoptFrom@TimeZoneTransition@icu_58@@QEAAXPEAVTimeZoneRule@2@@Z @1169
    ?adoptNumberFormat@DateFormat@icu_58@@UEAAXPEAVNumberFormat@2@@Z @1170
    ?adoptNumberFormat@MeasureFormat@icu_58@@IEAAXPEAVNumberFormat@2@AEAW4UErrorCode@@@Z @1171
    ?adoptNumberFormat@SimpleDateFormat@icu_58@@QEAAXAEBVUnicodeString@2@PEAVNumberFormat@2@AEAW4UErrorCode@@@Z @1172
    ?adoptNumberFormat@SimpleDateFormat@icu_58@@UEAAXPEAVNumberFormat@2@@Z @1173
    ?adoptObject@Formattable@icu_58@@QEAAXPEAVUObject@2@@Z @1174
    ?adoptString@Formattable@icu_58@@QEAAXPEAVUnicodeString@2@@Z @1175
    ?adoptTailoring@RuleBasedCollator@icu_58@@AEAAXPEAUCollationTailoring@2@AEAW4UErrorCode@@@Z @1176
    ?adoptTimeZone@Calendar@icu_58@@QEAAXPEAVTimeZone@2@@Z @1177
    ?adoptTimeZone@DateFormat@icu_58@@UEAAXPEAVTimeZone@2@@Z @1178
    ?adoptTimeZone@DateIntervalFormat@icu_58@@UEAAXPEAVTimeZone@2@@Z @1179
    ?adoptTimeZoneFormat@SimpleDateFormat@icu_58@@UEAAXPEAVTimeZoneFormat@2@@Z @1180
    ?adoptTimeZoneNames@TimeZoneFormat@icu_58@@QEAAXPEAVTimeZoneNames@2@@Z @1181
    ?adoptTo@TimeZoneTransition@icu_58@@QEAAXPEAVTimeZoneRule@2@@Z @1182
    ?adoptTransliterators@CompoundTransliterator@icu_58@@QEAAXQEAPEAVTransliterator@2@H@Z @1183
    ?after@Calendar@icu_58@@QEBACAEBV12@AEAW4UErrorCode@@@Z @1184
    ?aggregateStamp@GregorianCalendar@icu_58@@AEAAHHH@Z @1185
    ?aliasInstead@?$MaybeStackHeaderAndArray@UdecNumber@@D$0CI@@icu_58@@QEAAXPEAUdecNumber@@H@Z @1186
    ?aliasReordering@CollationSettings@icu_58@@QEAAXAEBUCollationData@2@PEBHHPEBIHPEBEAEAW4UErrorCode@@@Z @1187
    ?allocWeights@CollationWeights@icu_58@@QEAACIIH@Z @1188
    ?allocWeightsInMinLengthRanges@CollationWeights@icu_58@@AEAACHH@Z @1189
    ?allocWeightsInShortRanges@CollationWeights@icu_58@@AEAACHH@Z @1190
    ?allocateArgTypes@MessageFormat@icu_58@@AEAACHAEAW4UErrorCode@@@Z @1191
    ?allocateData@RegexCompile@icu_58@@AEAAHH@Z @1192
    ?allocateStackData@RegexCompile@icu_58@@AEAAHH@Z @1193
    ?append@AffixPattern@icu_58@@QEAAAEAV12@AEBV12@@Z @1194
    ?append@DigitAffix@icu_58@@QEAAXAEBVUnicodeString@2@H@Z @1195
    ?append@DigitAffix@icu_58@@QEAAXPEB_WHH@Z @1196
    ?append@DigitList@icu_58@@QEAAXD@Z @1197
    ?append@PluralAffix@icu_58@@QEAACAEBV12@HAEAW4UErrorCode@@@Z @1198
    ?append@PluralAffix@icu_58@@QEAAXAEBVUnicodeString@2@H@Z @1199
    ?append@PluralAffix@icu_58@@QEAAXPEB_WHH@Z @1200
    ?appendCEsFromCE32@CollationIterator@icu_58@@IEAAXPEBUCollationData@2@HICAEAW4UErrorCode@@@Z @1201
    ?appendDigitsTo@DigitList@icu_58@@QEBAXAEAVCharString@2@AEAW4UErrorCode@@@Z @1202
    ?appendGroup@RegexMatcher@icu_58@@AEBA_JHPEAUUText@@AEAW4UErrorCode@@@Z @1203
    ?appendNumericCEs@CollationIterator@icu_58@@AEAAXICAEAW4UErrorCode@@@Z @1204
    ?appendNumericSegmentCEs@CollationIterator@icu_58@@AEAAXPEBDHAEAW4UErrorCode@@@Z @1205
    ?appendOffsetDigits@TimeZoneFormat@icu_58@@AEBAXAEAVUnicodeString@2@HE@Z @1206
    ?appendOp@RegexCompile@icu_58@@AEAAXH@Z @1207
    ?appendOp@RegexCompile@icu_58@@AEAAXHH@Z @1208
    ?appendPadding@DigitAffixesAndPadding@icu_58@@AEBAAEAVUnicodeString@2@HAEAV32@@Z @1209
    ?appendReplacement@RegexMatcher@icu_58@@UEAAAEAV12@AEAVUnicodeString@2@AEBV32@AEAW4UErrorCode@@@Z @1210
    ?appendReplacement@RegexMatcher@icu_58@@UEAAAEAV12@PEAUUText@@0AEAW4UErrorCode@@@Z @1211
    ?appendTail@RegexMatcher@icu_58@@UEAAAEAVUnicodeString@2@AEAV32@@Z @1212
    ?appendTail@RegexMatcher@icu_58@@UEAAPEAUUText@@PEAU3@AEAW4UErrorCode@@@Z @1213
    ?appendUChar@DigitAffix@icu_58@@QEAAX_WH@Z @1214
    ?appendUChar@PluralAffix@icu_58@@QEAAX_WH@Z @1215
    ?appendUNTIL@VTimeZone@icu_58@@AEBAXAEAVVTZWriter@2@AEBVUnicodeString@2@AEAW4UErrorCode@@@Z @1216
    ?applyLocalizedPattern@DecimalFormat@icu_58@@UEAAXAEBVUnicodeString@2@AEAUUParseError@@AEAW4UErrorCode@@@Z @1217
    ?applyLocalizedPattern@DecimalFormat@icu_58@@UEAAXAEBVUnicodeString@2@AEAW4UErrorCode@@@Z @1218
    ?applyLocalizedPattern@SimpleDateFormat@icu_58@@UEAAXAEBVUnicodeString@2@AEAW4UErrorCode@@@Z @1219
    ?applyPattern@ChoiceFormat@icu_58@@UEAAXAEBVUnicodeString@2@AEAUUParseError@@AEAW4UErrorCode@@@Z @1220
    ?applyPattern@ChoiceFormat@icu_58@@UEAAXAEBVUnicodeString@2@AEAW4UErrorCode@@@Z @1221
    ?applyPattern@DecimalFormat@icu_58@@UEAAXAEBVUnicodeString@2@AEAUUParseError@@AEAW4UErrorCode@@@Z @1222
    ?applyPattern@DecimalFormat@icu_58@@UEAAXAEBVUnicodeString@2@AEAW4UErrorCode@@@Z @1223
    ?applyPattern@MessageFormat@icu_58@@UEAAXAEBVUnicodeString@2@AEAUUParseError@@AEAW4UErrorCode@@@Z @1224
    ?applyPattern@MessageFormat@icu_58@@UEAAXAEBVUnicodeString@2@AEAW4UErrorCode@@@Z @1225
    ?applyPattern@MessageFormat@icu_58@@UEAAXAEBVUnicodeString@2@W4UMessagePatternApostropheMode@@PEAUUParseError@@AEAW4UErrorCode@@@Z @1226
    ?applyPattern@PluralFormat@icu_58@@QEAAXAEBVUnicodeString@2@AEAW4UErrorCode@@@Z @1227
    ?applyPattern@SelectFormat@icu_58@@QEAAXAEBVUnicodeString@2@AEAW4UErrorCode@@@Z @1228
    ?applyPattern@SimpleDateFormat@icu_58@@UEAAXAEBVUnicodeString@2@@Z @1229
    ?areSignificantDigitsUsed@DecimalFormat@icu_58@@QEBACXZ @1230
    ?argNameMatches@MessageFormat@icu_58@@AEAACHAEBVUnicodeString@2@H@Z @1231
    ?arrayCompare@DateFormatSymbols@icu_58@@CACPEBVUnicodeString@2@0H@Z @1232
    ?assignArray@DateFormatSymbols@icu_58@@CAXAEAPEAVUnicodeString@2@AEAHPEBV32@H@Z @1233
    ?attributeHasBeenSetExplicitly@RuleBasedCollator@icu_58@@AEBACH@Z @1234
    ?autoQuoteApostrophe@MessageFormat@icu_58@@SA?AVUnicodeString@2@AEBV32@AEAW4UErrorCode@@@Z @1235
    ?backwardNumCodePoints@FCDUIterCollationIterator@icu_58@@MEAAXHAEAW4UErrorCode@@@Z @1236
    ?backwardNumCodePoints@FCDUTF16CollationIterator@icu_58@@MEAAXHAEAW4UErrorCode@@@Z @1237
    ?backwardNumCodePoints@FCDUTF8CollationIterator@icu_58@@MEAAXHAEAW4UErrorCode@@@Z @1238
    ?backwardNumCodePoints@UIterCollationIterator@icu_58@@MEAAXHAEAW4UErrorCode@@@Z @1239
    ?backwardNumCodePoints@UTF16CollationIterator@icu_58@@MEAAXHAEAW4UErrorCode@@@Z @1240
    ?backwardNumCodePoints@UTF8CollationIterator@icu_58@@MEAAXHAEAW4UErrorCode@@@Z @1241
    ?backwardNumSkipped@CollationIterator@icu_58@@AEAAXHAEAW4UErrorCode@@@Z @1242
    ?before@Calendar@icu_58@@QEBACAEBV12@AEAW4UErrorCode@@@Z @1243
    ?beginRRULE@VTimeZone@icu_58@@AEBAXAEAVVTZWriter@2@HAEAW4UErrorCode@@@Z @1244
    ?beginZoneProps@VTimeZone@icu_58@@AEBAXAEAVVTZWriter@2@CAEBVUnicodeString@2@HHNAEAW4UErrorCode@@@Z @1245
    ?blockTopLoc@RegexCompile@icu_58@@AEAAHC@Z @1246
    ?boundsCheck@GregorianCalendar@icu_58@@AEBACHW4UCalendarDateFields@@@Z @1247
    ?build@CollationDataBuilder@icu_58@@UEAAXAEAUCollationData@2@AEAW4UErrorCode@@@Z @1248
    ?buildContext@CollationDataBuilder@icu_58@@IEAAIPEAUConditionalCE32@2@AEAW4UErrorCode@@@Z @1249
    ?buildContexts@CollationDataBuilder@icu_58@@IEAAXAEAW4UErrorCode@@@Z @1250
    ?buildFastLatinTable@CollationDataBuilder@icu_58@@IEAAXAEAUCollationData@2@AEAW4UErrorCode@@@Z @1251
    ?buildImmutableIndex@AlphabeticIndex@icu_58@@QEAAPEAVImmutableIndex@12@AEAW4UErrorCode@@@Z @1252
    ?buildMappings@CollationDataBuilder@icu_58@@IEAAXAEAUCollationData@2@AEAW4UErrorCode@@@Z @1253
    ?buildOp@RegexCompile@icu_58@@AEAAHHH@Z @1254
    ?buildTrie@TextTrieMap@icu_58@@AEAAXAEAW4UErrorCode@@@Z @1255
    ?cacheExplicitFormats@MessageFormat@icu_58@@AEAAXAEAW4UErrorCode@@@Z @1256
    ?calendarFieldToIntervalIndex@DateIntervalInfo@icu_58@@CA?AW4IntervalPatternIndex@12@W4UCalendarDateFields@@AEAW4UErrorCode@@@Z @1257
    ?canFormat@SmallIntFormatter@icu_58@@SACHAEBVIntDigitCountRange@2@@Z @1258
    ?ce32HasContext@Collation@icu_58@@SACI@Z @1259
    ?ceFromCE32@Collation@icu_58@@SA_JI@Z @1260
    ?ceFromLongPrimaryCE32@Collation@icu_58@@SA_JI@Z @1261
    ?ceFromLongSecondaryCE32@Collation@icu_58@@SA_JI@Z @1262
    ?ceFromSimpleCE32@Collation@icu_58@@SA_JI@Z @1263
    ?ceStrength@CollationBuilder@icu_58@@CAH_J@Z @1264
    ?ceToJD@CECalendar@icu_58@@KAHHHHH@Z @1265
    ?changeNodeNextIndex@CollationBuilder@icu_58@@CA_J_JH@Z @1266
    ?changeNodePreviousIndex@CollationBuilder@icu_58@@CA_J_JH@Z @1267
    ?checkAbuttingHoursAndMinutes@TimeZoneFormat@icu_58@@AEAAXXZ @1268
    ?checkConsistency@TimeUnitFormat@icu_58@@AEAAXW4UTimeUnitFormatStyle@@PEBDAEAW4UErrorCode@@@Z @1269
    ?checkIntSuffix@SimpleDateFormat@icu_58@@AEBAHAEBVUnicodeString@2@HHC@Z @1270
    ?checkTransitionRules@OlsonTimeZone@icu_58@@AEBAXAEAW4UErrorCode@@@Z @1271
    ?checkTransitionRules@SimpleTimeZone@icu_58@@AEBAXAEAW4UErrorCode@@@Z @1272
    ?civilLeapYear@IslamicCalendar@icu_58@@CACH@Z @1273
    ?cleanupRegionData@Region@icu_58@@SAXXZ @1274
    ?clear@?$EnumSet@W4UDateFormatBooleanAttribute@@$0A@$03@icu_58@@QEAAXXZ @1275
    ?clear@?$EnumSet@W4UNumberFormatAttribute@@$0BAAA@$0BAAD@@icu_58@@QEAAXXZ @1276
    ?clear@?$PluralMap@VDigitAffix@icu_58@@@icu_58@@QEAAXXZ @1277
    ?clear@Calendar@icu_58@@QEAAXW4UCalendarDateFields@@@Z @1278
    ?clear@Calendar@icu_58@@QEAAXXZ @1279
    ?clear@DigitGrouping@icu_58@@QEAAXXZ @1280
    ?clear@DigitInterval@icu_58@@QEAAXXZ @1281
    ?clear@DigitList@icu_58@@QEAAXXZ @1282
    ?clear@SignificantDigitInterval@icu_58@@QEAAXXZ @1283
    ?clear@VisibleDigits@icu_58@@AEAAXXZ @1284
    ?clear@VisibleDigitsWithExponent@icu_58@@QEAAXXZ @1285
    ?clearBuckets@AlphabeticIndex@icu_58@@AEAAXXZ @1286
    ?clearCEs@CollationIterator@icu_58@@QEAAXXZ @1287
    ?clearCEsIfNoneRemaining@CollationIterator@icu_58@@QEAAXXZ @1288
    ?clearCache@CalendarAstronomer@icu_58@@AEAAXXZ @1289
    ?clearContexts@CollationDataBuilder@icu_58@@IEAAXXZ @1290
    ?clearRecords@AlphabeticIndex@icu_58@@UEAAAEAV12@AEAW4UErrorCode@@@Z @1291
    ?clearTransitionRules@OlsonTimeZone@icu_58@@AEAAXXZ @1292
    ?clearTransitionRules@SimpleTimeZone@icu_58@@AEAAXXZ @1293
    ?clone@?$LocaleCacheKey@VDateFmtBestPattern@icu_58@@@icu_58@@UEBAPEAVCacheKeyBase@2@XZ @1294
    ?clone@AnnualTimeZoneRule@icu_58@@UEBAPEAV12@XZ @1295
    ?clone@ChineseCalendar@icu_58@@UEBAPEAVCalendar@2@XZ @1296
    ?clone@ChoiceFormat@icu_58@@UEBAPEAVFormat@2@XZ @1297
    ?clone@CompactDecimalFormat@icu_58@@UEBAPEAVFormat@2@XZ @1298
    ?clone@CompoundTransliterator@icu_58@@UEBAPEAVTransliterator@2@XZ @1299
    ?clone@CurrencyAmount@icu_58@@UEBAPEAVUObject@2@XZ @1300
    ?clone@CurrencyPluralInfo@icu_58@@QEBAPEAV12@XZ @1301
    ?clone@CurrencyUnit@icu_58@@UEBAPEAVUObject@2@XZ @1302
    ?clone@DateFmtBestPatternKey@icu_58@@UEBAPEAVCacheKeyBase@2@XZ @1303
    ?clone@DateIntervalFormat@icu_58@@UEBAPEAVFormat@2@XZ @1304
    ?clone@DateIntervalInfo@icu_58@@UEBAPEAV12@XZ @1305
    ?clone@DateTimePatternGenerator@icu_58@@QEBAPEAV12@XZ @1306
    ?clone@DateTimeRule@icu_58@@QEBAPEAV12@XZ @1307
    ?clone@DecimalFormat@icu_58@@UEBAPEAVFormat@2@XZ @1308
    ?clone@DummyFormat@MessageFormat@icu_58@@UEBAPEAVFormat@3@XZ @1309
    ?clone@FieldPosition@icu_58@@QEBAPEAV12@XZ @1310
    ?clone@Formattable@icu_58@@QEBAPEAV12@XZ @1311
    ?clone@GregorianCalendar@icu_58@@UEBAPEAVCalendar@2@XZ @1312
    ?clone@HebrewCalendar@icu_58@@UEBAPEAVCalendar@2@XZ @1313
    ?clone@InitialTimeZoneRule@icu_58@@UEBAPEAV12@XZ @1314
    ?clone@IslamicCalendar@icu_58@@UEBAPEAVCalendar@2@XZ @1315
    ?clone@MarkupStyle@ScientificNumberFormatter@icu_58@@UEBAPEAVStyle@23@XZ @1316
    ?clone@Measure@icu_58@@UEBAPEAVUObject@2@XZ @1317
    ?clone@MeasureFormat@icu_58@@UEBAPEAVFormat@2@XZ @1318
    ?clone@MeasureUnit@icu_58@@UEBAPEAVUObject@2@XZ @1319
    ?clone@MessageFormat@icu_58@@UEBAPEAVFormat@2@XZ @1320
    ?clone@OlsonTimeZone@icu_58@@UEBAPEAVTimeZone@2@XZ @1321
    ?clone@PluralFormat@icu_58@@UEBAPEAVFormat@2@XZ @1322
    ?clone@PluralRules@icu_58@@QEBAPEAV12@XZ @1323
    ?clone@RegexPattern@icu_58@@UEBAPEAV12@XZ @1324
    ?clone@RuleBasedCollator@icu_58@@UEBAPEAVCollator@2@XZ @1325
    ?clone@RuleBasedNumberFormat@icu_58@@UEBAPEAVFormat@2@XZ @1326
    ?clone@RuleBasedTimeZone@icu_58@@UEBAPEAVTimeZone@2@XZ @1327
    ?clone@ScientificNumberFormatter@icu_58@@QEBAPEAV12@XZ @1328
    ?clone@SelectFormat@icu_58@@UEBAPEAVFormat@2@XZ @1329
    ?clone@SimpleDateFormat@icu_58@@UEBAPEAVFormat@2@XZ @1330
    ?clone@SimpleTimeZone@icu_58@@UEBAPEAVTimeZone@2@XZ @1331
    ?clone@StringSearch@icu_58@@QEBAPEAV12@XZ @1332
    ?clone@SuperscriptStyle@ScientificNumberFormatter@icu_58@@UEBAPEAVStyle@23@XZ @1333
    ?clone@TimeArrayTimeZoneRule@icu_58@@UEBAPEAV12@XZ @1334
    ?clone@TimeUnit@icu_58@@UEBAPEAVUObject@2@XZ @1335
    ?clone@TimeUnitAmount@icu_58@@UEBAPEAVUObject@2@XZ @1336
    ?clone@TimeUnitFormat@icu_58@@UEBAPEAVFormat@2@XZ @1337
    ?clone@TimeZoneFormat@icu_58@@UEBAPEAVFormat@2@XZ @1338
    ?clone@TimeZoneGenericNames@icu_58@@UEBAPEAV12@XZ @1339
    ?clone@TimeZoneTransition@icu_58@@QEBAPEAV12@XZ @1340
    ?clone@Transliterator@icu_58@@UEBAPEAV12@XZ @1341
    ?clone@VTimeZone@icu_58@@UEBAPEAVTimeZone@2@XZ @1342
    ?cloneBinary@RuleBasedCollator@icu_58@@QEBAHPEAEHAEAW4UErrorCode@@@Z @1343
    ?cloneRuleData@RuleBasedCollator@icu_58@@QEBAPEAEAEAHAEAW4UErrorCode@@@Z @1344
    ?closeOverComposites@CollationBuilder@icu_58@@AEAAXAEAW4UErrorCode@@@Z @1345
    ?combineDateAndTime@RelativeDateTimeFormatter@icu_58@@QEBAAEAVUnicodeString@2@AEBV32@0AEAV32@AEAW4UErrorCode@@@Z @1346
    ?compare@Collator@icu_58@@UEBA?AW4EComparisonResult@12@AEBVUnicodeString@2@0@Z @1347
    ?compare@Collator@icu_58@@UEBA?AW4EComparisonResult@12@AEBVUnicodeString@2@0H@Z @1348
    ?compare@Collator@icu_58@@UEBA?AW4EComparisonResult@12@PEB_WH0H@Z @1349
    ?compare@Collator@icu_58@@UEBA?AW4UCollationResult@@AEAUUCharIterator@@0AEAW4UErrorCode@@@Z @1350
    ?compare@DigitList@icu_58@@QEAAHAEBV12@@Z @1351
    ?compare@RuleBasedCollator@icu_58@@UEBA?AW4UCollationResult@@AEAUUCharIterator@@0AEAW4UErrorCode@@@Z @1352
    ?compare@RuleBasedCollator@icu_58@@UEBA?AW4UCollationResult@@AEBVUnicodeString@2@0AEAW4UErrorCode@@@Z @1353
    ?compare@RuleBasedCollator@icu_58@@UEBA?AW4UCollationResult@@AEBVUnicodeString@2@0HAEAW4UErrorCode@@@Z @1354
    ?compare@RuleBasedCollator@icu_58@@UEBA?AW4UCollationResult@@PEB_WH0HAEAW4UErrorCode@@@Z @1355
    ?compareAffix@DecimalFormat@icu_58@@AEBAHAEBVUnicodeString@2@HCCPEBV32@CCPEA_W@Z @1356
    ?compareComplexAffix@DecimalFormat@icu_58@@AEBAHAEBVUnicodeString@2@0HCPEA_W@Z @1357
    ?compareSimpleAffix@DecimalFormat@icu_58@@AEBAHAEBVUnicodeString@2@0HC@Z @1358
    ?compareSimpleAffix@SimpleDateFormat@icu_58@@AEBAHAEBVUnicodeString@2@0H@Z @1359
    ?compareTo@CollationKey@icu_58@@QEBA?AW4EComparisonResult@Collator@2@AEBV12@@Z @1360
    ?compareTo@CollationKey@icu_58@@QEBA?AW4UCollationResult@@AEBV12@AEAW4UErrorCode@@@Z @1361
    ?compareToRule@SimpleTimeZone@icu_58@@CAHCCCCCHHW4EMode@12@CCCH@Z @1362
    ?compareUTF16@CollationFastLatin@icu_58@@SAHPEBG0HPEB_WH1H@Z @1363
    ?compareUTF8@CollationFastLatin@icu_58@@SAHPEBG0HPEBEH1H@Z @1364
    ?compareUTF8@Collator@icu_58@@UEBA?AW4UCollationResult@@AEBVStringPiece@2@0AEAW4UErrorCode@@@Z @1365
    ?compareUTF8@RuleBasedCollator@icu_58@@UEBA?AW4UCollationResult@@AEBVStringPiece@2@0AEAW4UErrorCode@@@Z @1366
    ?compareUpToQuaternary@CollationCompare@icu_58@@SA?AW4UCollationResult@@AEAVCollationIterator@2@0AEBUCollationSettings@2@AEAW4UErrorCode@@@Z @1367
    ?compile@RegexCompile@icu_58@@QEAAXAEBVUnicodeString@2@AEAUUParseError@@AEAW4UErrorCode@@@Z @1368
    ?compile@RegexCompile@icu_58@@QEAAXPEAUUText@@AEAUUParseError@@AEAW4UErrorCode@@@Z @1369
    ?compile@RegexPattern@icu_58@@SAPEAV12@AEBVUnicodeString@2@AEAUUParseError@@AEAW4UErrorCode@@@Z @1370
    ?compile@RegexPattern@icu_58@@SAPEAV12@AEBVUnicodeString@2@IAEAUUParseError@@AEAW4UErrorCode@@@Z @1371
    ?compile@RegexPattern@icu_58@@SAPEAV12@AEBVUnicodeString@2@IAEAW4UErrorCode@@@Z @1372
    ?compile@RegexPattern@icu_58@@SAPEAV12@PEAUUText@@AEAUUParseError@@AEAW4UErrorCode@@@Z @1373
    ?compile@RegexPattern@icu_58@@SAPEAV12@PEAUUText@@IAEAUUParseError@@AEAW4UErrorCode@@@Z @1374
    ?compile@RegexPattern@icu_58@@SAPEAV12@PEAUUText@@IAEAW4UErrorCode@@@Z @1375
    ?compileInlineInterval@RegexCompile@icu_58@@AEAACXZ @1376
    ?compileInterval@RegexCompile@icu_58@@AEAAXHH@Z @1377
    ?compileSet@RegexCompile@icu_58@@AEAAXPEAVUnicodeSet@2@@Z @1378
    ?complete@Calendar@icu_58@@IEAAXAEAW4UErrorCode@@@Z @1379
    ?complete@RuleBasedTimeZone@icu_58@@QEAAXAEAW4UErrorCode@@@Z @1380
    ?completeConst@RuleBasedTimeZone@icu_58@@AEBAXAEAW4UErrorCode@@@Z @1381
    ?computeAbsDoubleValue@VisibleDigits@icu_58@@AEBANXZ @1382
    ?computeChineseFields@ChineseCalendar@icu_58@@EEAAXHHHC@Z @1383
    ?computeFields@Calendar@icu_58@@MEAAXAEAW4UErrorCode@@@Z @1384
    ?computeGregorianAndDOWFields@Calendar@icu_58@@AEAAXHAEAW4UErrorCode@@@Z @1385
    ?computeGregorianFields@Calendar@icu_58@@IEAAXHAEAW4UErrorCode@@@Z @1386
    ?computeJulianDay@Calendar@icu_58@@IEAAHXZ @1387
    ?computeJulianDayOfYear@GregorianCalendar@icu_58@@CANCHAEAC@Z @1388
    ?computeMaxExpansions@CollationElementIterator@icu_58@@CAPEAUUHashtable@@PEBUCollationData@2@AEAW4UErrorCode@@@Z @1389
    ?computeMaxExpansions@RuleBasedCollator@icu_58@@CAXPEBUCollationTailoring@2@AEAW4UErrorCode@@@Z @1390
    ?computeMaximumContextLength@CompoundTransliterator@icu_58@@AEAAXXZ @1391
    ?computeMillisInDay@Calendar@icu_58@@IEAAHXZ @1392
    ?computeTime@Calendar@icu_58@@MEAAXAEAW4UErrorCode@@@Z @1393
    ?computeWeekFields@Calendar@icu_58@@AEAAXAEAW4UErrorCode@@@Z @1394
    ?computeZoneOffset@Calendar@icu_58@@IEAAHNHAEAW4UErrorCode@@@Z @1395
    ?concatSingleDate2TimeInterval@DateIntervalFormat@icu_58@@AEAAXAEAVUnicodeString@2@AEBV32@W4UCalendarDateFields@@AEAW4UErrorCode@@@Z @1396
    ?construct@DecimalFormat@icu_58@@AEAAXAEAW4UErrorCode@@AEAUUParseError@@PEBVUnicodeString@2@PEAVDecimalFormatSymbols@2@@Z @1397
    ?construct@SimpleDateFormat@icu_58@@AEAAXW4EStyle@DateFormat@2@0AEBVLocale@2@AEAW4UErrorCode@@@Z @1398
    ?construct@SimpleTimeZone@icu_58@@AEAAXHCCCHW4TimeMode@12@CCCH0HAEAW4UErrorCode@@@Z @1399
    ?constructEmpty@OlsonTimeZone@icu_58@@AEAAXXZ @1400
    ?consumeShortTimePattern@DateTimePatternGenerator@icu_58@@AEAAXAEBVUnicodeString@2@AEAW4UErrorCode@@@Z @1401
    ?contains@?$EnumSet@W4UDateFormatBooleanAttribute@@$0A@$03@icu_58@@QEBAHW4UDateFormatBooleanAttribute@@@Z @1402
    ?contains@?$EnumSet@W4UNumberFormatAttribute@@$0BAAA@$0BAAD@@icu_58@@QEBAHW4UNumberFormatAttribute@@@Z @1403
    ?contains@DigitInterval@icu_58@@QEBACH@Z @1404
    ?contains@Region@icu_58@@QEBACAEBV12@@Z @1405
    ?contains@ScriptSet@icu_58@@QEBACAEBV12@@Z @1406
    ?copyContractionsFromBaseCE32@CollationDataBuilder@icu_58@@IEAAHAEAVUnicodeString@2@HIPEAUConditionalCE32@2@AEAW4UErrorCode@@@Z @1407
    ?copyData@CollationDataWriter@icu_58@@CAXQEBHHPEBXPEAE@Z @1408
    ?copyData@DateFormatSymbols@icu_58@@AEAAXAEBV12@@Z @1409
    ?copyFrom@CollationDataBuilder@icu_58@@QEAAXAEBV12@AEBVCEModifier@12@AEAW4UErrorCode@@@Z @1410
    ?copyFromBaseCE32@CollationDataBuilder@icu_58@@IEAAIHICAEAW4UErrorCode@@@Z @1411
    ?copyHash@CurrencyPluralInfo@icu_58@@AEAAXPEBVHashtable@2@PEAV32@AEAW4UErrorCode@@@Z @1412
    ?copyHash@DateIntervalInfo@icu_58@@AEAAXPEBVHashtable@2@PEAV32@AEAW4UErrorCode@@@Z @1413
    ?copyHash@TimeUnitFormat@icu_58@@AEAAXPEBVHashtable@2@PEAV32@AEAW4UErrorCode@@@Z @1414
    ?copyHashForAffixPattern@DecimalFormat@icu_58@@AEAAXPEBVHashtable@2@PEAV32@AEAW4UErrorCode@@@Z @1415
    ?copyHashtable@DateTimePatternGenerator@icu_58@@AEAAXPEAVHashtable@2@AEAW4UErrorCode@@@Z @1416
    ?copyObjects@MessageFormat@icu_58@@AEAAXAEBV12@AEAW4UErrorCode@@@Z @1417
    ?copyObjects@PluralFormat@icu_58@@AEAAXAEBV12@@Z @1418
    ?copyReorderingFrom@CollationSettings@icu_58@@QEAAXAEBU12@AEAW4UErrorCode@@@Z @1419
    ?copyRules@RuleBasedTimeZone@icu_58@@AEAAPEAVUVector@2@PEAV32@@Z @1420
    ?count@PluralAvailableLocalesEnumeration@icu_58@@UEBAHAEAW4UErrorCode@@@Z @1421
    ?countAvailableIDs@Transliterator@icu_58@@SAHXZ @1422
    ?countAvailableSources@Transliterator@icu_58@@SAHXZ @1423
    ?countAvailableTargets@Transliterator@icu_58@@SAHAEBVUnicodeString@2@@Z @1424
    ?countAvailableVariants@Transliterator@icu_58@@SAHAEBVUnicodeString@2@0@Z @1425
    ?countBytes@CollationWeights@icu_58@@AEBAHH@Z @1426
    ?countChar32@AffixPattern@icu_58@@QEBAHXZ @1427
    ?countChar32@DigitAffix@icu_58@@QEBAHXZ @1428
    ?countChar32@DigitFormatter@icu_58@@AEBAHAEBVDigitGrouping@2@AEBVDigitInterval@2@AEBVDigitFormatterOptions@2@@Z @1429
    ?countChar32@DigitFormatter@icu_58@@AEBAHAEBVVisibleDigits@2@AEBVDigitInterval@2@AEBVSciFormatterOptions@2@@Z @1430
    ?countChar32@DigitFormatter@icu_58@@QEBAHAEBVVisibleDigits@2@AEBVDigitGrouping@2@AEBVDigitFormatterOptions@2@@Z @1431
    ?countChar32@DigitFormatter@icu_58@@QEBAHAEBVVisibleDigitsWithExponent@2@AEBVSciFormatterOptions@2@@Z @1432
    ?countChar32@ValueFormatter@icu_58@@QEBAHAEBVVisibleDigitsWithExponent@2@@Z @1433
    ?countChar32ForExponent@DigitFormatter@icu_58@@AEBAHAEBVVisibleDigits@2@AEBVDigitFormatterIntOptions@2@@Z @1434
    ?countChar32ForInfinity@DigitFormatter@icu_58@@AEBAHXZ @1435
    ?countChar32ForNaN@DigitFormatter@icu_58@@AEBAHXZ @1436
    ?countElements@Transliterator@icu_58@@QEBAHXZ @1437
    ?countEquivalentIDs@TimeZone@icu_58@@SAHAEBVUnicodeString@2@@Z @1438
    ?countMembers@ScriptSet@icu_58@@QEBAHXZ @1439
    ?countStartTimes@TimeArrayTimeZoneRule@icu_58@@QEBAHXZ @1440
    ?countTailoredNodes@CollationBuilder@icu_58@@CAHPEB_JHH@Z @1441
    ?countTransitionRules@OlsonTimeZone@icu_58@@UEBAHAEAW4UErrorCode@@@Z @1442
    ?countTransitionRules@RuleBasedTimeZone@icu_58@@UEBAHAEAW4UErrorCode@@@Z @1443
    ?countTransitionRules@SimpleTimeZone@icu_58@@UEBAHAEAW4UErrorCode@@@Z @1444
    ?countTransitionRules@VTimeZone@icu_58@@UEBAHAEAW4UErrorCode@@@Z @1445
    ?create@DateFormat@icu_58@@CAPEAV12@W4EStyle@12@0AEBVLocale@2@@Z @1446
    ?create@DateIntervalFormat@icu_58@@CAPEAV12@AEBVLocale@2@PEAVDateIntervalInfo@2@PEBVUnicodeString@2@AEAW4UErrorCode@@@Z @1447
    ?create@MeasureUnit@icu_58@@CAPEAV12@HHAEAW4UErrorCode@@@Z @1448
    ?create@TimeUnitFormat@icu_58@@AEAAXW4UTimeUnitFormatStyle@@AEAW4UErrorCode@@@Z @1449
    ?createAcre@MeasureUnit@icu_58@@SAPEAV12@AEAW4UErrorCode@@@Z @1450
    ?createAcreFoot@MeasureUnit@icu_58@@SAPEAV12@AEAW4UErrorCode@@@Z @1451
    ?createAmpere@MeasureUnit@icu_58@@SAPEAV12@AEAW4UErrorCode@@@Z @1452
    ?createAppropriateFormat@MessageFormat@icu_58@@AEAAPEAVFormat@2@AEAVUnicodeString@2@0AEAW4Type@Formattable@2@AEAUUParseError@@AEAW4UErrorCode@@@Z @1453
    ?createArcMinute@MeasureUnit@icu_58@@SAPEAV12@AEAW4UErrorCode@@@Z @1454
    ?createArcSecond@MeasureUnit@icu_58@@SAPEAV12@AEAW4UErrorCode@@@Z @1455
    ?createAstronomicalUnit@MeasureUnit@icu_58@@SAPEAV12@AEAW4UErrorCode@@@Z @1456
    ?createBasicInstance@Transliterator@icu_58@@KAPEAV12@AEBVUnicodeString@2@PEBV32@@Z @1457
    ?createBit@MeasureUnit@icu_58@@SAPEAV12@AEAW4UErrorCode@@@Z @1458
    ?createBucketList@AlphabeticIndex@icu_58@@AEBAPEAVBucketList@2@AEAW4UErrorCode@@@Z @1459
    ?createBushel@MeasureUnit@icu_58@@SAPEAV12@AEAW4UErrorCode@@@Z @1460
    ?createByte@MeasureUnit@icu_58@@SAPEAV12@AEAW4UErrorCode@@@Z @1461
    ?createCalorie@MeasureUnit@icu_58@@SAPEAV12@AEAW4UErrorCode@@@Z @1462
    ?createCarat@MeasureUnit@icu_58@@SAPEAV12@AEAW4UErrorCode@@@Z @1463
    ?createCelsius@MeasureUnit@icu_58@@SAPEAV12@AEAW4UErrorCode@@@Z @1464
    ?createCentiliter@MeasureUnit@icu_58@@SAPEAV12@AEAW4UErrorCode@@@Z @1465
    ?createCentimeter@MeasureUnit@icu_58@@SAPEAV12@AEAW4UErrorCode@@@Z @1466
    ?createCentury@MeasureUnit@icu_58@@SAPEAV12@AEAW4UErrorCode@@@Z @1467
    ?createCollationElementIterator@RuleBasedCollator@icu_58@@UEBAPEAVCollationElementIterator@2@AEBVCharacterIterator@2@@Z @1468
    ?createCollationElementIterator@RuleBasedCollator@icu_58@@UEBAPEAVCollationElementIterator@2@AEBVUnicodeString@2@@Z @1469
    ?createCubicCentimeter@MeasureUnit@icu_58@@SAPEAV12@AEAW4UErrorCode@@@Z @1470
    ?createCubicFoot@MeasureUnit@icu_58@@SAPEAV12@AEAW4UErrorCode@@@Z @1471
    ?createCubicInch@MeasureUnit@icu_58@@SAPEAV12@AEAW4UErrorCode@@@Z @1472
    ?createCubicKilometer@MeasureUnit@icu_58@@SAPEAV12@AEAW4UErrorCode@@@Z @1473
    ?createCubicMeter@MeasureUnit@icu_58@@SAPEAV12@AEAW4UErrorCode@@@Z @1474
    ?createCubicMile@MeasureUnit@icu_58@@SAPEAV12@AEAW4UErrorCode@@@Z @1475
    ?createCubicYard@MeasureUnit@icu_58@@SAPEAV12@AEAW4UErrorCode@@@Z @1476
    ?createCup@MeasureUnit@icu_58@@SAPEAV12@AEAW4UErrorCode@@@Z @1477
    ?createCupMetric@MeasureUnit@icu_58@@SAPEAV12@AEAW4UErrorCode@@@Z @1478
    ?createCurrencyFormat@MeasureFormat@icu_58@@SAPEAV12@AEAW4UErrorCode@@@Z @1479
    ?createCurrencyFormat@MeasureFormat@icu_58@@SAPEAV12@AEBVLocale@2@AEAW4UErrorCode@@@Z @1480
    ?createCurrencyInstance@NumberFormat@icu_58@@SAPEAV12@AEAW4UErrorCode@@@Z @1481
    ?createCurrencyInstance@NumberFormat@icu_58@@SAPEAV12@AEBVLocale@2@AEAW4UErrorCode@@@Z @1482
    ?createCustomTimeZone@TimeZone@icu_58@@CAPEAV12@AEBVUnicodeString@2@@Z @1483
    ?createCustomTimeZone@ZoneMeta@icu_58@@SAPEAVTimeZone@2@H@Z @1484
    ?createDateInstance@DateFormat@icu_58@@SAPEAV12@W4EStyle@12@AEBVLocale@2@@Z @1485
    ?createDateTimeInstance@DateFormat@icu_58@@SAPEAV12@W4EStyle@12@0AEBVLocale@2@@Z @1486
    ?createDay@MeasureUnit@icu_58@@SAPEAV12@AEAW4UErrorCode@@@Z @1487
    ?createDeciliter@MeasureUnit@icu_58@@SAPEAV12@AEAW4UErrorCode@@@Z @1488
    ?createDecimeter@MeasureUnit@icu_58@@SAPEAV12@AEAW4UErrorCode@@@Z @1489
    ?createDefault@TimeZone@icu_58@@SAPEAV12@XZ @1490
    ?createDefaultRules@PluralRules@icu_58@@SAPEAV12@AEAW4UErrorCode@@@Z @1491
    ?createDegree@MeasureUnit@icu_58@@SAPEAV12@AEAW4UErrorCode@@@Z @1492
    ?createEast@MeasureUnit@icu_58@@SAPEAV12@AEAW4UErrorCode@@@Z @1493
    ?createEmptyInstance@DateTimePatternGenerator@icu_58@@SAPEAV12@AEAW4UErrorCode@@@Z @1494
    ?createEnumeration@TimeZone@icu_58@@SAPEAVStringEnumeration@2@H@Z @1495
    ?createEnumeration@TimeZone@icu_58@@SAPEAVStringEnumeration@2@PEBD@Z @1496
    ?createEnumeration@TimeZone@icu_58@@SAPEAVStringEnumeration@2@XZ @1497
    ?createFahrenheit@MeasureUnit@icu_58@@SAPEAV12@AEAW4UErrorCode@@@Z @1498
    ?createFathom@MeasureUnit@icu_58@@SAPEAV12@AEAW4UErrorCode@@@Z @1499
    ?createFluidOunce@MeasureUnit@icu_58@@SAPEAV12@AEAW4UErrorCode@@@Z @1500
    ?createFoodcalorie@MeasureUnit@icu_58@@SAPEAV12@AEAW4UErrorCode@@@Z @1501
    ?createFoot@MeasureUnit@icu_58@@SAPEAV12@AEAW4UErrorCode@@@Z @1502
    ?createForLocale@DateFormatSymbols@icu_58@@SAPEAV12@AEBVLocale@2@AEAW4UErrorCode@@@Z @1503
    ?createFromRules@Transliterator@icu_58@@SAPEAV12@AEBVUnicodeString@2@0W4UTransDirection@@AEAUUParseError@@AEAW4UErrorCode@@@Z @1504
    ?createFurlong@MeasureUnit@icu_58@@SAPEAV12@AEAW4UErrorCode@@@Z @1505
    ?createGForce@MeasureUnit@icu_58@@SAPEAV12@AEAW4UErrorCode@@@Z @1506
    ?createGallon@MeasureUnit@icu_58@@SAPEAV12@AEAW4UErrorCode@@@Z @1507
    ?createGallonImperial@MeasureUnit@icu_58@@SAPEAV12@AEAW4UErrorCode@@@Z @1508
    ?createGenericTemperature@MeasureUnit@icu_58@@SAPEAV12@AEAW4UErrorCode@@@Z @1509
    ?createGigabit@MeasureUnit@icu_58@@SAPEAV12@AEAW4UErrorCode@@@Z @1510
    ?createGigabyte@MeasureUnit@icu_58@@SAPEAV12@AEAW4UErrorCode@@@Z @1511
    ?createGigahertz@MeasureUnit@icu_58@@SAPEAV12@AEAW4UErrorCode@@@Z @1512
    ?createGigawatt@MeasureUnit@icu_58@@SAPEAV12@AEAW4UErrorCode@@@Z @1513
    ?createGram@MeasureUnit@icu_58@@SAPEAV12@AEAW4UErrorCode@@@Z @1514
    ?createHectare@MeasureUnit@icu_58@@SAPEAV12@AEAW4UErrorCode@@@Z @1515
    ?createHectoliter@MeasureUnit@icu_58@@SAPEAV12@AEAW4UErrorCode@@@Z @1516
    ?createHectopascal@MeasureUnit@icu_58@@SAPEAV12@AEAW4UErrorCode@@@Z @1517
    ?createHertz@MeasureUnit@icu_58@@SAPEAV12@AEAW4UErrorCode@@@Z @1518
    ?createHorsepower@MeasureUnit@icu_58@@SAPEAV12@AEAW4UErrorCode@@@Z @1519
    ?createHour@MeasureUnit@icu_58@@SAPEAV12@AEAW4UErrorCode@@@Z @1520
    ?createInch@MeasureUnit@icu_58@@SAPEAV12@AEAW4UErrorCode@@@Z @1521
    ?createInchHg@MeasureUnit@icu_58@@SAPEAV12@AEAW4UErrorCode@@@Z @1522
    ?createInstance@Calendar@icu_58@@SAPEAV12@AEAW4UErrorCode@@@Z @1523
    ?createInstance@Calendar@icu_58@@SAPEAV12@AEBVLocale@2@AEAW4UErrorCode@@@Z @1524
    ?createInstance@Calendar@icu_58@@SAPEAV12@AEBVTimeZone@2@AEAW4UErrorCode@@@Z @1525
    ?createInstance@Calendar@icu_58@@SAPEAV12@AEBVTimeZone@2@AEBVLocale@2@AEAW4UErrorCode@@@Z @1526
    ?createInstance@Calendar@icu_58@@SAPEAV12@PEAVTimeZone@2@AEAW4UErrorCode@@@Z @1527
    ?createInstance@Calendar@icu_58@@SAPEAV12@PEAVTimeZone@2@AEBVLocale@2@AEAW4UErrorCode@@@Z @1528
    ?createInstance@Collator@icu_58@@SAPEAV12@AEAW4UErrorCode@@@Z @1529
    ?createInstance@Collator@icu_58@@SAPEAV12@AEBVLocale@2@AEAW4UErrorCode@@@Z @1530
    ?createInstance@CompactDecimalFormat@icu_58@@SAPEAV12@AEBVLocale@2@W4UNumberCompactStyle@@AEAW4UErrorCode@@@Z @1531
    ?createInstance@DateFormat@icu_58@@SAPEAV12@XZ @1532
    ?createInstance@DateIntervalFormat@icu_58@@SAPEAV12@AEBVUnicodeString@2@AEAW4UErrorCode@@@Z @1533
    ?createInstance@DateIntervalFormat@icu_58@@SAPEAV12@AEBVUnicodeString@2@AEBVDateIntervalInfo@2@AEAW4UErrorCode@@@Z @1534
    ?createInstance@DateIntervalFormat@icu_58@@SAPEAV12@AEBVUnicodeString@2@AEBVLocale@2@AEAW4UErrorCode@@@Z @1535
    ?createInstance@DateIntervalFormat@icu_58@@SAPEAV12@AEBVUnicodeString@2@AEBVLocale@2@AEBVDateIntervalInfo@2@AEAW4UErrorCode@@@Z @1536
    ?createInstance@DateTimePatternGenerator@icu_58@@SAPEAV12@AEAW4UErrorCode@@@Z @1537
    ?createInstance@DateTimePatternGenerator@icu_58@@SAPEAV12@AEBVLocale@2@AEAW4UErrorCode@@@Z @1538
    ?createInstance@NumberFormat@icu_58@@SAPEAV12@AEAW4UErrorCode@@@Z @1539
    ?createInstance@NumberFormat@icu_58@@SAPEAV12@AEBVLocale@2@AEAW4UErrorCode@@@Z @1540
    ?createInstance@NumberFormat@icu_58@@SAPEAV12@AEBVLocale@2@W4UNumberFormatStyle@@AEAW4UErrorCode@@@Z @1541
    ?createInstance@NumberingSystem@icu_58@@SAPEAV12@AEAW4UErrorCode@@@Z @1542
    ?createInstance@NumberingSystem@icu_58@@SAPEAV12@AEBVLocale@2@AEAW4UErrorCode@@@Z @1543
    ?createInstance@NumberingSystem@icu_58@@SAPEAV12@HCAEBVUnicodeString@2@AEAW4UErrorCode@@@Z @1544
    ?createInstance@ScientificNumberFormatter@icu_58@@CAPEAV12@PEAVDecimalFormat@2@PEAVStyle@12@AEAW4UErrorCode@@@Z @1545
    ?createInstance@TimeUnit@icu_58@@SAPEAV12@W4UTimeUnitFields@12@AEAW4UErrorCode@@@Z @1546
    ?createInstance@TimeZoneFormat@icu_58@@SAPEAV12@AEBVLocale@2@AEAW4UErrorCode@@@Z @1547
    ?createInstance@TimeZoneGenericNames@icu_58@@SAPEAV12@AEBVLocale@2@AEAW4UErrorCode@@@Z @1548
    ?createInstance@TimeZoneNames@icu_58@@SAPEAV12@AEBVLocale@2@AEAW4UErrorCode@@@Z @1549
    ?createInstance@Transliterator@icu_58@@SAPEAV12@AEBVUnicodeString@2@W4UTransDirection@@AEAUUParseError@@AEAW4UErrorCode@@@Z @1550
    ?createInstance@Transliterator@icu_58@@SAPEAV12@AEBVUnicodeString@2@W4UTransDirection@@AEAW4UErrorCode@@@Z @1551
    ?createInstanceByName@NumberingSystem@icu_58@@SAPEAV12@PEBDAEAW4UErrorCode@@@Z @1552
    ?createInstanceForSkeleton@DateFormat@icu_58@@SAPEAV12@AEBVUnicodeString@2@AEAW4UErrorCode@@@Z @1553
    ?createInstanceForSkeleton@DateFormat@icu_58@@SAPEAV12@AEBVUnicodeString@2@AEBVLocale@2@AEAW4UErrorCode@@@Z @1554
    ?createInstanceForSkeleton@DateFormat@icu_58@@SAPEAV12@PEAVCalendar@2@AEBVUnicodeString@2@AEBVLocale@2@AEAW4UErrorCode@@@Z @1555
    ?createIntegerFormat@MessageFormat@icu_58@@AEBAPEAVNumberFormat@2@AEBVLocale@2@AEAW4UErrorCode@@@Z @1556
    ?createInverse@Transliterator@icu_58@@QEBAPEAV12@AEAW4UErrorCode@@@Z @1557
    ?createJoule@MeasureUnit@icu_58@@SAPEAV12@AEAW4UErrorCode@@@Z @1558
    ?createKarat@MeasureUnit@icu_58@@SAPEAV12@AEAW4UErrorCode@@@Z @1559
    ?createKelvin@MeasureUnit@icu_58@@SAPEAV12@AEAW4UErrorCode@@@Z @1560
    ?createKilobit@MeasureUnit@icu_58@@SAPEAV12@AEAW4UErrorCode@@@Z @1561
    ?createKilobyte@MeasureUnit@icu_58@@SAPEAV12@AEAW4UErrorCode@@@Z @1562
    ?createKilocalorie@MeasureUnit@icu_58@@SAPEAV12@AEAW4UErrorCode@@@Z @1563
    ?createKilogram@MeasureUnit@icu_58@@SAPEAV12@AEAW4UErrorCode@@@Z @1564
    ?createKilohertz@MeasureUnit@icu_58@@SAPEAV12@AEAW4UErrorCode@@@Z @1565
    ?createKilojoule@MeasureUnit@icu_58@@SAPEAV12@AEAW4UErrorCode@@@Z @1566
    ?createKilometer@MeasureUnit@icu_58@@SAPEAV12@AEAW4UErrorCode@@@Z @1567
    ?createKilometerPerHour@MeasureUnit@icu_58@@SAPEAV12@AEAW4UErrorCode@@@Z @1568
    ?createKilowatt@MeasureUnit@icu_58@@SAPEAV12@AEAW4UErrorCode@@@Z @1569
    ?createKilowattHour@MeasureUnit@icu_58@@SAPEAV12@AEAW4UErrorCode@@@Z @1570
    ?createKnot@MeasureUnit@icu_58@@SAPEAV12@AEAW4UErrorCode@@@Z @1571
    ?createLightYear@MeasureUnit@icu_58@@SAPEAV12@AEAW4UErrorCode@@@Z @1572
    ?createLiter@MeasureUnit@icu_58@@SAPEAV12@AEAW4UErrorCode@@@Z @1573
    ?createLiterPer100Kilometers@MeasureUnit@icu_58@@SAPEAV12@AEAW4UErrorCode@@@Z @1574
    ?createLiterPerKilometer@MeasureUnit@icu_58@@SAPEAV12@AEAW4UErrorCode@@@Z @1575
    ?createLux@MeasureUnit@icu_58@@SAPEAV12@AEAW4UErrorCode@@@Z @1576
    ?createMarkupInstance@ScientificNumberFormatter@icu_58@@SAPEAV12@AEBVLocale@2@AEBVUnicodeString@2@1AEAW4UErrorCode@@@Z @1577
    ?createMarkupInstance@ScientificNumberFormatter@icu_58@@SAPEAV12@PEAVDecimalFormat@2@AEBVUnicodeString@2@1AEAW4UErrorCode@@@Z @1578
    ?createMegabit@MeasureUnit@icu_58@@SAPEAV12@AEAW4UErrorCode@@@Z @1579
    ?createMegabyte@MeasureUnit@icu_58@@SAPEAV12@AEAW4UErrorCode@@@Z @1580
    ?createMegahertz@MeasureUnit@icu_58@@SAPEAV12@AEAW4UErrorCode@@@Z @1581
    ?createMegaliter@MeasureUnit@icu_58@@SAPEAV12@AEAW4UErrorCode@@@Z @1582
    ?createMegawatt@MeasureUnit@icu_58@@SAPEAV12@AEAW4UErrorCode@@@Z @1583
    ?createMetazoneMappings@ZoneMeta@icu_58@@CAPEAVUVector@2@AEBVUnicodeString@2@@Z @1584
    ?createMeter@MeasureUnit@icu_58@@SAPEAV12@AEAW4UErrorCode@@@Z @1585
    ?createMeterPerSecond@MeasureUnit@icu_58@@SAPEAV12@AEAW4UErrorCode@@@Z @1586
    ?createMeterPerSecondSquared@MeasureUnit@icu_58@@SAPEAV12@AEAW4UErrorCode@@@Z @1587
    ?createMetricTon@MeasureUnit@icu_58@@SAPEAV12@AEAW4UErrorCode@@@Z @1588
    ?createMicrogram@MeasureUnit@icu_58@@SAPEAV12@AEAW4UErrorCode@@@Z @1589
    ?createMicrometer@MeasureUnit@icu_58@@SAPEAV12@AEAW4UErrorCode@@@Z @1590
    ?createMicrosecond@MeasureUnit@icu_58@@SAPEAV12@AEAW4UErrorCode@@@Z @1591
    ?createMile@MeasureUnit@icu_58@@SAPEAV12@AEAW4UErrorCode@@@Z @1592
    ?createMilePerGallon@MeasureUnit@icu_58@@SAPEAV12@AEAW4UErrorCode@@@Z @1593
    ?createMilePerGallonImperial@MeasureUnit@icu_58@@SAPEAV12@AEAW4UErrorCode@@@Z @1594
    ?createMilePerHour@MeasureUnit@icu_58@@SAPEAV12@AEAW4UErrorCode@@@Z @1595
    ?createMileScandinavian@MeasureUnit@icu_58@@SAPEAV12@AEAW4UErrorCode@@@Z @1596
    ?createMilliampere@MeasureUnit@icu_58@@SAPEAV12@AEAW4UErrorCode@@@Z @1597
    ?createMillibar@MeasureUnit@icu_58@@SAPEAV12@AEAW4UErrorCode@@@Z @1598
    ?createMilligram@MeasureUnit@icu_58@@SAPEAV12@AEAW4UErrorCode@@@Z @1599
    ?createMilligramPerDeciliter@MeasureUnit@icu_58@@SAPEAV12@AEAW4UErrorCode@@@Z @1600
    ?createMilliliter@MeasureUnit@icu_58@@SAPEAV12@AEAW4UErrorCode@@@Z @1601
    ?createMillimeter@MeasureUnit@icu_58@@SAPEAV12@AEAW4UErrorCode@@@Z @1602
    ?createMillimeterOfMercury@MeasureUnit@icu_58@@SAPEAV12@AEAW4UErrorCode@@@Z @1603
    ?createMillimolePerLiter@MeasureUnit@icu_58@@SAPEAV12@AEAW4UErrorCode@@@Z @1604
    ?createMillisecond@MeasureUnit@icu_58@@SAPEAV12@AEAW4UErrorCode@@@Z @1605
    ?createMilliwatt@MeasureUnit@icu_58@@SAPEAV12@AEAW4UErrorCode@@@Z @1606
    ?createMinute@MeasureUnit@icu_58@@SAPEAV12@AEAW4UErrorCode@@@Z @1607
    ?createMonth@MeasureUnit@icu_58@@SAPEAV12@AEAW4UErrorCode@@@Z @1608
    ?createNanometer@MeasureUnit@icu_58@@SAPEAV12@AEAW4UErrorCode@@@Z @1609
    ?createNanosecond@MeasureUnit@icu_58@@SAPEAV12@AEAW4UErrorCode@@@Z @1610
    ?createNauticalMile@MeasureUnit@icu_58@@SAPEAV12@AEAW4UErrorCode@@@Z @1611
    ?createNorth@MeasureUnit@icu_58@@SAPEAV12@AEAW4UErrorCode@@@Z @1612
    ?createObject@?$LocaleCacheKey@UCollationCacheEntry@icu_58@@@icu_58@@UEBAPEBUCollationCacheEntry@2@PEBXAEAW4UErrorCode@@@Z @1613
    ?createObject@?$LocaleCacheKey@VDateFmtBestPattern@icu_58@@@icu_58@@UEBAPEBVDateFmtBestPattern@2@PEBXAEAW4UErrorCode@@@Z @1614
    ?createObject@?$LocaleCacheKey@VMeasureFormatCacheData@icu_58@@@icu_58@@UEBAPEBVMeasureFormatCacheData@2@PEBXAEAW4UErrorCode@@@Z @1615
    ?createObject@?$LocaleCacheKey@VRelativeDateTimeCacheData@icu_58@@@icu_58@@UEBAPEBVRelativeDateTimeCacheData@2@PEBXAEAW4UErrorCode@@@Z @1616
    ?createObject@?$LocaleCacheKey@VSharedCalendar@icu_58@@@icu_58@@UEBAPEBVSharedCalendar@2@PEBXAEAW4UErrorCode@@@Z @1617
    ?createObject@?$LocaleCacheKey@VSharedDateFormatSymbols@icu_58@@@icu_58@@UEBAPEBVSharedDateFormatSymbols@2@PEBXAEAW4UErrorCode@@@Z @1618
    ?createObject@?$LocaleCacheKey@VSharedNumberFormat@icu_58@@@icu_58@@UEBAPEBVSharedNumberFormat@2@PEBXAEAW4UErrorCode@@@Z @1619
    ?createObject@?$LocaleCacheKey@VSharedPluralRules@icu_58@@@icu_58@@UEBAPEBVSharedPluralRules@2@PEBXAEAW4UErrorCode@@@Z @1620
    ?createObject@DateFmtBestPatternKey@icu_58@@UEBAPEBVDateFmtBestPattern@2@PEBXAEAW4UErrorCode@@@Z @1621
    ?createOhm@MeasureUnit@icu_58@@SAPEAV12@AEAW4UErrorCode@@@Z @1622
    ?createOunce@MeasureUnit@icu_58@@SAPEAV12@AEAW4UErrorCode@@@Z @1623
    ?createOunceTroy@MeasureUnit@icu_58@@SAPEAV12@AEAW4UErrorCode@@@Z @1624
    ?createParsec@MeasureUnit@icu_58@@SAPEAV12@AEAW4UErrorCode@@@Z @1625
    ?createPartPerMillion@MeasureUnit@icu_58@@SAPEAV12@AEAW4UErrorCode@@@Z @1626
    ?createPercentInstance@NumberFormat@icu_58@@SAPEAV12@AEAW4UErrorCode@@@Z @1627
    ?createPercentInstance@NumberFormat@icu_58@@SAPEAV12@AEBVLocale@2@AEAW4UErrorCode@@@Z @1628
    ?createPicometer@MeasureUnit@icu_58@@SAPEAV12@AEAW4UErrorCode@@@Z @1629
    ?createPint@MeasureUnit@icu_58@@SAPEAV12@AEAW4UErrorCode@@@Z @1630
    ?createPintMetric@MeasureUnit@icu_58@@SAPEAV12@AEAW4UErrorCode@@@Z @1631
    ?createPluralFormat@RuleBasedNumberFormat@icu_58@@AEBAPEAVPluralFormat@2@W4UPluralType@@AEBVUnicodeString@2@AEAW4UErrorCode@@@Z @1632
    ?createPound@MeasureUnit@icu_58@@SAPEAV12@AEAW4UErrorCode@@@Z @1633
    ?createPoundPerSquareInch@MeasureUnit@icu_58@@SAPEAV12@AEAW4UErrorCode@@@Z @1634
    ?createQuart@MeasureUnit@icu_58@@SAPEAV12@AEAW4UErrorCode@@@Z @1635
    ?createRadian@MeasureUnit@icu_58@@SAPEAV12@AEAW4UErrorCode@@@Z @1636
    ?createRevolutionAngle@MeasureUnit@icu_58@@SAPEAV12@AEAW4UErrorCode@@@Z @1637
    ?createRules@PluralRules@icu_58@@SAPEAV12@AEBVUnicodeString@2@AEAW4UErrorCode@@@Z @1638
    ?createScientificInstance@NumberFormat@icu_58@@SAPEAV12@AEAW4UErrorCode@@@Z @1639
    ?createScientificInstance@NumberFormat@icu_58@@SAPEAV12@AEBVLocale@2@AEAW4UErrorCode@@@Z @1640
    ?createSecond@MeasureUnit@icu_58@@SAPEAV12@AEAW4UErrorCode@@@Z @1641
    ?createSetForProperty@RegexCompile@icu_58@@AEAAPEAVUnicodeSet@2@AEBVUnicodeString@2@C@Z @1642
    ?createSharedInstance@NumberFormat@icu_58@@SAPEBVSharedNumberFormat@2@AEBVLocale@2@W4UNumberFormatStyle@@AEAW4UErrorCode@@@Z @1643
    ?createSharedInstance@PluralRules@icu_58@@SAPEBVSharedPluralRules@2@AEBVLocale@2@W4UPluralType@@AEAW4UErrorCode@@@Z @1644
    ?createSouth@MeasureUnit@icu_58@@SAPEAV12@AEAW4UErrorCode@@@Z @1645
    ?createSquareCentimeter@MeasureUnit@icu_58@@SAPEAV12@AEAW4UErrorCode@@@Z @1646
    ?createSquareFoot@MeasureUnit@icu_58@@SAPEAV12@AEAW4UErrorCode@@@Z @1647
    ?createSquareInch@MeasureUnit@icu_58@@SAPEAV12@AEAW4UErrorCode@@@Z @1648
    ?createSquareKilometer@MeasureUnit@icu_58@@SAPEAV12@AEAW4UErrorCode@@@Z @1649
    ?createSquareMeter@MeasureUnit@icu_58@@SAPEAV12@AEAW4UErrorCode@@@Z @1650
    ?createSquareMile@MeasureUnit@icu_58@@SAPEAV12@AEAW4UErrorCode@@@Z @1651
    ?createSquareYard@MeasureUnit@icu_58@@SAPEAV12@AEAW4UErrorCode@@@Z @1652
    ?createStone@MeasureUnit@icu_58@@SAPEAV12@AEAW4UErrorCode@@@Z @1653
    ?createSuperscriptInstance@ScientificNumberFormatter@icu_58@@SAPEAV12@AEBVLocale@2@AEAW4UErrorCode@@@Z @1654
    ?createSuperscriptInstance@ScientificNumberFormatter@icu_58@@SAPEAV12@PEAVDecimalFormat@2@AEAW4UErrorCode@@@Z @1655
    ?createTZDBInstance@TimeZoneNames@icu_58@@SAPEAV12@AEBVLocale@2@AEAW4UErrorCode@@@Z @1656
    ?createTablespoon@MeasureUnit@icu_58@@SAPEAV12@AEAW4UErrorCode@@@Z @1657
    ?createTeaspoon@MeasureUnit@icu_58@@SAPEAV12@AEAW4UErrorCode@@@Z @1658
    ?createTerabit@MeasureUnit@icu_58@@SAPEAV12@AEAW4UErrorCode@@@Z @1659
    ?createTerabyte@MeasureUnit@icu_58@@SAPEAV12@AEAW4UErrorCode@@@Z @1660
    ?createTimeInstance@DateFormat@icu_58@@SAPEAV12@W4EStyle@12@AEBVLocale@2@@Z @1661
    ?createTimeZone@TimeZone@icu_58@@SAPEAV12@AEBVUnicodeString@2@@Z @1662
    ?createTimeZoneForOffset@TimeZoneFormat@icu_58@@AEBAPEAVTimeZone@2@H@Z @1663
    ?createTimeZoneIDEnumeration@TimeZone@icu_58@@SAPEAVStringEnumeration@2@W4USystemTimeZoneType@@PEBDPEBHAEAW4UErrorCode@@@Z @1664
    ?createTon@MeasureUnit@icu_58@@SAPEAV12@AEAW4UErrorCode@@@Z @1665
    ?createVTimeZone@VTimeZone@icu_58@@SAPEAV12@AEBVUnicodeString@2@AEAW4UErrorCode@@@Z @1666
    ?createVTimeZoneByID@VTimeZone@icu_58@@SAPEAV12@AEBVUnicodeString@2@@Z @1667
    ?createVTimeZoneFromBasicTimeZone@VTimeZone@icu_58@@SAPEAV12@AEBVBasicTimeZone@2@AEAW4UErrorCode@@@Z @1668
    ?createVolt@MeasureUnit@icu_58@@SAPEAV12@AEAW4UErrorCode@@@Z @1669
    ?createWatt@MeasureUnit@icu_58@@SAPEAV12@AEAW4UErrorCode@@@Z @1670
    ?createWeek@MeasureUnit@icu_58@@SAPEAV12@AEAW4UErrorCode@@@Z @1671
    ?createWest@MeasureUnit@icu_58@@SAPEAV12@AEAW4UErrorCode@@@Z @1672
    ?createWithLastResortData@DecimalFormatSymbols@icu_58@@SAPEAV12@AEAW4UErrorCode@@@Z @1673
    ?createYard@MeasureUnit@icu_58@@SAPEAV12@AEAW4UErrorCode@@@Z @1674
    ?createYear@MeasureUnit@icu_58@@SAPEAV12@AEAW4UErrorCode@@@Z @1675
    ?createZoneStrings@DateFormatSymbols@icu_58@@AEAAXPEBQEBVUnicodeString@2@@Z @1676
    ?daysToMillis@ChineseCalendar@icu_58@@AEBANN@Z @1677
    ?decThreeBytePrimaryByOneStep@Collation@icu_58@@SAIICH@Z @1678
    ?decTwoBytePrimaryByOneStep@Collation@icu_58@@SAIICH@Z @1679
    ?decimalStrToDouble@DigitList@icu_58@@SANPEADPEAPEAD@Z @1680
    ?decimals@FixedDecimal@icu_58@@SAHN@Z @1681
    ?decodeEndRule@SimpleTimeZone@icu_58@@AEAAXAEAW4UErrorCode@@@Z @1682
    ?decodeRules@SimpleTimeZone@icu_58@@AEAAXAEAW4UErrorCode@@@Z @1683
    ?decodeStartRule@SimpleTimeZone@icu_58@@AEAAXAEAW4UErrorCode@@@Z @1684
    ?defaultCenturyStart@ChineseCalendar@icu_58@@MEBANXZ @1685
    ?defaultCenturyStart@GregorianCalendar@icu_58@@UEBANXZ @1686
    ?defaultCenturyStart@HebrewCalendar@icu_58@@MEBANXZ @1687
    ?defaultCenturyStart@IslamicCalendar@icu_58@@MEBANXZ @1688
    ?defaultCenturyStartYear@ChineseCalendar@icu_58@@MEBAHXZ @1689
    ?defaultCenturyStartYear@GregorianCalendar@icu_58@@UEBAHXZ @1690
    ?defaultCenturyStartYear@HebrewCalendar@icu_58@@MEBAHXZ @1691
    ?defaultCenturyStartYear@IslamicCalendar@icu_58@@MEBAHXZ @1692
    ?deleteHash@CurrencyPluralInfo@icu_58@@AEAAXPEAVHashtable@2@@Z @1693
    ?deleteHash@DateIntervalInfo@icu_58@@AEAAXPEAVHashtable@2@@Z @1694
    ?deleteHash@TimeUnitFormat@icu_58@@AEAAXPEAVHashtable@2@@Z @1695
    ?deleteHashForAffixPattern@DecimalFormat@icu_58@@AEAAXXZ @1696
    ?deleteRules@RuleBasedTimeZone@icu_58@@AEAAXXZ @1697
    ?deleteTransitionRules@OlsonTimeZone@icu_58@@AEAAXXZ @1698
    ?deleteTransitionRules@SimpleTimeZone@icu_58@@AEAAXXZ @1699
    ?deleteTransitions@RuleBasedTimeZone@icu_58@@AEAAXXZ @1700
    ?dereferOlsonLink@TimeZone@icu_58@@CAPEB_WAEBVUnicodeString@2@@Z @1701
    ?detectHostTimeZone@TimeZone@icu_58@@SAPEAV12@XZ @1702
    ?digitFromCE32@Collation@icu_58@@SADI@Z @1703
    ?digits@DigitList@icu_58@@QEBAHXZ @1704
    ?disableFastLatin@CollationBuilder@icu_58@@QEAAXXZ @1705
    ?displayScripts@ScriptSet@icu_58@@QEBAAEAVUnicodeString@2@AEAV32@@Z @1706
    ?dispose@DateFormatSymbols@icu_58@@AEAAXXZ @1707
    ?dispose@Formattable@icu_58@@AEAAXXZ @1708
    ?dispose@RuleBasedNumberFormat@icu_58@@AEAAXXZ @1709
    ?disposeZoneStrings@DateFormatSymbols@icu_58@@AEAAXXZ @1710
    ?div@DigitList@icu_58@@QEAAXAEBV12@AEAW4UErrorCode@@@Z @1711
    ?doCompare@RuleBasedCollator@icu_58@@AEBA?AW4UCollationResult@@PEBEH0HAEAW4UErrorCode@@@Z @1712
    ?doCompare@RuleBasedCollator@icu_58@@AEBA?AW4UCollationResult@@PEB_WH0HAEAW4UErrorCode@@@Z @1713
    ?doParseActions@RegexCompile@icu_58@@AEAACH@Z @1714
    ?dontCheckFCD@CollationSettings@icu_58@@QEBACXZ @1715
    ?dstOffsetAt@OlsonTimeZone@icu_58@@AEBAHF@Z @1716
    ?dtos@ChoiceFormat@icu_58@@CAAEAVUnicodeString@2@NAEAV32@@Z @1717
    ?dumpOp@RegexPattern@icu_58@@AEBAXH@Z @1718
    ?dumpPattern@RegexPattern@icu_58@@QEBAXXZ @1719
    ?eclipticObliquity@CalendarAstronomer@icu_58@@AEAANXZ @1720
    ?eclipticToEquatorial@CalendarAstronomer@icu_58@@QEAAAEAVEquatorial@12@AEAV312@AEBVEcliptic@12@@Z @1721
    ?eclipticToEquatorial@CalendarAstronomer@icu_58@@QEAAAEAVEquatorial@12@AEAV312@N@Z @1722
    ?eclipticToEquatorial@CalendarAstronomer@icu_58@@QEAAAEAVEquatorial@12@AEAV312@NN@Z @1723
    ?eclipticToHorizon@CalendarAstronomer@icu_58@@QEAAAEAVHorizon@12@AEAV312@N@Z @1724
    ?enableFastLatin@CollationDataBuilder@icu_58@@QEAAXXZ @1725
    ?encodeCEs@CollationDataBuilder@icu_58@@UEAAIQEB_JHAEAW4UErrorCode@@@Z @1726
    ?encodeCharCEs@CollationFastLatinBuilder@icu_58@@AEAACAEAW4UErrorCode@@@Z @1727
    ?encodeContractions@CollationFastLatinBuilder@icu_58@@AEAACAEAW4UErrorCode@@@Z @1728
    ?encodeExpansion32@CollationDataBuilder@icu_58@@IEAAIQEBHHAEAW4UErrorCode@@@Z @1729
    ?encodeExpansion@CollationDataBuilder@icu_58@@IEAAIQEB_JHAEAW4UErrorCode@@@Z @1730
    ?encodeOneCE@CollationDataBuilder@icu_58@@IEAAI_JAEAW4UErrorCode@@@Z @1731
    ?encodeOneCEAsCE32@CollationDataBuilder@icu_58@@KAI_J@Z @1732
    ?encodeTwoCEs@CollationFastLatinBuilder@icu_58@@AEBAI_J0@Z @1733
    ?encodeUniqueCEs@CollationFastLatinBuilder@icu_58@@AEAACAEAW4UErrorCode@@@Z @1734
    ?end64@RegexMatcher@icu_58@@UEBA_JAEAW4UErrorCode@@@Z @1735
    ?end64@RegexMatcher@icu_58@@UEBA_JHAEAW4UErrorCode@@@Z @1736
    ?end@RegexMatcher@icu_58@@UEBAHAEAW4UErrorCode@@@Z @1737
    ?end@RegexMatcher@icu_58@@UEBAHHAEAW4UErrorCode@@@Z @1738
    ?endZoneProps@VTimeZone@icu_58@@AEBAXAEAVVTZWriter@2@CAEAW4UErrorCode@@@Z @1739
    ?ensureCapacity@DigitList@icu_58@@QEAAXHAEAW4UErrorCode@@@Z @1740
    ?ensureOwnedData@CollationTailoring@icu_58@@QEAACAEAW4UErrorCode@@@Z @1741
    ?eq@PluralAffix@icu_58@@CACAEBVDigitAffix@2@0@Z @1742
    ?eqHelper@CompactDecimalFormat@icu_58@@AEBACAEBV12@@Z @1743
    ?equalFormats@MessageFormat@icu_58@@SACPEBX0@Z @1744
    ?equalWithSignCompatibility@DecimalFormat@icu_58@@AEBACHH@Z @1745
    ?equals@?$PluralMap@VDigitAffix@icu_58@@@icu_58@@QEBACAEBV12@P6ACAEBVDigitAffix@2@1@Z@Z @1746
    ?equals@AffixPattern@icu_58@@QEBACAEBV12@@Z @1747
    ?equals@AffixPatternParser@icu_58@@QEBACAEBV12@@Z @1748
    ?equals@Calendar@icu_58@@QEBACAEBV12@AEAW4UErrorCode@@@Z @1749
    ?equals@Collator@icu_58@@QEBACAEBVUnicodeString@2@0@Z @1750
    ?equals@CurrencyAffixInfo@icu_58@@QEBACAEBV12@@Z @1751
    ?equals@DigitAffix@icu_58@@QEBACAEBV12@@Z @1752
    ?equals@DigitAffixesAndPadding@icu_58@@QEBACAEBV12@@Z @1753
    ?equals@DigitFormatter@icu_58@@QEBACAEBV12@@Z @1754
    ?equals@DigitFormatterIntOptions@icu_58@@QEBACAEBV12@@Z @1755
    ?equals@DigitFormatterOptions@icu_58@@QEBACAEBV12@@Z @1756
    ?equals@DigitGrouping@icu_58@@QEBACAEBV12@@Z @1757
    ?equals@DigitInterval@icu_58@@QEBACAEBV12@@Z @1758
    ?equals@FixedPrecision@icu_58@@QEBACAEBV12@@Z @1759
    ?equals@PluralAffix@icu_58@@QEBACAEBV12@@Z @1760
    ?equals@SciFormatterOptions@icu_58@@QEBACAEBV12@@Z @1761
    ?equals@ScientificPrecision@icu_58@@QEBACAEBV12@@Z @1762
    ?equals@SignificantDigitInterval@icu_58@@QEBACAEBV12@@Z @1763
    ?error@RegexCompile@icu_58@@AEAAXW4UErrorCode@@@Z @1764
    ?estimateDigitCount@SmallIntFormatter@icu_58@@SAHHAEBVIntDigitCountRange@2@@Z @1765
    ?expandOffsetPattern@TimeZoneFormat@icu_58@@CAAEAVUnicodeString@2@AEBV32@AEAV32@AEAW4UErrorCode@@@Z @1766
    ?expandToContain@DigitInterval@icu_58@@QEAAXAEBV12@@Z @1767
    ?expandToContainDigit@DigitInterval@icu_58@@QEAAXH@Z @1768
    ?fallbackFormat@DateIntervalFormat@icu_58@@AEBAAEAVUnicodeString@2@AEAVCalendar@2@0CAEAV32@AEAVFieldPosition@2@AEAW4UErrorCode@@@Z @1769
    ?fetchCEs@CollationIterator@icu_58@@QEAAHAEAW4UErrorCode@@@Z @1770
    ?fgCalendarFieldToLevel@SimpleDateFormat@icu_58@@0QBHB @1771
    ?fgCalendarFieldToPatternLetter@DateIntervalFormat@icu_58@@0QB_WB @1772
    ?fgNumberPatterns@DecimalFormat@icu_58@@2QBDB @1773
    ?fgPatternIndexToCalendarField@SimpleDateFormat@icu_58@@0QBW4UCalendarDateFields@@B @1774
    ?fgPatternIndexToDateFormatField@SimpleDateFormat@icu_58@@0QBW4UDateFormatField@@B @1775
    ?fieldDifference@Calendar@icu_58@@UEAAHNW4EDateFields@12@AEAW4UErrorCode@@@Z @1776
    ?fieldDifference@Calendar@icu_58@@UEAAHNW4UCalendarDateFields@@AEAW4UErrorCode@@@Z @1777
    ?fieldExistsInSkeleton@DateIntervalFormat@icu_58@@CACW4UCalendarDateFields@@AEBVUnicodeString@2@@Z @1778
    ?filteredTransliterate@Transliterator@icu_58@@EEBAXAEAVReplaceable@2@AEAUUTransPosition@@CC@Z @1779
    ?filteredTransliterate@Transliterator@icu_58@@UEBAXAEAVReplaceable@2@AEAUUTransPosition@@C@Z @1780
    ?finalizeCEs@CollationBuilder@icu_58@@AEAAXAEAW4UErrorCode@@@Z @1781
    ?find@RegexMatcher@icu_58@@UEAACAEAW4UErrorCode@@@Z @1782
    ?find@RegexMatcher@icu_58@@UEAACXZ @1783
    ?find@RegexMatcher@icu_58@@UEAAC_JAEAW4UErrorCode@@@Z @1784
    ?findBestMatch@TimeZoneGenericNames@icu_58@@QEBAHAEBVUnicodeString@2@HIAEAV32@AEAW4UTimeZoneFormatTimeType@@AEAW4UErrorCode@@@Z @1785
    ?findCaseInsensitiveStarters@RegexCompile@icu_58@@SAXHPEAVUnicodeSet@2@@Z @1786
    ?findCommonNode@CollationBuilder@icu_58@@AEBAHHH@Z @1787
    ?findFirstPluralNumberArg@MessageFormat@icu_58@@AEBAHHAEBVUnicodeString@2@@Z @1788
    ?findID@TimeZone@icu_58@@CAPEB_WAEBVUnicodeString@2@@Z @1789
    ?findKeyword@MessageFormat@icu_58@@CAHAEBVUnicodeString@2@PEBQEB_W@Z @1790
    ?findMetaZoneID@ZoneMeta@icu_58@@SAPEB_WAEBVUnicodeString@2@@Z @1791
    ?findNext@RuleBasedTimeZone@icu_58@@AEBACNCAEANAEAPEAVTimeZoneRule@2@1@Z @1792
    ?findOrInsertNodeForCEs@CollationBuilder@icu_58@@AEAAHHAEAPEBDAEAW4UErrorCode@@@Z @1793
    ?findOrInsertNodeForPrimary@CollationBuilder@icu_58@@AEAAHIAEAW4UErrorCode@@@Z @1794
    ?findOrInsertNodeForRootCE@CollationBuilder@icu_58@@AEAAH_JHAEAW4UErrorCode@@@Z @1795
    ?findOrInsertWeakNode@CollationBuilder@icu_58@@AEAAHHIHAEAW4UErrorCode@@@Z @1796
    ?findOtherSubMessage@MessageFormat@icu_58@@AEBAHH@Z @1797
    ?findP@CollationRootElements@icu_58@@AEBAHI@Z @1798
    ?findPrev@RuleBasedTimeZone@icu_58@@AEBACNCAEANAEAPEAVTimeZoneRule@2@1@Z @1799
    ?findPrimary@CollationRootElements@icu_58@@QEBAHI@Z @1800
    ?findProgressInterrupt@RegexMatcher@icu_58@@AEAAC_JAEAW4UErrorCode@@@Z @1801
    ?findRuleInFinal@RuleBasedTimeZone@icu_58@@AEBAPEAVTimeZoneRule@2@NCHH@Z @1802
    ?findRuleSet@RuleBasedNumberFormat@icu_58@@AEBAPEAVNFRuleSet@2@AEBVUnicodeString@2@AEAW4UErrorCode@@@Z @1803
    ?findSubMessage@ChoiceFormat@icu_58@@CAHAEBVMessagePattern@2@HN@Z @1804
    ?findSubMessage@PluralFormat@icu_58@@CAHAEBVMessagePattern@2@HAEBVPluralSelector@12@PEAXNAEAW4UErrorCode@@@Z @1805
    ?findSubMessage@SelectFormat@icu_58@@CAHAEBVMessagePattern@2@HAEBVUnicodeString@2@AEAW4UErrorCode@@@Z @1806
    ?findTimeZoneID@ZoneMeta@icu_58@@SAPEB_WAEBVUnicodeString@2@@Z @1807
    ?findUsingChunk@RegexMatcher@icu_58@@AEAACAEAW4UErrorCode@@@Z @1808
    ?finishTransliteration@Transliterator@icu_58@@UEBAXAEAVReplaceable@2@AEAUUTransPosition@@@Z @1809
    ?first@SearchIterator@icu_58@@QEAAHAEAW4UErrorCode@@@Z @1810
    ?firstCEWithPrimaryAtLeast@CollationRootElements@icu_58@@QEBA_JI@Z @1811
    ?firstStringsInScript@AlphabeticIndex@icu_58@@AEAAPEAVUVector@2@AEAW4UErrorCode@@@Z @1812
    ?fitsIntoInt64@DigitList@icu_58@@QEAACC@Z @1813
    ?fitsIntoLong@DigitList@icu_58@@QEAACC@Z @1814
    ?fixLiterals@RegexCompile@icu_58@@AEAAXC@Z @1815
    ?flag@?$EnumSet@W4UDateFormatBooleanAttribute@@$0A@$03@icu_58@@AEBAIW4UDateFormatBooleanAttribute@@@Z @1816
    ?flag@?$EnumSet@W4UNumberFormatAttribute@@$0BAAA@$0BAAD@@icu_58@@AEBAIW4UNumberFormatAttribute@@@Z @1817
    ?flags@RegexPattern@icu_58@@UEBAIXZ @1818
    ?following@SearchIterator@icu_58@@QEAAHHAEAW4UErrorCode@@@Z @1819
    ?forData@CollationFastLatinBuilder@icu_58@@QEAACAEBUCollationData@2@AEAW4UErrorCode@@@Z @1820
    ?forLocale@PluralRules@icu_58@@SAPEAV12@AEBVLocale@2@AEAW4UErrorCode@@@Z @1821
    ?forLocale@PluralRules@icu_58@@SAPEAV12@AEBVLocale@2@W4UPluralType@@AEAW4UErrorCode@@@Z @1822
    ?forbidSurrogateCodePoints@CollationIterator@icu_58@@MEBACXZ @1823
    ?forbidSurrogateCodePoints@UTF8CollationIterator@icu_58@@MEBACXZ @1824
    ?format@ChoiceFormat@icu_58@@UEBAAEAVUnicodeString@2@HAEAV32@AEAVFieldPosition@2@@Z @1825
    ?format@ChoiceFormat@icu_58@@UEBAAEAVUnicodeString@2@NAEAV32@AEAVFieldPosition@2@@Z @1826
    ?format@ChoiceFormat@icu_58@@UEBAAEAVUnicodeString@2@PEBVFormattable@2@HAEAV32@AEAVFieldPosition@2@AEAW4UErrorCode@@@Z @1827
    ?format@ChoiceFormat@icu_58@@UEBAAEAVUnicodeString@2@_JAEAV32@AEAVFieldPosition@2@@Z @1828
    ?format@CompactDecimalFormat@icu_58@@UEBAAEAVUnicodeString@2@AEBVDigitList@2@AEAV32@AEAVFieldPosition@2@AEAW4UErrorCode@@@Z @1829
    ?format@CompactDecimalFormat@icu_58@@UEBAAEAVUnicodeString@2@AEBVDigitList@2@AEAV32@PEAVFieldPositionIterator@2@AEAW4UErrorCode@@@Z @1830
    ?format@CompactDecimalFormat@icu_58@@UEBAAEAVUnicodeString@2@HAEAV32@AEAVFieldPosition@2@@Z @1831
    ?format@CompactDecimalFormat@icu_58@@UEBAAEAVUnicodeString@2@HAEAV32@AEAVFieldPosition@2@AEAW4UErrorCode@@@Z @1832
    ?format@CompactDecimalFormat@icu_58@@UEBAAEAVUnicodeString@2@HAEAV32@PEAVFieldPositionIterator@2@AEAW4UErrorCode@@@Z @1833
    ?format@CompactDecimalFormat@icu_58@@UEBAAEAVUnicodeString@2@NAEAV32@AEAVFieldPosition@2@@Z @1834
    ?format@CompactDecimalFormat@icu_58@@UEBAAEAVUnicodeString@2@NAEAV32@AEAVFieldPosition@2@AEAW4UErrorCode@@@Z @1835
    ?format@CompactDecimalFormat@icu_58@@UEBAAEAVUnicodeString@2@NAEAV32@PEAVFieldPositionIterator@2@AEAW4UErrorCode@@@Z @1836
    ?format@CompactDecimalFormat@icu_58@@UEBAAEAVUnicodeString@2@VStringPiece@2@AEAV32@PEAVFieldPositionIterator@2@AEAW4UErrorCode@@@Z @1837
    ?format@CompactDecimalFormat@icu_58@@UEBAAEAVUnicodeString@2@_JAEAV32@AEAVFieldPosition@2@@Z @1838
    ?format@CompactDecimalFormat@icu_58@@UEBAAEAVUnicodeString@2@_JAEAV32@AEAVFieldPosition@2@AEAW4UErrorCode@@@Z @1839
    ?format@CompactDecimalFormat@icu_58@@UEBAAEAVUnicodeString@2@_JAEAV32@PEAVFieldPositionIterator@2@AEAW4UErrorCode@@@Z @1840
    ?format@DateFormat@icu_58@@QEBAAEAVUnicodeString@2@NAEAV32@@Z @1841
    ?format@DateFormat@icu_58@@QEBAAEAVUnicodeString@2@NAEAV32@AEAVFieldPosition@2@@Z @1842
    ?format@DateFormat@icu_58@@QEBAAEAVUnicodeString@2@NAEAV32@PEAVFieldPositionIterator@2@AEAW4UErrorCode@@@Z @1843
    ?format@DateFormat@icu_58@@UEBAAEAVUnicodeString@2@AEAVCalendar@2@AEAV32@PEAVFieldPositionIterator@2@AEAW4UErrorCode@@@Z @1844
    ?format@DateFormat@icu_58@@UEBAAEAVUnicodeString@2@AEBVFormattable@2@AEAV32@AEAVFieldPosition@2@AEAW4UErrorCode@@@Z @1845
    ?format@DateFormat@icu_58@@UEBAAEAVUnicodeString@2@AEBVFormattable@2@AEAV32@PEAVFieldPositionIterator@2@AEAW4UErrorCode@@@Z @1846
    ?format@DateIntervalFormat@icu_58@@QEBAAEAVUnicodeString@2@AEAVCalendar@2@0AEAV32@AEAVFieldPosition@2@AEAW4UErrorCode@@@Z @1847
    ?format@DateIntervalFormat@icu_58@@QEBAAEAVUnicodeString@2@PEBVDateInterval@2@AEAV32@AEAVFieldPosition@2@AEAW4UErrorCode@@@Z @1848
    ?format@DateIntervalFormat@icu_58@@UEBAAEAVUnicodeString@2@AEBVFormattable@2@AEAV32@AEAVFieldPosition@2@AEAW4UErrorCode@@@Z @1849
    ?format@DecimalFormat@icu_58@@UEBAAEAVUnicodeString@2@AEBVDigitList@2@AEAV32@AEAVFieldPosition@2@AEAW4UErrorCode@@@Z @1850
    ?format@DecimalFormat@icu_58@@UEBAAEAVUnicodeString@2@AEBVDigitList@2@AEAV32@PEAVFieldPositionIterator@2@AEAW4UErrorCode@@@Z @1851
    ?format@DecimalFormat@icu_58@@UEBAAEAVUnicodeString@2@AEBVVisibleDigitsWithExponent@2@AEAV32@AEAVFieldPosition@2@AEAW4UErrorCode@@@Z @1852
    ?format@DecimalFormat@icu_58@@UEBAAEAVUnicodeString@2@AEBVVisibleDigitsWithExponent@2@AEAV32@PEAVFieldPositionIterator@2@AEAW4UErrorCode@@@Z @1853
    ?format@DecimalFormat@icu_58@@UEBAAEAVUnicodeString@2@HAEAV32@AEAVFieldPosition@2@@Z @1854
    ?format@DecimalFormat@icu_58@@UEBAAEAVUnicodeString@2@HAEAV32@AEAVFieldPosition@2@AEAW4UErrorCode@@@Z @1855
    ?format@DecimalFormat@icu_58@@UEBAAEAVUnicodeString@2@HAEAV32@PEAVFieldPositionIterator@2@AEAW4UErrorCode@@@Z @1856
    ?format@DecimalFormat@icu_58@@UEBAAEAVUnicodeString@2@NAEAV32@AEAVFieldPosition@2@@Z @1857
    ?format@DecimalFormat@icu_58@@UEBAAEAVUnicodeString@2@NAEAV32@AEAVFieldPosition@2@AEAW4UErrorCode@@@Z @1858
    ?format@DecimalFormat@icu_58@@UEBAAEAVUnicodeString@2@NAEAV32@PEAVFieldPositionIterator@2@AEAW4UErrorCode@@@Z @1859
    ?format@DecimalFormat@icu_58@@UEBAAEAVUnicodeString@2@VStringPiece@2@AEAV32@PEAVFieldPositionIterator@2@AEAW4UErrorCode@@@Z @1860
    ?format@DecimalFormat@icu_58@@UEBAAEAVUnicodeString@2@_JAEAV32@AEAVFieldPosition@2@@Z @1861
    ?format@DecimalFormat@icu_58@@UEBAAEAVUnicodeString@2@_JAEAV32@AEAVFieldPosition@2@AEAW4UErrorCode@@@Z @1862
    ?format@DecimalFormat@icu_58@@UEBAAEAVUnicodeString@2@_JAEAV32@PEAVFieldPositionIterator@2@AEAW4UErrorCode@@@Z @1863
    ?format@DigitAffix@icu_58@@QEBAAEAVUnicodeString@2@AEAVFieldPositionHandler@2@AEAV32@@Z @1864
    ?format@DigitAffixesAndPadding@icu_58@@QEBAAEAVUnicodeString@2@AEAVDigitList@2@AEBVValueFormatter@2@AEAVFieldPositionHandler@2@PEBVPluralRules@2@AEAV32@AEAW4UErrorCode@@@Z @1865
    ?format@DigitAffixesAndPadding@icu_58@@QEBAAEAVUnicodeString@2@AEBVVisibleDigitsWithExponent@2@AEBVValueFormatter@2@AEAVFieldPositionHandler@2@PEBVPluralRules@2@AEAV32@AEAW4UErrorCode@@@Z @1866
    ?format@DigitFormatter@icu_58@@QEBAAEAVUnicodeString@2@AEBVVisibleDigits@2@AEBVDigitGrouping@2@AEBVDigitFormatterOptions@2@AEAVFieldPositionHandler@2@AEAV32@@Z @1867
    ?format@DigitFormatter@icu_58@@QEBAAEAVUnicodeString@2@AEBVVisibleDigitsWithExponent@2@AEBVSciFormatterOptions@2@AEAVFieldPositionHandler@2@AEAV32@@Z @1868
    ?format@DummyFormat@MessageFormat@icu_58@@UEBAAEAVUnicodeString@3@AEBVFormattable@3@AEAV43@AEAVFieldPosition@3@AEAW4UErrorCode@@@Z @1869
    ?format@DummyFormat@MessageFormat@icu_58@@UEBAAEAVUnicodeString@3@AEBVFormattable@3@AEAV43@AEAW4UErrorCode@@@Z @1870
    ?format@DummyFormat@MessageFormat@icu_58@@UEBAAEAVUnicodeString@3@AEBVFormattable@3@AEAV43@PEAVFieldPositionIterator@3@AEAW4UErrorCode@@@Z @1871
    ?format@Format@icu_58@@QEBAAEAVUnicodeString@2@AEBVFormattable@2@AEAV32@AEAW4UErrorCode@@@Z @1872
    ?format@Format@icu_58@@UEBAAEAVUnicodeString@2@AEBVFormattable@2@AEAV32@PEAVFieldPositionIterator@2@AEAW4UErrorCode@@@Z @1873
    ?format@MarkupStyle@ScientificNumberFormatter@icu_58@@MEBAAEAVUnicodeString@3@AEBV43@AEAVFieldPositionIterator@3@0AEBVDecimalFormatStaticSets@3@AEAV43@AEAW4UErrorCode@@@Z @1874
    ?format@MeasureFormat@icu_58@@UEBAAEAVUnicodeString@2@AEBVFormattable@2@AEAV32@AEAVFieldPosition@2@AEAW4UErrorCode@@@Z @1875
    ?format@MessageFormat@icu_58@@AEBAAEAVUnicodeString@2@PEBVFormattable@2@PEBV32@HAEAV32@PEAVFieldPosition@2@AEAW4UErrorCode@@@Z @1876
    ?format@MessageFormat@icu_58@@AEBAXHPEBXPEBVFormattable@2@PEBVUnicodeString@2@HAEAVAppendableWrapper@2@PEAVFieldPosition@2@AEAW4UErrorCode@@@Z @1877
    ?format@MessageFormat@icu_58@@QEBAAEAVUnicodeString@2@PEBV32@PEBVFormattable@2@HAEAV32@AEAW4UErrorCode@@@Z @1878
    ?format@MessageFormat@icu_58@@QEBAAEAVUnicodeString@2@PEBVFormattable@2@HAEAV32@AEAVFieldPosition@2@AEAW4UErrorCode@@@Z @1879
    ?format@MessageFormat@icu_58@@SAAEAVUnicodeString@2@AEBV32@PEBVFormattable@2@HAEAV32@AEAW4UErrorCode@@@Z @1880
    ?format@MessageFormat@icu_58@@UEBAAEAVUnicodeString@2@AEBVFormattable@2@AEAV32@AEAVFieldPosition@2@AEAW4UErrorCode@@@Z @1881
    ?format@NumberFormat@icu_58@@QEBAAEAVUnicodeString@2@HAEAV32@@Z @1882
    ?format@NumberFormat@icu_58@@QEBAAEAVUnicodeString@2@NAEAV32@@Z @1883
    ?format@NumberFormat@icu_58@@QEBAAEAVUnicodeString@2@_JAEAV32@@Z @1884
    ?format@NumberFormat@icu_58@@UEBAAEAVUnicodeString@2@AEBVDigitList@2@AEAV32@AEAVFieldPosition@2@AEAW4UErrorCode@@@Z @1885
    ?format@NumberFormat@icu_58@@UEBAAEAVUnicodeString@2@AEBVDigitList@2@AEAV32@PEAVFieldPositionIterator@2@AEAW4UErrorCode@@@Z @1886
    ?format@NumberFormat@icu_58@@UEBAAEAVUnicodeString@2@AEBVFormattable@2@AEAV32@AEAVFieldPosition@2@AEAW4UErrorCode@@@Z @1887
    ?format@NumberFormat@icu_58@@UEBAAEAVUnicodeString@2@AEBVFormattable@2@AEAV32@PEAVFieldPositionIterator@2@AEAW4UErrorCode@@@Z @1888
    ?format@NumberFormat@icu_58@@UEBAAEAVUnicodeString@2@HAEAV32@AEAVFieldPosition@2@AEAW4UErrorCode@@@Z @1889
    ?format@NumberFormat@icu_58@@UEBAAEAVUnicodeString@2@HAEAV32@PEAVFieldPositionIterator@2@AEAW4UErrorCode@@@Z @1890
    ?format@NumberFormat@icu_58@@UEBAAEAVUnicodeString@2@NAEAV32@AEAVFieldPosition@2@AEAW4UErrorCode@@@Z @1891
    ?format@NumberFormat@icu_58@@UEBAAEAVUnicodeString@2@NAEAV32@PEAVFieldPositionIterator@2@AEAW4UErrorCode@@@Z @1892
    ?format@NumberFormat@icu_58@@UEBAAEAVUnicodeString@2@VStringPiece@2@AEAV32@PEAVFieldPositionIterator@2@AEAW4UErrorCode@@@Z @1893
    ?format@NumberFormat@icu_58@@UEBAAEAVUnicodeString@2@_JAEAV32@AEAVFieldPosition@2@@Z @1894
    ?format@NumberFormat@icu_58@@UEBAAEAVUnicodeString@2@_JAEAV32@AEAVFieldPosition@2@AEAW4UErrorCode@@@Z @1895
    ?format@NumberFormat@icu_58@@UEBAAEAVUnicodeString@2@_JAEAV32@PEAVFieldPositionIterator@2@AEAW4UErrorCode@@@Z @1896
    ?format@PluralFormat@icu_58@@AEBAAEAVUnicodeString@2@AEBVFormattable@2@NAEAV32@AEAVFieldPosition@2@AEAW4UErrorCode@@@Z @1897
    ?format@PluralFormat@icu_58@@QEBA?AVUnicodeString@2@HAEAW4UErrorCode@@@Z @1898
    ?format@PluralFormat@icu_58@@QEBA?AVUnicodeString@2@NAEAW4UErrorCode@@@Z @1899
    ?format@PluralFormat@icu_58@@QEBAAEAVUnicodeString@2@HAEAV32@AEAVFieldPosition@2@AEAW4UErrorCode@@@Z @1900
    ?format@PluralFormat@icu_58@@QEBAAEAVUnicodeString@2@NAEAV32@AEAVFieldPosition@2@AEAW4UErrorCode@@@Z @1901
    ?format@PluralFormat@icu_58@@UEBAAEAVUnicodeString@2@AEBVFormattable@2@AEAV32@AEAVFieldPosition@2@AEAW4UErrorCode@@@Z @1902
    ?format@QuantityFormatter@icu_58@@QEBAAEAVUnicodeString@2@AEBVFormattable@2@AEBVNumberFormat@2@AEBVPluralRules@2@AEAV32@AEAVFieldPosition@2@AEAW4UErrorCode@@@Z @1903
    ?format@QuantityFormatter@icu_58@@SAAEAVUnicodeString@2@AEBVSimpleFormatter@2@AEBV32@AEAV32@AEAVFieldPosition@2@AEAW4UErrorCode@@@Z @1904
    ?format@RelativeDateTimeFormatter@icu_58@@QEBAAEAVUnicodeString@2@NW4UDateDirection@@W4UDateRelativeUnit@@AEAV32@AEAW4UErrorCode@@@Z @1905
    ?format@RelativeDateTimeFormatter@icu_58@@QEBAAEAVUnicodeString@2@NW4URelativeDateTimeUnit@@AEAV32@AEAW4UErrorCode@@@Z @1906
    ?format@RelativeDateTimeFormatter@icu_58@@QEBAAEAVUnicodeString@2@W4UDateDirection@@W4UDateAbsoluteUnit@@AEAV32@AEAW4UErrorCode@@@Z @1907
    ?format@RuleBasedNumberFormat@icu_58@@UEBAAEAVUnicodeString@2@HAEAV32@AEAVFieldPosition@2@@Z @1908
    ?format@RuleBasedNumberFormat@icu_58@@UEBAAEAVUnicodeString@2@HAEBV32@AEAV32@AEAVFieldPosition@2@AEAW4UErrorCode@@@Z @1909
    ?format@RuleBasedNumberFormat@icu_58@@UEBAAEAVUnicodeString@2@NAEAV32@AEAVFieldPosition@2@@Z @1910
    ?format@RuleBasedNumberFormat@icu_58@@UEBAAEAVUnicodeString@2@NAEBV32@AEAV32@AEAVFieldPosition@2@AEAW4UErrorCode@@@Z @1911
    ?format@RuleBasedNumberFormat@icu_58@@UEBAAEAVUnicodeString@2@_JAEAV32@AEAVFieldPosition@2@@Z @1912
    ?format@RuleBasedNumberFormat@icu_58@@UEBAAEAVUnicodeString@2@_JAEBV32@AEAV32@AEAVFieldPosition@2@AEAW4UErrorCode@@@Z @1913
    ?format@ScientificNumberFormatter@icu_58@@QEBAAEAVUnicodeString@2@AEBVFormattable@2@AEAV32@AEAW4UErrorCode@@@Z @1914
    ?format@SelectFormat@icu_58@@QEBAAEAVUnicodeString@2@AEBV32@AEAV32@AEAVFieldPosition@2@AEAW4UErrorCode@@@Z @1915
    ?format@SelectFormat@icu_58@@UEBAAEAVUnicodeString@2@AEBVFormattable@2@AEAV32@AEAVFieldPosition@2@AEAW4UErrorCode@@@Z @1916
    ?format@SimpleDateFormat@icu_58@@UEBAAEAVUnicodeString@2@AEAVCalendar@2@AEAV32@AEAVFieldPosition@2@@Z @1917
    ?format@SimpleDateFormat@icu_58@@UEBAAEAVUnicodeString@2@AEAVCalendar@2@AEAV32@PEAVFieldPositionIterator@2@AEAW4UErrorCode@@@Z @1918
    ?format@SmallIntFormatter@icu_58@@SAAEAVUnicodeString@2@HAEBVIntDigitCountRange@2@AEAV32@@Z @1919
    ?format@SuperscriptStyle@ScientificNumberFormatter@icu_58@@MEBAAEAVUnicodeString@3@AEBV43@AEAVFieldPositionIterator@3@0AEBVDecimalFormatStaticSets@3@AEAV43@AEAW4UErrorCode@@@Z @1920
    ?format@TimeZoneFormat@icu_58@@UEBAAEAVUnicodeString@2@AEBVFormattable@2@AEAV32@AEAVFieldPosition@2@AEAW4UErrorCode@@@Z @1921
    ?format@TimeZoneFormat@icu_58@@UEBAAEAVUnicodeString@2@W4UTimeZoneFormatStyle@@AEBVTimeZone@2@NAEAV32@PEAW4UTimeZoneFormatTimeType@@@Z @1922
    ?format@ValueFormatter@icu_58@@QEBAAEAVUnicodeString@2@AEBVVisibleDigitsWithExponent@2@AEAVFieldPositionHandler@2@AEAV32@@Z @1923
    ?formatComplexSubMessage@MessageFormat@icu_58@@AEBAXHPEBXPEBVFormattable@2@PEBVUnicodeString@2@HAEAVAppendableWrapper@2@AEAW4UErrorCode@@@Z @1924
    ?formatCustomID@TimeZone@icu_58@@CAAEAVUnicodeString@2@HHHCAEAV32@@Z @1925
    ?formatCustomID@ZoneMeta@icu_58@@CAAEAVUnicodeString@2@EEECAEAV32@@Z @1926
    ?formatDigits@DigitFormatter@icu_58@@AEBAAEAVUnicodeString@2@PEBEHAEBVIntDigitCountRange@2@HAEAVFieldPositionHandler@2@AEAV32@@Z @1927
    ?formatExemplarLocation@TimeZoneFormat@icu_58@@AEBAAEAVUnicodeString@2@AEBVTimeZone@2@AEAV32@@Z @1928
    ?formatExponent@DigitFormatter@icu_58@@AEBAAEAVUnicodeString@2@AEBVVisibleDigits@2@AEBVDigitFormatterIntOptions@2@HHAEAVFieldPositionHandler@2@AEAV32@@Z @1929
    ?formatGeneric@TimeZoneFormat@icu_58@@AEBAAEAVUnicodeString@2@AEBVTimeZone@2@HNAEAV32@@Z @1930
    ?formatImpl@DateIntervalFormat@icu_58@@AEBAAEAVUnicodeString@2@AEAVCalendar@2@0AEAV32@AEAVFieldPosition@2@AEAW4UErrorCode@@@Z @1931
    ?formatInfinity@DigitFormatter@icu_58@@AEBAAEAVUnicodeString@2@AEAVFieldPositionHandler@2@AEAV32@@Z @1932
    ?formatInt32@DigitAffixesAndPadding@icu_58@@QEBAAEAVUnicodeString@2@HAEBVValueFormatter@2@AEAVFieldPositionHandler@2@PEBVPluralRules@2@AEAV32@AEAW4UErrorCode@@@Z @1933
    ?formatInt32@ValueFormatter@icu_58@@QEBAAEAVUnicodeString@2@HAEAVFieldPositionHandler@2@AEAV32@@Z @1934
    ?formatMeasure@MeasureFormat@icu_58@@AEBAAEAVUnicodeString@2@AEBVMeasure@2@AEBVNumberFormat@2@AEAV32@AEAVFieldPosition@2@AEAW4UErrorCode@@@Z @1935
    ?formatMeasurePerUnit@MeasureFormat@icu_58@@QEBAAEAVUnicodeString@2@AEBVMeasure@2@AEBVMeasureUnit@2@AEAV32@AEAVFieldPosition@2@AEAW4UErrorCode@@@Z @1936
    ?formatMeasures@MeasureFormat@icu_58@@QEBAAEAVUnicodeString@2@PEBVMeasure@2@HAEAV32@AEAVFieldPosition@2@AEAW4UErrorCode@@@Z @1937
    ?formatMeasuresSlowTrack@MeasureFormat@icu_58@@AEBAAEAVUnicodeString@2@PEBVMeasure@2@HAEAV32@AEAVFieldPosition@2@AEAW4UErrorCode@@@Z @1938
    ?formatNaN@DigitFormatter@icu_58@@AEBAAEAVUnicodeString@2@AEAVFieldPositionHandler@2@AEAV32@@Z @1939
    ?formatNumeric@MeasureFormat@icu_58@@AEBAAEAVUnicodeString@2@NAEBVDateFormat@2@W4UDateFormatField@@AEBVFormattable@2@AEAV32@AEAW4UErrorCode@@@Z @1940
    ?formatNumeric@MeasureFormat@icu_58@@AEBAAEAVUnicodeString@2@PEBVFormattable@2@HAEAV32@AEAW4UErrorCode@@@Z @1941
    ?formatNumeric@RelativeDateTimeFormatter@icu_58@@QEBAAEAVUnicodeString@2@NW4URelativeDateTimeUnit@@AEAV32@AEAW4UErrorCode@@@Z @1942
    ?formatOffsetISO8601@TimeZoneFormat@icu_58@@AEBAAEAVUnicodeString@2@HCCCCAEAV32@AEAW4UErrorCode@@@Z @1943
    ?formatOffsetISO8601Basic@TimeZoneFormat@icu_58@@QEBAAEAVUnicodeString@2@HCCCAEAV32@AEAW4UErrorCode@@@Z @1944
    ?formatOffsetISO8601Extended@TimeZoneFormat@icu_58@@QEBAAEAVUnicodeString@2@HCCCAEAV32@AEAW4UErrorCode@@@Z @1945
    ?formatOffsetLocalizedGMT@TimeZoneFormat@icu_58@@AEBAAEAVUnicodeString@2@HCAEAV32@AEAW4UErrorCode@@@Z @1946
    ?formatOffsetLocalizedGMT@TimeZoneFormat@icu_58@@QEBAAEAVUnicodeString@2@HAEAV32@AEAW4UErrorCode@@@Z @1947
    ?formatOffsetShortLocalizedGMT@TimeZoneFormat@icu_58@@QEBAAEAVUnicodeString@2@HAEAV32@AEAW4UErrorCode@@@Z @1948
    ?formatOffsetWithAsciiDigits@TimeZoneFormat@icu_58@@CAAEAVUnicodeString@2@H_WW4OffsetFields@12@1AEAV32@@Z @1949
    ?formatPositiveInt32@DigitFormatter@icu_58@@QEBAAEAVUnicodeString@2@HAEBVIntDigitCountRange@2@AEAVFieldPositionHandler@2@AEAV32@@Z @1950
    ?formatSpecific@TimeZoneFormat@icu_58@@AEBAAEAVUnicodeString@2@AEBVTimeZone@2@W4UTimeZoneNameType@@1NAEAV32@PEAW4UTimeZoneFormatTimeType@@@Z @1951
    ?forwardNumCodePoints@FCDUIterCollationIterator@icu_58@@MEAAXHAEAW4UErrorCode@@@Z @1952
    ?forwardNumCodePoints@FCDUTF16CollationIterator@icu_58@@MEAAXHAEAW4UErrorCode@@@Z @1953
    ?forwardNumCodePoints@FCDUTF8CollationIterator@icu_58@@MEAAXHAEAW4UErrorCode@@@Z @1954
    ?forwardNumCodePoints@UIterCollationIterator@icu_58@@MEAAXHAEAW4UErrorCode@@@Z @1955
    ?forwardNumCodePoints@UTF16CollationIterator@icu_58@@MEAAXHAEAW4UErrorCode@@@Z @1956
    ?forwardNumCodePoints@UTF8CollationIterator@icu_58@@MEAAXHAEAW4UErrorCode@@@Z @1957
    ?foundNULTerminator@CollationIterator@icu_58@@MEAACXZ @1958
    ?foundNULTerminator@FCDUTF16CollationIterator@icu_58@@MEAACXZ @1959
    ?foundNULTerminator@FCDUTF8CollationIterator@icu_58@@MEAACXZ @1960
    ?foundNULTerminator@UTF16CollationIterator@icu_58@@MEAACXZ @1961
    ?foundNULTerminator@UTF8CollationIterator@icu_58@@MEAACXZ @1962
    ?freeTransliterators@CompoundTransliterator@icu_58@@AEAAXXZ @1963
    ?freeze@ZNStringPool@icu_58@@QEAAXXZ @1964
    ?fromString@StandardPlural@icu_58@@SA?AW4Form@12@AEBVUnicodeString@2@AEAW4UErrorCode@@@Z @1965
    ?fromString@StandardPlural@icu_58@@SA?AW4Form@12@PEBDAEAW4UErrorCode@@@Z @1966
    ?fromUCollationElements@CollationElementIterator@icu_58@@SAPEAV12@PEAUUCollationElements@@@Z @1967
    ?fromUCollationElements@CollationElementIterator@icu_58@@SAPEBV12@PEBUUCollationElements@@@Z @1968
    ?fromUCollator@Collator@icu_58@@SAPEAV12@PEAUUCollator@@@Z @1969
    ?fromUCollator@Collator@icu_58@@SAPEBV12@PEBUUCollator@@@Z @1970
    ?fromUFormattable@Formattable@icu_58@@SAPEAV12@PEAPEAX@Z @1971
    ?fromUFormattable@Formattable@icu_58@@SAPEBV12@PEBQEAX@Z @1972
    ?gDefaultMaxIntegerDigits@NumberFormat@icu_58@@1HB @1973
    ?gDefaultMinIntegerDigits@NumberFormat@icu_58@@1HB @1974
    ?get2DigitYearStart@SimpleDateFormat@icu_58@@QEBANAEAW4UErrorCode@@@Z @1975
    ?get@?$EnumSet@W4UDateFormatBooleanAttribute@@$0A@$03@icu_58@@QEBAHW4UDateFormatBooleanAttribute@@@Z @1976
    ?get@?$EnumSet@W4UNumberFormatAttribute@@$0BAAA@$0BAAD@@icu_58@@QEBAHW4UNumberFormatAttribute@@@Z @1977
    ?get@?$PluralMap@VDigitAffix@icu_58@@@icu_58@@QEBAAEBVDigitAffix@2@AEBVUnicodeString@2@@Z @1978
    ?get@?$PluralMap@VDigitAffix@icu_58@@@icu_58@@QEBAAEBVDigitAffix@2@PEBD@Z @1979
    ?get@?$PluralMap@VDigitAffix@icu_58@@@icu_58@@QEBAAEBVDigitAffix@2@W4Category@PluralMapBase@2@@Z @1980
    ?get@Calendar@icu_58@@QEBAHW4UCalendarDateFields@@AEAW4UErrorCode@@@Z @1981
    ?get@FixedDecimal@icu_58@@QEBANW4tokenType@2@@Z @1982
    ?get@SharedBreakIterator@icu_58@@QEBAPEAVBreakIterator@2@XZ @1983
    ?get@SharedCalendar@icu_58@@QEBAPEBVCalendar@2@XZ @1984
    ?get@SharedDateFormatSymbols@icu_58@@QEBAAEBVDateFormatSymbols@2@XZ @1985
    ?get@SharedNumberFormat@icu_58@@QEBAPEBVNumberFormat@2@XZ @1986
    ?get@ZNStringPool@icu_58@@QEAAPEB_WAEBVUnicodeString@2@AEAW4UErrorCode@@@Z @1987
    ?get@ZNStringPool@icu_58@@QEAAPEB_WPEB_WAEAW4UErrorCode@@@Z @1988
    ?getActualHelper@Calendar@icu_58@@AEBAHW4UCalendarDateFields@@HHAEAW4UErrorCode@@@Z @1989
    ?getActualMaximum@Calendar@icu_58@@UEBAHW4UCalendarDateFields@@AEAW4UErrorCode@@@Z @1990
    ?getActualMaximum@GregorianCalendar@icu_58@@UEBAHW4UCalendarDateFields@@AEAW4UErrorCode@@@Z @1991
    ?getActualMinimum@Calendar@icu_58@@QEBAHW4EDateFields@12@AEAW4UErrorCode@@@Z @1992
    ?getActualMinimum@Calendar@icu_58@@UEBAHW4UCalendarDateFields@@AEAW4UErrorCode@@@Z @1993
    ?getActualMinimum@GregorianCalendar@icu_58@@QEBAHW4EDateFields@Calendar@2@@Z @1994
    ?getActualMinimum@GregorianCalendar@icu_58@@QEBAHW4EDateFields@Calendar@2@AEAW4UErrorCode@@@Z @1995
    ?getActualMinimum@GregorianCalendar@icu_58@@UEBAHW4UCalendarDateFields@@AEAW4UErrorCode@@@Z @1996
    ?getAlias@?$MaybeStackHeaderAndArray@UdecNumber@@D$0CI@@icu_58@@QEBAPEAUdecNumber@@XZ @1997
    ?getAll@?$EnumSet@W4UDateFormatBooleanAttribute@@$0A@$03@icu_58@@QEBAIXZ @1998
    ?getAll@?$EnumSet@W4UNumberFormatAttribute@@$0BAAA@$0BAAD@@icu_58@@QEBAIXZ @1999
    ?getAllKeywordValues@PluralRules@icu_58@@QEAAHAEBVUnicodeString@2@PEANHAEAW4UErrorCode@@@Z @2000
    ?getAllowedHourFormats@DateTimePatternGenerator@icu_58@@AEAAXAEBVLocale@2@AEAW4UErrorCode@@@Z @2001
    ?getAlternateHandling@CollationSettings@icu_58@@QEBA?AW4UColAttributeValue@@XZ @2002
    ?getAmPmStrings@DateFormatSymbols@icu_58@@QEBAPEBVUnicodeString@2@AEAH@Z @2003
    ?getApostropheMode@MessageFormat@icu_58@@QEBA?AW4UMessagePatternApostropheMode@@XZ @2004
    ?getAppendFormatNumber@DateTimePatternGenerator@icu_58@@AEBA?AW4UDateTimePatternField@@PEBD@Z @2005
    ?getAppendItemFormat@DateTimePatternGenerator@icu_58@@QEBAAEBVUnicodeString@2@W4UDateTimePatternField@@@Z @2006
    ?getAppendItemName@DateTimePatternGenerator@icu_58@@QEBAAEBVUnicodeString@2@W4UDateTimePatternField@@@Z @2007
    ?getAppendName@DateTimePatternGenerator@icu_58@@AEAAXW4UDateTimePatternField@@AEAVUnicodeString@2@@Z @2008
    ?getAppendNameNumber@DateTimePatternGenerator@icu_58@@AEBA?AW4UDateTimePatternField@@PEBD@Z @2009
    ?getArgFromListByName@MessageFormat@icu_58@@AEBAPEBVFormattable@2@PEBV32@PEBVUnicodeString@2@HAEAV42@@Z @2010
    ?getArgName@MessageFormat@icu_58@@AEAA?AVUnicodeString@2@H@Z @2011
    ?getArgTypeCount@MessageFormat@icu_58@@QEBAHXZ @2012
    ?getArgTypeList@MessageFormat@icu_58@@AEBAPEBW4Type@Formattable@2@AEAH@Z @2013
    ?getArray@Formattable@icu_58@@QEBAPEBV12@AEAH@Z @2014
    ?getArray@Formattable@icu_58@@QEBAPEBV12@AEAHAEAW4UErrorCode@@@Z @2015
    ?getArrayLimit@?$MaybeStackHeaderAndArray@UdecNumber@@D$0CI@@icu_58@@QEBAPEADXZ @2016
    ?getArrayStart@?$MaybeStackHeaderAndArray@UdecNumber@@D$0CI@@icu_58@@QEBAPEADXZ @2017
    ?getAttribute@DecimalFormat@icu_58@@UEBAHW4UNumberFormatAttribute@@AEAW4UErrorCode@@@Z @2018
    ?getAttribute@RuleBasedCollator@icu_58@@UEBA?AW4UColAttributeValue@@W4UColAttribute@@AEAW4UErrorCode@@@Z @2019
    ?getAttribute@SearchIterator@icu_58@@QEBA?AW4USearchAttributeValue@@W4USearchAttribute@@@Z @2020
    ?getAvailable@MeasureUnit@icu_58@@SAHPEAV12@HAEAW4UErrorCode@@@Z @2021
    ?getAvailable@MeasureUnit@icu_58@@SAHPEBDPEAV12@HAEAW4UErrorCode@@@Z @2022
    ?getAvailable@Region@icu_58@@SAPEAVStringEnumeration@2@W4URegionType@@AEAW4UErrorCode@@@Z @2023
    ?getAvailableID@Transliterator@icu_58@@SAAEBVUnicodeString@2@H@Z @2024
    ?getAvailableIDs@Transliterator@icu_58@@SAPEAVStringEnumeration@2@AEAW4UErrorCode@@@Z @2025
    ?getAvailableLocales@Calendar@icu_58@@SAPEBVLocale@2@AEAH@Z @2026
    ?getAvailableLocales@Collator@icu_58@@SAPEAVStringEnumeration@2@XZ @2027
    ?getAvailableLocales@Collator@icu_58@@SAPEBVLocale@2@AEAH@Z @2028
    ?getAvailableLocales@DateFormat@icu_58@@SAPEBVLocale@2@AEAH@Z @2029
    ?getAvailableLocales@NumberFormat@icu_58@@SAPEAVStringEnumeration@2@XZ @2030
    ?getAvailableLocales@NumberFormat@icu_58@@SAPEBVLocale@2@AEAH@Z @2031
    ?getAvailableLocales@PluralRules@icu_58@@SAPEAVStringEnumeration@2@AEAW4UErrorCode@@@Z @2032
    ?getAvailableMetazoneIDs@ZoneMeta@icu_58@@SAPEBVUVector@2@XZ @2033
    ?getAvailableNames@NumberingSystem@icu_58@@SAPEAVStringEnumeration@2@AEAW4UErrorCode@@@Z @2034
    ?getAvailableSource@Transliterator@icu_58@@SAAEAVUnicodeString@2@HAEAV32@@Z @2035
    ?getAvailableTarget@Transliterator@icu_58@@SAAEAVUnicodeString@2@HAEBV32@AEAV32@@Z @2036
    ?getAvailableTypes@MeasureUnit@icu_58@@SAPEAVStringEnumeration@2@AEAW4UErrorCode@@@Z @2037
    ?getAvailableVariant@Transliterator@icu_58@@SAAEAVUnicodeString@2@HAEBV32@0AEAV32@@Z @2038
    ?getBaseSkeleton@DateTimePatternGenerator@icu_58@@QEAA?AVUnicodeString@2@AEBV32@AEAW4UErrorCode@@@Z @2039
    ?getBaseSkeletons@DateTimePatternGenerator@icu_58@@QEBAPEAVStringEnumeration@2@AEAW4UErrorCode@@@Z @2040
    ?getBasicTimeZone@Calendar@icu_58@@AEBAPEAVBasicTimeZone@2@XZ @2041
    ?getBeginIndex@FieldPosition@icu_58@@QEBAHXZ @2042
    ?getBestAppending@DateTimePatternGenerator@icu_58@@AEAA?AVUnicodeString@2@HHW4UDateTimePatternMatchOptions@@@Z @2043
    ?getBestPattern@DateFormat@icu_58@@SA?AVUnicodeString@2@AEBVLocale@2@AEBV32@AEAW4UErrorCode@@@Z @2044
    ?getBestPattern@DateTimePatternGenerator@icu_58@@QEAA?AVUnicodeString@2@AEBV32@AEAW4UErrorCode@@@Z @2045
    ?getBestPattern@DateTimePatternGenerator@icu_58@@QEAA?AVUnicodeString@2@AEBV32@W4UDateTimePatternMatchOptions@@AEAW4UErrorCode@@@Z @2046
    ?getBestRaw@DateTimePatternGenerator@icu_58@@AEAAPEBVUnicodeString@2@AEAVDateTimeMatcher@2@HPEAVDistanceInfo@2@PEAPEBVPtnSkeleton@2@@Z @2047
    ?getBestSkeleton@DateIntervalInfo@icu_58@@AEBAPEBVUnicodeString@2@AEBV32@AEAC@Z @2048
    ?getBogus@Formattable@icu_58@@AEBAPEAVUnicodeString@2@XZ @2049
    ?getBooleanAttribute@DateFormat@icu_58@@UEBACW4UDateFormatBooleanAttribute@@AEAW4UErrorCode@@@Z @2050
    ?getBound@Collator@icu_58@@SAHPEBEHW4UColBoundMode@@IPEAEHAEAW4UErrorCode@@@Z @2051
    ?getBreakIterator@SearchIterator@icu_58@@QEBAPEBVBreakIterator@2@XZ @2052
    ?getBucket@ImmutableIndex@AlphabeticIndex@icu_58@@QEBAPEBVBucket@23@H@Z @2053
    ?getBucketCount@AlphabeticIndex@icu_58@@UEAAHAEAW4UErrorCode@@@Z @2054
    ?getBucketCount@ImmutableIndex@AlphabeticIndex@icu_58@@QEBAHXZ @2055
    ?getBucketIndex@AlphabeticIndex@icu_58@@UEAAHAEBVUnicodeString@2@AEAW4UErrorCode@@@Z @2056
    ?getBucketIndex@AlphabeticIndex@icu_58@@UEBAHXZ @2057
    ?getBucketIndex@ImmutableIndex@AlphabeticIndex@icu_58@@QEBAHAEBVUnicodeString@3@AEAW4UErrorCode@@@Z @2058
    ?getBucketLabel@AlphabeticIndex@icu_58@@UEBAAEBVUnicodeString@2@XZ @2059
    ?getBucketLabelType@AlphabeticIndex@icu_58@@UEBA?AW4UAlphabeticIndexLabelType@@XZ @2060
    ?getBucketRecordCount@AlphabeticIndex@icu_58@@UEBAHXZ @2061
    ?getByCategory@PluralAffix@icu_58@@QEBAAEBVDigitAffix@2@AEBVUnicodeString@2@@Z @2062
    ?getByCategory@PluralAffix@icu_58@@QEBAAEBVDigitAffix@2@PEBD@Z @2063
    ?getByVariant@QuantityFormatter@icu_58@@QEBAPEBVSimpleFormatter@2@PEBD@Z @2064
    ?getByteArray@CollationKey@icu_58@@QEBAPEBEAEAH@Z @2065
    ?getBytes@CollationKey@icu_58@@AEAAPEAEXZ @2066
    ?getBytes@CollationKey@icu_58@@AEBAPEBEXZ @2067
    ?getCE32@CollationData@icu_58@@QEBAIH@Z @2068
    ?getCE32FromBuilderData@CollationIterator@icu_58@@MEAAIIAEAW4UErrorCode@@@Z @2069
    ?getCE32FromOffsetCE32@CollationDataBuilder@icu_58@@IEBAICHI@Z @2070
    ?getCE32FromPrefix@CollationIterator@icu_58@@AEAAIPEBUCollationData@2@IAEAW4UErrorCode@@@Z @2071
    ?getCE32FromSupplementary@CollationData@icu_58@@QEBAIH@Z @2072
    ?getCE@CollationIterator@icu_58@@QEBA_JH@Z @2073
    ?getCEFromOffsetCE32@CollationData@icu_58@@QEBA_JHI@Z @2074
    ?getCEs@CollationDataBuilder@icu_58@@IEAAHAEBVUnicodeString@2@HQEA_JH@Z @2075
    ?getCEs@CollationDataBuilder@icu_58@@QEAAHAEBVUnicodeString@2@0QEA_JH@Z @2076
    ?getCEs@CollationDataBuilder@icu_58@@QEAAHAEBVUnicodeString@2@QEA_JH@Z @2077
    ?getCEs@CollationFastLatinBuilder@icu_58@@AEAAXAEBUCollationData@2@AEAW4UErrorCode@@@Z @2078
    ?getCEs@CollationIterator@icu_58@@QEBAPEB_JXZ @2079
    ?getCEsFromCE32@CollationFastLatinBuilder@icu_58@@AEAACAEBUCollationData@2@HIAEAW4UErrorCode@@@Z @2080
    ?getCEsFromContractionCE32@CollationFastLatinBuilder@icu_58@@AEAACAEBUCollationData@2@IAEAW4UErrorCode@@@Z @2081
    ?getCEsLength@CollationIterator@icu_58@@QEBAHXZ @2082
    ?getCachedFormatter@MessageFormat@icu_58@@AEBAPEAVFormat@2@H@Z @2083
    ?getCalendar@DateFormat@icu_58@@UEBAPEBVCalendar@2@XZ @2084
    ?getCalendarTypeFromLocale@Calendar@icu_58@@SAXAEBVLocale@2@PEADHAEAW4UErrorCode@@@Z @2085
    ?getCalendarTypeToUse@DateTimePatternGenerator@icu_58@@AEAAXAEBVLocale@2@AEAVCharString@2@AEAW4UErrorCode@@@Z @2086
    ?getCanonicalCLDRID@ZoneMeta@icu_58@@SAAEAVUnicodeString@2@AEBV32@AEAV32@AEAW4UErrorCode@@@Z @2087
    ?getCanonicalCLDRID@ZoneMeta@icu_58@@SAPEB_WAEBVTimeZone@2@@Z @2088
    ?getCanonicalCLDRID@ZoneMeta@icu_58@@SAPEB_WAEBVUnicodeString@2@AEAW4UErrorCode@@@Z @2089
    ?getCanonicalCountry@ZoneMeta@icu_58@@SAAEAVUnicodeString@2@AEBV32@AEAV32@PEAC@Z @2090
    ?getCanonicalID@OlsonTimeZone@icu_58@@QEBAPEB_WXZ @2091
    ?getCanonicalID@TimeZone@icu_58@@SAAEAVUnicodeString@2@AEBV32@AEAV32@AEACAEAW4UErrorCode@@@Z @2092
    ?getCanonicalID@TimeZone@icu_58@@SAAEAVUnicodeString@2@AEBV32@AEAV32@AEAW4UErrorCode@@@Z @2093
    ?getCapacity@?$MaybeStackHeaderAndArray@UdecNumber@@D$0CI@@icu_58@@QEBAHXZ @2094
    ?getCapacity@CollationKey@icu_58@@AEBAHXZ @2095
    ?getCapitalizationContext@RelativeDateTimeFormatter@icu_58@@QEBA?AW4UDisplayContext@@XZ @2096
    ?getCaseFirst@CollationSettings@icu_58@@QEBA?AW4UColAttributeValue@@XZ @2097
    ?getCases@CollationFastLatin@icu_58@@CAIICI@Z @2098
    ?getCharIndex@CollationFastLatin@icu_58@@SAH_W@Z @2099
    ?getChildNode@TextTrieMap@icu_58@@AEBAPEAUCharacterNode@2@PEAU32@_W@Z @2100
    ?getChineseCalZoneAstroCalc@ChineseCalendar@icu_58@@AEBAPEBVTimeZone@2@XZ @2101
    ?getClosures@ChoiceFormat@icu_58@@UEBAPEBCAEAH@Z @2102
    ?getCollationKey@RuleBasedCollator@icu_58@@UEBAAEAVCollationKey@2@AEBVUnicodeString@2@AEAV32@AEAW4UErrorCode@@@Z @2103
    ?getCollationKey@RuleBasedCollator@icu_58@@UEBAAEAVCollationKey@2@PEB_WHAEAV32@AEAW4UErrorCode@@@Z @2104
    ?getCollator@AlphabeticIndex@icu_58@@UEBAAEBVRuleBasedCollator@2@XZ @2105
    ?getCollator@RuleBasedNumberFormat@icu_58@@AEBAPEBVRuleBasedCollator@2@XZ @2106
    ?getCollator@StringSearch@icu_58@@QEBAPEAVRuleBasedCollator@2@XZ @2107
    ?getConditionalCE32@CollationDataBuilder@icu_58@@IEBAPEAUConditionalCE32@2@H@Z @2108
    ?getConditionalCE32ForCE32@CollationDataBuilder@icu_58@@IEBAPEAUConditionalCE32@2@I@Z @2109
    ?getConstSymbol@DecimalFormatSymbols@icu_58@@QEBAAEBVUnicodeString@2@W4ENumberFormatSymbol@12@@Z @2110
    ?getContainedRegions@Region@icu_58@@QEBAPEAVStringEnumeration@2@AEAW4UErrorCode@@@Z @2111
    ?getContainedRegions@Region@icu_58@@QEBAPEAVStringEnumeration@2@W4URegionType@@AEAW4UErrorCode@@@Z @2112
    ?getContainingRegion@Region@icu_58@@QEBAPEBV12@W4URegionType@@@Z @2113
    ?getContainingRegion@Region@icu_58@@QEBAPEBV12@XZ @2114
    ?getContext@DateFormat@icu_58@@UEBA?AW4UDisplayContext@@W4UDisplayContextType@@AEAW4UErrorCode@@@Z @2115
    ?getContext@NumberFormat@icu_58@@UEBA?AW4UDisplayContext@@W4UDisplayContextType@@AEAW4UErrorCode@@@Z @2116
    ?getCount@CompoundTransliterator@icu_58@@UEBAHXZ @2117
    ?getCount@DigitList@icu_58@@QEBAHXZ @2118
    ?getCurrency@CurrencyAmount@icu_58@@QEBAAEBVCurrencyUnit@2@XZ @2119
    ?getCurrency@NumberFormat@icu_58@@QEBAPEB_WXZ @2120
    ?getCurrencyPattern@DecimalFormatSymbols@icu_58@@QEBAPEB_WXZ @2121
    ?getCurrencyPluralInfo@DecimalFormat@icu_58@@UEBAPEBVCurrencyPluralInfo@2@XZ @2122
    ?getCurrencyPluralPattern@CurrencyPluralInfo@icu_58@@QEBAAEAVUnicodeString@2@AEBV32@AEAV32@@Z @2123
    ?getCurrencyUsage@DecimalFormat@icu_58@@QEBA?AW4UCurrencyUsage@@XZ @2124
    ?getCurrentEra@JapaneseCalendar@icu_58@@SAIXZ @2125
    ?getCustomID@TimeZone@icu_58@@CAAEAVUnicodeString@2@AEBV32@AEAV32@AEAW4UErrorCode@@@Z @2126
    ?getDSTSavings@OlsonTimeZone@icu_58@@UEBAHXZ @2127
    ?getDSTSavings@SimpleTimeZone@icu_58@@UEBAHXZ @2128
    ?getDSTSavings@TimeZone@icu_58@@UEBAHXZ @2129
    ?getDSTSavings@TimeZoneRule@icu_58@@QEBAHXZ @2130
    ?getData@CollationRoot@icu_58@@SAPEBUCollationData@2@AEAW4UErrorCode@@@Z @2131
    ?getDataCE32@CollationIterator@icu_58@@MEBAIH@Z @2132
    ?getDate@Formattable@icu_58@@QEBANAEAW4UErrorCode@@@Z @2133
    ?getDate@Formattable@icu_58@@QEBANXZ @2134
    ?getDateFormat@DateIntervalFormat@icu_58@@QEBAPEBVDateFormat@2@XZ @2135
    ?getDateFormatSymbols@SimpleDateFormat@icu_58@@UEBAPEBVDateFormatSymbols@2@XZ @2136
    ?getDateIntervalInfo@DateIntervalFormat@icu_58@@QEBAPEBVDateIntervalInfo@2@XZ @2137
    ?getDateRuleType@DateTimeRule@icu_58@@QEBA?AW4DateRuleType@12@XZ @2138
    ?getDateTimeFormat@DateTimePatternGenerator@icu_58@@QEBAAEBVUnicodeString@2@XZ @2139
    ?getDateTimeSkeleton@DateIntervalFormat@icu_58@@CAXAEBVUnicodeString@2@AEAV32@111@Z @2140
    ?getDayOfWeekType@Calendar@icu_58@@UEBA?AW4UCalendarWeekdayType@@W4UCalendarDaysOfWeek@@AEAW4UErrorCode@@@Z @2141
    ?getDecimal@DateTimePatternGenerator@icu_58@@QEBAAEBVUnicodeString@2@XZ @2142
    ?getDecimal@DigitList@icu_58@@QEAAXAEAVCharString@2@AEAW4UErrorCode@@@Z @2143
    ?getDecimalAt@DigitList@icu_58@@QEAAHXZ @2144
    ?getDecimalFormatSymbols@DecimalFormat@icu_58@@UEBAPEBVDecimalFormatSymbols@2@XZ @2145
    ?getDecimalFormatSymbols@RuleBasedNumberFormat@icu_58@@AEBAPEBVDecimalFormatSymbols@2@XZ @2146
    ?getDecimalNumber@Formattable@icu_58@@QEAA?AVStringPiece@2@AEAW4UErrorCode@@@Z @2147
    ?getDefaultDateFormat@MessageFormat@icu_58@@AEBAPEBVDateFormat@2@AEAW4UErrorCode@@@Z @2148
    ?getDefaultDayInMonth@Calendar@icu_58@@MEAAHHH@Z @2149
    ?getDefaultInfinityRule@RuleBasedNumberFormat@icu_58@@AEBAPEBVNFRule@2@XZ @2150
    ?getDefaultMonthInYear@Calendar@icu_58@@MEAAHH@Z @2151
    ?getDefaultNaNRule@RuleBasedNumberFormat@icu_58@@AEBAPEBVNFRule@2@XZ @2152
    ?getDefaultNumberFormat@MessageFormat@icu_58@@AEBAPEBVNumberFormat@2@AEAW4UErrorCode@@@Z @2153
    ?getDefaultOrder@DateIntervalInfo@icu_58@@QEBACXZ @2154
    ?getDefaultParseOptions@TimeZoneFormat@icu_58@@QEBAIXZ @2155
    ?getDefaultRuleSet@RuleBasedNumberFormat@icu_58@@AEBAPEAVNFRuleSet@2@XZ @2156
    ?getDefaultRuleSetName@RuleBasedNumberFormat@icu_58@@UEBA?AVUnicodeString@2@XZ @2157
    ?getDefaultSettings@RuleBasedCollator@icu_58@@AEBAAEBUCollationSettings@2@XZ @2158
    ?getDescription@NumberingSystem@icu_58@@UEBA?AVUnicodeString@2@XZ @2159
    ?getDigit@DigitList@icu_58@@QEAADH@Z @2160
    ?getDigitByExponent@DigitList@icu_58@@QEBAEH@Z @2161
    ?getDigitByExponent@VisibleDigits@icu_58@@QEBAHH@Z @2162
    ?getDigitList@Formattable@icu_58@@QEBAPEAVDigitList@2@XZ @2163
    ?getDigitValue@DigitList@icu_58@@QEAAEH@Z @2164
    ?getDisplayName@Collator@icu_58@@SAAEAVUnicodeString@2@AEBVLocale@2@0AEAV32@@Z @2165
    ?getDisplayName@Collator@icu_58@@SAAEAVUnicodeString@2@AEBVLocale@2@AEAV32@@Z @2166
    ?getDisplayName@CollatorFactory@icu_58@@UEAAAEAVUnicodeString@2@AEBVLocale@2@0AEAV32@@Z @2167
    ?getDisplayName@TimeZone@icu_58@@QEBAAEAVUnicodeString@2@AEAV32@@Z @2168
    ?getDisplayName@TimeZone@icu_58@@QEBAAEAVUnicodeString@2@AEBVLocale@2@AEAV32@@Z @2169
    ?getDisplayName@TimeZone@icu_58@@QEBAAEAVUnicodeString@2@CW4EDisplayType@12@AEAV32@@Z @2170
    ?getDisplayName@TimeZone@icu_58@@QEBAAEAVUnicodeString@2@CW4EDisplayType@12@AEBVLocale@2@AEAV32@@Z @2171
    ?getDisplayName@TimeZoneGenericNames@icu_58@@QEBAAEAVUnicodeString@2@AEBVTimeZone@2@W4UTimeZoneGenericNameType@@NAEAV32@@Z @2172
    ?getDisplayName@TimeZoneNames@icu_58@@UEBAAEAVUnicodeString@2@AEBV32@W4UTimeZoneNameType@@NAEAV32@@Z @2173
    ?getDisplayName@Transliterator@icu_58@@SAAEAVUnicodeString@2@AEBV32@AEAV32@@Z @2174
    ?getDisplayName@Transliterator@icu_58@@SAAEAVUnicodeString@2@AEBV32@AEBVLocale@2@AEAV32@@Z @2175
    ?getDisplayNames@TimeZoneNames@icu_58@@UEBAXAEBVUnicodeString@2@QEBW4UTimeZoneNameType@@HNQEAV32@AEAW4UErrorCode@@@Z @2176
    ?getDouble@DigitList@icu_58@@QEBANXZ @2177
    ?getDouble@Formattable@icu_58@@QEBANAEAW4UErrorCode@@@Z @2178
    ?getDouble@Formattable@icu_58@@QEBANXZ @2179
    ?getDynamicClassID@AnnualTimeZoneRule@icu_58@@UEBAPEAXXZ @2180
    ?getDynamicClassID@ChineseCalendar@icu_58@@UEBAPEAXXZ @2181
    ?getDynamicClassID@ChoiceFormat@icu_58@@UEBAPEAXXZ @2182
    ?getDynamicClassID@CollationElementIterator@icu_58@@UEBAPEAXXZ @2183
    ?getDynamicClassID@CollationKey@icu_58@@UEBAPEAXXZ @2184
    ?getDynamicClassID@CompactDecimalFormat@icu_58@@UEBAPEAXXZ @2185
    ?getDynamicClassID@CompoundTransliterator@icu_58@@UEBAPEAXXZ @2186
    ?getDynamicClassID@CurrencyAmount@icu_58@@UEBAPEAXXZ @2187
    ?getDynamicClassID@CurrencyPluralInfo@icu_58@@UEBAPEAXXZ @2188
    ?getDynamicClassID@CurrencyUnit@icu_58@@UEBAPEAXXZ @2189
    ?getDynamicClassID@DateFormatSymbols@icu_58@@UEBAPEAXXZ @2190
    ?getDynamicClassID@DateIntervalFormat@icu_58@@UEBAPEAXXZ @2191
    ?getDynamicClassID@DateIntervalInfo@icu_58@@UEBAPEAXXZ @2192
    ?getDynamicClassID@DateTimePatternGenerator@icu_58@@UEBAPEAXXZ @2193
    ?getDynamicClassID@DateTimeRule@icu_58@@UEBAPEAXXZ @2194
    ?getDynamicClassID@DecimalFormat@icu_58@@UEBAPEAXXZ @2195
    ?getDynamicClassID@DecimalFormatSymbols@icu_58@@UEBAPEAXXZ @2196
    ?getDynamicClassID@FieldPosition@icu_58@@UEBAPEAXXZ @2197
    ?getDynamicClassID@Formattable@icu_58@@UEBAPEAXXZ @2198
    ?getDynamicClassID@GregorianCalendar@icu_58@@UEBAPEAXXZ @2199
    ?getDynamicClassID@HebrewCalendar@icu_58@@UEBAPEAXXZ @2200
    ?getDynamicClassID@InitialTimeZoneRule@icu_58@@UEBAPEAXXZ @2201
    ?getDynamicClassID@IslamicCalendar@icu_58@@UEBAPEAXXZ @2202
    ?getDynamicClassID@Measure@icu_58@@UEBAPEAXXZ @2203
    ?getDynamicClassID@MeasureFormat@icu_58@@UEBAPEAXXZ @2204
    ?getDynamicClassID@MeasureUnit@icu_58@@UEBAPEAXXZ @2205
    ?getDynamicClassID@MessageFormat@icu_58@@UEBAPEAXXZ @2206
    ?getDynamicClassID@NumberingSystem@icu_58@@UEBAPEAXXZ @2207
    ?getDynamicClassID@OlsonTimeZone@icu_58@@UEBAPEAXXZ @2208
    ?getDynamicClassID@PluralFormat@icu_58@@UEBAPEAXXZ @2209
    ?getDynamicClassID@PluralRules@icu_58@@UEBAPEAXXZ @2210
    ?getDynamicClassID@RegexMatcher@icu_58@@UEBAPEAXXZ @2211
    ?getDynamicClassID@RegexPattern@icu_58@@UEBAPEAXXZ @2212
    ?getDynamicClassID@RuleBasedCollator@icu_58@@UEBAPEAXXZ @2213
    ?getDynamicClassID@RuleBasedNumberFormat@icu_58@@UEBAPEAXXZ @2214
    ?getDynamicClassID@RuleBasedTimeZone@icu_58@@UEBAPEAXXZ @2215
    ?getDynamicClassID@SelectFormat@icu_58@@UEBAPEAXXZ @2216
    ?getDynamicClassID@SimpleDateFormat@icu_58@@UEBAPEAXXZ @2217
    ?getDynamicClassID@SimpleTimeZone@icu_58@@UEBAPEAXXZ @2218
    ?getDynamicClassID@StringSearch@icu_58@@UEBAPEAXXZ @2219
    ?getDynamicClassID@TimeArrayTimeZoneRule@icu_58@@UEBAPEAXXZ @2220
    ?getDynamicClassID@TimeUnit@icu_58@@UEBAPEAXXZ @2221
    ?getDynamicClassID@TimeUnitAmount@icu_58@@UEBAPEAXXZ @2222
    ?getDynamicClassID@TimeUnitFormat@icu_58@@UEBAPEAXXZ @2223
    ?getDynamicClassID@TimeZoneFormat@icu_58@@UEBAPEAXXZ @2224
    ?getDynamicClassID@TimeZoneTransition@icu_58@@UEBAPEAXXZ @2225
    ?getDynamicClassID@VTimeZone@icu_58@@UEBAPEAXXZ @2226
    ?getEffectiveCurrency@DecimalFormat@icu_58@@MEBAXPEA_WAEAW4UErrorCode@@@Z @2227
    ?getEffectiveCurrency@NumberFormat@icu_58@@MEBAXPEA_WAEAW4UErrorCode@@@Z @2228
    ?getElement@Transliterator@icu_58@@QEBAAEBV12@HAEAW4UErrorCode@@@Z @2229
    ?getEndIndex@FieldPosition@icu_58@@QEBAHXZ @2230
    ?getEndYear@AnnualTimeZoneRule@icu_58@@QEBAHXZ @2231
    ?getEpochDay@GregorianCalendar@icu_58@@MEAANAEAW4UErrorCode@@@Z @2232
    ?getEquivalentID@TimeZone@icu_58@@SA?BVUnicodeString@2@AEBV32@H@Z @2233
    ?getEquivalentReorderCodes@Collator@icu_58@@SAHHPEAHHAEAW4UErrorCode@@@Z @2234
    ?getEquivalentScripts@CollationData@icu_58@@QEBAHHQEAHHAEAW4UErrorCode@@@Z @2235
    ?getEraNames@DateFormatSymbols@icu_58@@QEBAPEBVUnicodeString@2@AEAH@Z @2236
    ?getEras@DateFormatSymbols@icu_58@@QEBAPEBVUnicodeString@2@AEAH@Z @2237
    ?getErrorReason@CollationBuilder@icu_58@@QEBAPEBDXZ @2238
    ?getErrorReason@CollationRuleParser@icu_58@@QEBAPEBDXZ @2239
    ?getExemplarLocationName@TimeZoneNames@icu_58@@UEBAAEAVUnicodeString@2@AEBV32@AEAV32@@Z @2240
    ?getExponent@VisibleDigitsWithExponent@icu_58@@QEBAPEBVVisibleDigits@2@XZ @2241
    ?getFCD16@CollationData@icu_58@@QEBAGH@Z @2242
    ?getFallbackIntervalPattern@DateIntervalInfo@icu_58@@QEBAAEAVUnicodeString@2@AEAV32@@Z @2243
    ?getField@FieldPosition@icu_58@@QEBAHXZ @2244
    ?getFieldResolutionTable@Calendar@icu_58@@MEBAPEAY1M@7$$CBHXZ @2245
    ?getFieldResolutionTable@ChineseCalendar@icu_58@@MEBAPEAY1M@7$$CBHXZ @2246
    ?getFilter@Transliterator@icu_58@@QEBAPEBVUnicodeFilter@2@XZ @2247
    ?getFinalCE32@CollationData@icu_58@@QEBAII@Z @2248
    ?getFinalStart@AnnualTimeZoneRule@icu_58@@UEBACHHAEAN@Z @2249
    ?getFinalStart@InitialTimeZoneRule@icu_58@@UEBACHHAEAN@Z @2250
    ?getFinalStart@TimeArrayTimeZoneRule@icu_58@@UEBACHHAEAN@Z @2251
    ?getFindProgressCallback@RegexMatcher@icu_58@@UEAAXAEAP6ACPEBX_J@ZAEAPEBXAEAW4UErrorCode@@@Z @2252
    ?getFirstDayOfWeek@Calendar@icu_58@@QEBA?AW4EDaysOfWeek@12@XZ @2253
    ?getFirstDayOfWeek@Calendar@icu_58@@QEBA?AW4UCalendarDaysOfWeek@@AEAW4UErrorCode@@@Z @2254
    ?getFirstPrimary@CollationRootElements@icu_58@@QEBAIXZ @2255
    ?getFirstPrimaryCE@CollationRootElements@icu_58@@QEBA_JXZ @2256
    ?getFirstPrimaryForGroup@CollationData@icu_58@@QEBAIH@Z @2257
    ?getFirstSecTerForPrimary@CollationRootElements@icu_58@@AEBAIH@Z @2258
    ?getFirstSecondaryCE@CollationRootElements@icu_58@@QEBAIXZ @2259
    ?getFirstStart@AnnualTimeZoneRule@icu_58@@UEBACHHAEAN@Z @2260
    ?getFirstStart@InitialTimeZoneRule@icu_58@@UEBACHHAEAN@Z @2261
    ?getFirstStart@TimeArrayTimeZoneRule@icu_58@@UEBACHHAEAN@Z @2262
    ?getFirstTertiaryCE@CollationRootElements@icu_58@@QEBAIXZ @2263
    ?getFixedDecimal@DecimalFormat@icu_58@@QEBA?AVFixedDecimal@2@AEAVDigitList@2@AEAW4UErrorCode@@@Z @2264
    ?getFixedDecimal@DecimalFormat@icu_58@@QEBA?AVFixedDecimal@2@AEBVFormattable@2@AEAW4UErrorCode@@@Z @2265
    ?getFixedDecimal@DecimalFormat@icu_58@@QEBA?AVFixedDecimal@2@NAEAW4UErrorCode@@@Z @2266
    ?getFixedDecimal@VisibleDigits@icu_58@@QEBAXAEANAEA_J11AEAHAEAC@Z @2267
    ?getFlag@CollationSettings@icu_58@@QEBA?AW4UColAttributeValue@@H@Z @2268
    ?getFormat@MessageFormat@icu_58@@UEAAPEAVFormat@2@AEBVUnicodeString@2@AEAW4UErrorCode@@@Z @2269
    ?getFormatNames@MessageFormat@icu_58@@UEAAPEAVStringEnumeration@2@AEAW4UErrorCode@@@Z @2270
    ?getFormatStyle@RelativeDateTimeFormatter@icu_58@@QEBA?AW4UDateRelativeDateTimeFormatterStyle@@XZ @2271
    ?getFormatWidth@DecimalFormat@icu_58@@UEBAHXZ @2272
    ?getFormats@ChoiceFormat@icu_58@@UEBAPEBVUnicodeString@2@AEAH@Z @2273
    ?getFormats@MessageFormat@icu_58@@UEBAPEAPEBVFormat@2@AEAH@Z @2274
    ?getFormatter@MeasureFormat@icu_58@@AEBAPEBVSimpleFormatter@2@AEBVMeasureUnit@2@W4UMeasureFormatWidth@@HAEAW4UErrorCode@@@Z @2275
    ?getFormatterOrNull@MeasureFormat@icu_58@@AEBAPEBVSimpleFormatter@2@AEBVMeasureUnit@2@W4UMeasureFormatWidth@@H@Z @2276
    ?getFracDigitCount@DigitInterval@icu_58@@QEBAHXZ @2277
    ?getFractionalDigits@FixedDecimal@icu_58@@SA_JNH@Z @2278
    ?getFrom@TimeZoneTransition@icu_58@@QEBAPEBVTimeZoneRule@2@XZ @2279
    ?getFunctionalEquivalent@Collator@icu_58@@SA?AVLocale@2@PEBDAEBV32@AEACAEAW4UErrorCode@@@Z @2280
    ?getGMT@TimeZone@icu_58@@SAPEBV12@XZ @2281
    ?getGMTOffsetDigits@TimeZoneFormat@icu_58@@QEBAAEAVUnicodeString@2@AEAV32@@Z @2282
    ?getGMTOffsetPattern@TimeZoneFormat@icu_58@@QEBAAEAVUnicodeString@2@W4UTimeZoneFormatGMTOffsetPatternType@@AEAV32@@Z @2283
    ?getGMTPattern@TimeZoneFormat@icu_58@@QEBAAEAVUnicodeString@2@AEAV32@@Z @2284
    ?getGMTZeroFormat@TimeZoneFormat@icu_58@@QEBAAEAVUnicodeString@2@AEAV32@@Z @2285
    ?getGenericLocationName@TimeZoneGenericNames@icu_58@@QEBAAEAVUnicodeString@2@AEBV32@AEAV32@@Z @2286
    ?getGreatestMinimum@Calendar@icu_58@@UEBAHW4EDateFields@12@@Z @2287
    ?getGreatestMinimum@Calendar@icu_58@@UEBAHW4UCalendarDateFields@@@Z @2288
    ?getGreenwichSidereal@CalendarAstronomer@icu_58@@QEAANXZ @2289
    ?getGregorianChange@GregorianCalendar@icu_58@@QEBANXZ @2290
    ?getGregorianDayOfMonth@Calendar@icu_58@@IEBAHXZ @2291
    ?getGregorianDayOfYear@Calendar@icu_58@@IEBAHXZ @2292
    ?getGregorianMonth@Calendar@icu_58@@IEBAHXZ @2293
    ?getGregorianYear@Calendar@icu_58@@IEBAHXZ @2294
    ?getGroupForPrimary@CollationData@icu_58@@QEBAHI@Z @2295
    ?getGrouping2@DigitGrouping@icu_58@@AEBAHXZ @2296
    ?getGroupingSize@DecimalFormat@icu_58@@QEBAHXZ @2297
    ?getHistoricalOffset@OlsonTimeZone@icu_58@@AEBAXNCHHAEAH0@Z @2298
    ?getID@TimeZone@icu_58@@QEBAAEAVUnicodeString@2@AEAV32@@Z @2299
    ?getID@Transliterator@icu_58@@UEBAAEBVUnicodeString@2@XZ @2300
    ?getIDForWindowsID@TimeZone@icu_58@@SAAEAVUnicodeString@2@AEBV32@PEBDAEAV32@AEAW4UErrorCode@@@Z @2301
    ?getISO@CurrencyAffixInfo@icu_58@@QEBAAEBVUnicodeString@2@XZ @2302
    ?getISOCurrency@CurrencyAmount@icu_58@@QEBAPEB_WXZ @2303
    ?getISOCurrency@CurrencyUnit@icu_58@@QEBAPEB_WXZ @2304
    ?getImmediatePreviousZoneTransition@Calendar@icu_58@@AEBACNPEANAEAW4UErrorCode@@@Z @2305
    ?getIndex@MeasureUnit@icu_58@@QEBAHXZ @2306
    ?getIndexCount@MeasureUnit@icu_58@@SAHXZ @2307
    ?getIndirectCE32@CollationData@icu_58@@QEBAII@Z @2308
    ?getInflowLabel@AlphabeticIndex@icu_58@@UEBAAEBVUnicodeString@2@XZ @2309
    ?getInput@RegexMatcher@icu_58@@UEBAPEAUUText@@PEAU3@AEAW4UErrorCode@@@Z @2310
    ?getInstance@GenderInfo@icu_58@@SAPEBV12@AEBVLocale@2@AEAW4UErrorCode@@@Z @2311
    ?getInstance@Region@icu_58@@SAPEBV12@HAEAW4UErrorCode@@@Z @2312
    ?getInstance@Region@icu_58@@SAPEBV12@PEBDAEAW4UErrorCode@@@Z @2313
    ?getInt64@DigitList@icu_58@@QEAA_JXZ @2314
    ?getInt64@Formattable@icu_58@@QEBA_JAEAW4UErrorCode@@@Z @2315
    ?getInt64@Formattable@icu_58@@QEBA_JXZ @2316
    ?getIntDigitCount@DigitInterval@icu_58@@QEBAHXZ @2317
    ?getInternalDigitList@Formattable@icu_58@@QEAAPEAVDigitList@2@XZ @2318
    ?getInterval@FixedPrecision@icu_58@@AEBAAEAVDigitInterval@2@HAEAV32@@Z @2319
    ?getInterval@FixedPrecision@icu_58@@QEBAAEAVDigitInterval@2@AEBVDigitList@2@AEAV32@@Z @2320
    ?getInterval@VisibleDigits@icu_58@@QEBAAEBVDigitInterval@2@XZ @2321
    ?getIntervalForZero@FixedPrecision@icu_58@@AEBAAEAVDigitInterval@2@AEAV32@@Z @2322
    ?getIntervalPattern@DateIntervalInfo@icu_58@@QEBAAEAVUnicodeString@2@AEBV32@W4UCalendarDateFields@@AEAV32@AEAW4UErrorCode@@@Z @2323
    ?getJamoCE32s@CollationDataBuilder@icu_58@@IEAACQEAIAEAW4UErrorCode@@@Z @2324
    ?getJulianCentury@CalendarAstronomer@icu_58@@QEAANXZ @2325
    ?getJulianDay@CalendarAstronomer@icu_58@@QEAANXZ @2326
    ?getKeyword@StandardPlural@icu_58@@SAPEBDW4Form@12@@Z @2327
    ?getKeywordOther@PluralRules@icu_58@@QEBA?AVUnicodeString@2@XZ @2328
    ?getKeywordValues@Collator@icu_58@@SAPEAVStringEnumeration@2@PEBDAEAW4UErrorCode@@@Z @2329
    ?getKeywordValuesForLocale@Calendar@icu_58@@SAPEAVStringEnumeration@2@PEBDAEBVLocale@2@CAEAW4UErrorCode@@@Z @2330
    ?getKeywordValuesForLocale@Collator@icu_58@@SAPEAVStringEnumeration@2@PEBDAEBVLocale@2@CAEAW4UErrorCode@@@Z @2331
    ?getKeywords@Collator@icu_58@@SAPEAVStringEnumeration@2@AEAW4UErrorCode@@@Z @2332
    ?getKeywords@PluralRules@icu_58@@QEBAPEAVStringEnumeration@2@AEAW4UErrorCode@@@Z @2333
    ?getLabel@Bucket@AlphabeticIndex@icu_58@@QEBAAEBVUnicodeString@3@XZ @2334
    ?getLabelType@Bucket@AlphabeticIndex@icu_58@@QEBA?AW4UAlphabeticIndexLabelType@@XZ @2335
    ?getLastCommonSecondary@CollationRootElements@icu_58@@QEBAIXZ @2336
    ?getLastModified@VTimeZone@icu_58@@QEBACAEAN@Z @2337
    ?getLastPrimaryForGroup@CollationData@icu_58@@QEBAIH@Z @2338
    ?getLastSecondaryCE@CollationRootElements@icu_58@@QEBAIXZ @2339
    ?getLastTertiaryCE@CollationRootElements@icu_58@@QEBAIXZ @2340
    ?getLeapMonthPatterns@DateFormatSymbols@icu_58@@QEBAPEBVUnicodeString@2@AEAH@Z @2341
    ?getLeastMaximum@Calendar@icu_58@@UEBAHW4EDateFields@12@@Z @2342
    ?getLeastMaximum@Calendar@icu_58@@UEBAHW4UCalendarDateFields@@@Z @2343
    ?getLeastSignificantInclusive@DigitInterval@icu_58@@QEBAHXZ @2344
    ?getLength@CollationKey@icu_58@@AEBAHXZ @2345
    ?getLevelFromChar@SimpleDateFormat@icu_58@@CAH_W@Z @2346
    ?getLimit@Calendar@icu_58@@MEBAHW4UCalendarDateFields@@W4ELimitType@12@@Z @2347
    ?getLimits@ChoiceFormat@icu_58@@UEBAPEBNAEAH@Z @2348
    ?getListGender@GenderInfo@icu_58@@QEBA?AW4UGender@@PEBW43@HAEAW4UErrorCode@@@Z @2349
    ?getLiteral@AffixPatternIterator@icu_58@@QEBAAEAVUnicodeString@2@AEAV32@@Z @2350
    ?getLiteralStringUntilNextArgument@MessageFormat@icu_58@@AEBA?AVUnicodeString@2@H@Z @2351
    ?getLocalDOW@Calendar@icu_58@@IEAAHXZ @2352
    ?getLocalDelta@RuleBasedTimeZone@icu_58@@AEBAHHHHHHH@Z @2353
    ?getLocalPatternChars@DateFormatSymbols@icu_58@@QEBAAEAVUnicodeString@2@AEAV32@@Z @2354
    ?getLocalSidereal@CalendarAstronomer@icu_58@@QEAANXZ @2355
    ?getLocale@Calendar@icu_58@@QEBA?AVLocale@2@W4ULocDataLocaleType@@AEAW4UErrorCode@@@Z @2356
    ?getLocale@CurrencyPluralInfo@icu_58@@QEBAAEBVLocale@2@XZ @2357
    ?getLocale@DateFormatSymbols@icu_58@@QEBA?AVLocale@2@W4ULocDataLocaleType@@AEAW4UErrorCode@@@Z @2358
    ?getLocale@DecimalFormatSymbols@icu_58@@QEBA?AVLocale@2@W4ULocDataLocaleType@@AEAW4UErrorCode@@@Z @2359
    ?getLocale@DecimalFormatSymbols@icu_58@@QEBA?AVLocale@2@XZ @2360
    ?getLocale@Format@icu_58@@QEBA?AVLocale@2@W4ULocDataLocaleType@@AEAW4UErrorCode@@@Z @2361
    ?getLocale@MeasureFormat@icu_58@@IEBA?AVLocale@2@AEAW4UErrorCode@@@Z @2362
    ?getLocale@MessageFormat@icu_58@@UEBAAEBVLocale@2@XZ @2363
    ?getLocale@RuleBasedCollator@icu_58@@UEBA?AVLocale@2@W4ULocDataLocaleType@@AEAW4UErrorCode@@@Z @2364
    ?getLocaleID@Calendar@icu_58@@QEBAPEBDW4ULocDataLocaleType@@AEAW4UErrorCode@@@Z @2365
    ?getLocaleID@Format@icu_58@@QEBAPEBDW4ULocDataLocaleType@@AEAW4UErrorCode@@@Z @2366
    ?getLocaleID@MeasureFormat@icu_58@@IEBAPEBDAEAW4UErrorCode@@@Z @2367
    ?getLong@CurrencyAffixInfo@icu_58@@QEBAAEBVPluralAffix@2@XZ @2368
    ?getLong@DigitList@icu_58@@QEAAHXZ @2369
    ?getLong@Formattable@icu_58@@QEBAHAEAW4UErrorCode@@@Z @2370
    ?getLong@Formattable@icu_58@@QEBAHPEAW4UErrorCode@@@Z @2371
    ?getLong@Formattable@icu_58@@QEBAHXZ @2372
    ?getLongPrimaryIfSingleCE@CollationDataBuilder@icu_58@@QEBAIH@Z @2373
    ?getLowerExponent@DigitList@icu_58@@QEBAHXZ @2374
    ?getMaleTaintsInstance@GenderInfo@icu_58@@CAPEBV12@XZ @2375
    ?getMantissa@VisibleDigitsWithExponent@icu_58@@QEBAAEBVVisibleDigits@2@XZ @2376
    ?getMatchCallback@RegexMatcher@icu_58@@UEAAXAEAP6ACPEBXH@ZAEAPEBXAEAW4UErrorCode@@@Z @2377
    ?getMatchLengthAt@MatchInfoCollection@TimeZoneNames@icu_58@@QEBAHH@Z @2378
    ?getMatchedLength@SearchIterator@icu_58@@QEBAHXZ @2379
    ?getMatchedStart@SearchIterator@icu_58@@QEBAHXZ @2380
    ?getMatchedText@SearchIterator@icu_58@@QEBAXAEAVUnicodeString@2@@Z @2381
    ?getMax@IntDigitCountRange@icu_58@@QEBAHXZ @2382
    ?getMax@SignificantDigitInterval@icu_58@@QEBAHXZ @2383
    ?getMaxExpansion@CollationElementIterator@icu_58@@CAHPEBUUHashtable@@H@Z @2384
    ?getMaxExpansion@CollationElementIterator@icu_58@@QEBAHH@Z @2385
    ?getMaxExpansion@RuleBasedCollator@icu_58@@QEBAHH@Z @2386
    ?getMaxLabelCount@AlphabeticIndex@icu_58@@UEBAHXZ @2387
    ?getMaxVariable@CollationSettings@icu_58@@QEBA?AW4MaxVariable@12@XZ @2388
    ?getMaxVariable@Collator@icu_58@@UEBA?AW4UColReorderCode@@XZ @2389
    ?getMaxVariable@RuleBasedCollator@icu_58@@UEBA?AW4UColReorderCode@@XZ @2390
    ?getMaximum@Calendar@icu_58@@UEBAHW4EDateFields@12@@Z @2391
    ?getMaximum@Calendar@icu_58@@UEBAHW4UCalendarDateFields@@@Z @2392
    ?getMaximumContextLength@Transliterator@icu_58@@QEBAHXZ @2393
    ?getMaximumFractionDigits@NumberFormat@icu_58@@QEBAHXZ @2394
    ?getMaximumIntegerDigits@NumberFormat@icu_58@@QEBAHXZ @2395
    ?getMaximumSignificantDigits@DecimalFormat@icu_58@@QEBAHXZ @2396
    ?getMetaZoneIDAt@MatchInfoCollection@TimeZoneNames@icu_58@@QEBACHAEAVUnicodeString@3@@Z @2397
    ?getMetazoneID@ZoneMeta@icu_58@@SAAEAVUnicodeString@2@AEBV32@NAEAV32@@Z @2398
    ?getMetazoneMappings@ZoneMeta@icu_58@@SAPEBVUVector@2@AEBVUnicodeString@2@@Z @2399
    ?getMin@IntDigitCountRange@icu_58@@QEBAHXZ @2400
    ?getMin@SignificantDigitInterval@icu_58@@QEBAHXZ @2401
    ?getMinGrouping@DigitGrouping@icu_58@@AEBAHXZ @2402
    ?getMiniCE@CollationFastLatinBuilder@icu_58@@AEBAI_J@Z @2403
    ?getMinimalDaysInFirstWeek@Calendar@icu_58@@QEBAEXZ @2404
    ?getMinimum@Calendar@icu_58@@UEBAHW4EDateFields@12@@Z @2405
    ?getMinimum@Calendar@icu_58@@UEBAHW4UCalendarDateFields@@@Z @2406
    ?getMinimumExponentDigits@DecimalFormat@icu_58@@UEBACXZ @2407
    ?getMinimumFractionDigits@NumberFormat@icu_58@@QEBAHXZ @2408
    ?getMinimumGroupingDigits@DecimalFormat@icu_58@@QEBAHXZ @2409
    ?getMinimumIntegerDigits@NumberFormat@icu_58@@QEBAHXZ @2410
    ?getMinimumSignificantDigits@DecimalFormat@icu_58@@QEBAHXZ @2411
    ?getMixedNeutralInstance@GenderInfo@icu_58@@CAPEBV12@XZ @2412
    ?getMonths@DateFormatSymbols@icu_58@@QEBAPEBVUnicodeString@2@AEAH@Z @2413
    ?getMonths@DateFormatSymbols@icu_58@@QEBAPEBVUnicodeString@2@AEAHW4DtContextType@12@W4DtWidthType@12@@Z @2414
    ?getMoonAge@CalendarAstronomer@icu_58@@QEAANXZ @2415
    ?getMoonPhase@CalendarAstronomer@icu_58@@QEAANXZ @2416
    ?getMoonPosition@CalendarAstronomer@icu_58@@QEAAAEBVEquatorial@12@XZ @2417
    ?getMoonRiseSet@CalendarAstronomer@icu_58@@QEAANC@Z @2418
    ?getMoonTime@CalendarAstronomer@icu_58@@QEAANAEBVMoonAge@12@C@Z @2419
    ?getMoonTime@CalendarAstronomer@icu_58@@QEAANNC@Z @2420
    ?getMostSignificantExclusive@DigitInterval@icu_58@@QEBAHXZ @2421
    ?getMultiplier@DecimalFormat@icu_58@@QEBAHXZ @2422
    ?getMultiplier@ScientificPrecision@icu_58@@AEBAHXZ @2423
    ?getMutable@?$PluralMap@VDigitAffix@icu_58@@@icu_58@@AEAAPEAVDigitAffix@2@W4Category@PluralMapBase@2@PEBV32@AEAW4UErrorCode@@@Z @2424
    ?getMutable@?$PluralMap@VDigitAffix@icu_58@@@icu_58@@QEAAPEAVDigitAffix@2@PEBDAEAW4UErrorCode@@@Z @2425
    ?getMutable@?$PluralMap@VDigitAffix@icu_58@@@icu_58@@QEAAPEAVDigitAffix@2@W4Category@PluralMapBase@2@AEAW4UErrorCode@@@Z @2426
    ?getMutableAppendItemName@DateTimePatternGenerator@icu_58@@AEAAAEAVUnicodeString@2@W4UDateTimePatternField@@@Z @2427
    ?getMutableWithDefault@?$PluralMap@VDigitAffix@icu_58@@@icu_58@@QEAAPEAVDigitAffix@2@W4Category@PluralMapBase@2@AEBV32@AEAW4UErrorCode@@@Z @2428
    ?getName@NumberingSystem@icu_58@@QEBAPEBDXZ @2429
    ?getName@TimeZoneRule@icu_58@@QEBAAEAVUnicodeString@2@AEAV32@@Z @2430
    ?getNameTypeAt@MatchInfoCollection@TimeZoneNames@icu_58@@QEBA?AW4UTimeZoneNameType@@H@Z @2431
    ?getNarrowEras@DateFormatSymbols@icu_58@@QEBAPEBVUnicodeString@2@AEAH@Z @2432
    ?getNegativePrefix@DecimalFormat@icu_58@@QEBAAEAVUnicodeString@2@AEAV32@@Z @2433
    ?getNegativeSuffix@DecimalFormat@icu_58@@QEBAAEAVUnicodeString@2@AEAV32@@Z @2434
    ?getNeutralInstance@GenderInfo@icu_58@@CAPEBV12@XZ @2435
    ?getNextStart@AnnualTimeZoneRule@icu_58@@UEBACNHHCAEAN@Z @2436
    ?getNextStart@InitialTimeZoneRule@icu_58@@UEBACNHHCAEAN@Z @2437
    ?getNextStart@TimeArrayTimeZoneRule@icu_58@@UEBACNHHCAEAN@Z @2438
    ?getNextTransition@OlsonTimeZone@icu_58@@UEBACNCAEAVTimeZoneTransition@2@@Z @2439
    ?getNextTransition@RuleBasedTimeZone@icu_58@@UEBACNCAEAVTimeZoneTransition@2@@Z @2440
    ?getNextTransition@SimpleTimeZone@icu_58@@UEBACNCAEAVTimeZoneTransition@2@@Z @2441
    ?getNextTransition@VTimeZone@icu_58@@UEBACNCAEAVTimeZoneTransition@2@@Z @2442
    ?getNow@Calendar@icu_58@@SANXZ @2443
    ?getNumber@Measure@icu_58@@QEBAAEBVFormattable@2@XZ @2444
    ?getNumberFormat@DateFormat@icu_58@@UEBAPEBVNumberFormat@2@XZ @2445
    ?getNumberFormat@MeasureFormat@icu_58@@IEBAAEBVNumberFormat@2@XZ @2446
    ?getNumberFormat@RelativeDateTimeFormatter@icu_58@@QEBAAEBVNumberFormat@2@XZ @2447
    ?getNumberFormatByIndex@SimpleDateFormat@icu_58@@AEBAPEBVNumberFormat@2@W4UDateFormatField@@@Z @2448
    ?getNumberFormatForField@SimpleDateFormat@icu_58@@QEBAPEBVNumberFormat@2@_W@Z @2449
    ?getNumberOfRuleSetDisplayNameLocales@RuleBasedNumberFormat@icu_58@@UEBAHXZ @2450
    ?getNumberOfRuleSetNames@RuleBasedNumberFormat@icu_58@@UEBAHXZ @2451
    ?getNumericCode@Region@icu_58@@QEBAHXZ @2452
    ?getObject@Formattable@icu_58@@QEBAPEBVUObject@2@XZ @2453
    ?getOffset@CollationElementIterator@icu_58@@QEBAHXZ @2454
    ?getOffset@FCDUIterCollationIterator@icu_58@@UEBAHXZ @2455
    ?getOffset@FCDUTF16CollationIterator@icu_58@@UEBAHXZ @2456
    ?getOffset@FCDUTF8CollationIterator@icu_58@@UEBAHXZ @2457
    ?getOffset@MeasureUnit@icu_58@@AEBAHXZ @2458
    ?getOffset@OlsonTimeZone@icu_58@@UEBAHEHHHEHAEAW4UErrorCode@@@Z @2459
    ?getOffset@OlsonTimeZone@icu_58@@UEBAHEHHHEHHAEAW4UErrorCode@@@Z @2460
    ?getOffset@OlsonTimeZone@icu_58@@UEBAXNCAEAH0AEAW4UErrorCode@@@Z @2461
    ?getOffset@RuleBasedTimeZone@icu_58@@UEBAHEHHHEHAEAW4UErrorCode@@@Z @2462
    ?getOffset@RuleBasedTimeZone@icu_58@@UEBAHEHHHEHHAEAW4UErrorCode@@@Z @2463
    ?getOffset@RuleBasedTimeZone@icu_58@@UEBAXNCAEAH0AEAW4UErrorCode@@@Z @2464
    ?getOffset@SimpleTimeZone@icu_58@@UEBAHEHHHEHAEAW4UErrorCode@@@Z @2465
    ?getOffset@SimpleTimeZone@icu_58@@UEBAHEHHHEHHAEAW4UErrorCode@@@Z @2466
    ?getOffset@SimpleTimeZone@icu_58@@UEBAHEHHHEHHHAEAW4UErrorCode@@@Z @2467
    ?getOffset@SimpleTimeZone@icu_58@@UEBAXNCAEAH0AEAW4UErrorCode@@@Z @2468
    ?getOffset@StringSearch@icu_58@@UEBAHXZ @2469
    ?getOffset@TimeZone@icu_58@@UEBAXNCAEAH0AEAW4UErrorCode@@@Z @2470
    ?getOffset@UIterCollationIterator@icu_58@@UEBAHXZ @2471
    ?getOffset@UTF16CollationIterator@icu_58@@UEBAHXZ @2472
    ?getOffset@UTF8CollationIterator@icu_58@@UEBAHXZ @2473
    ?getOffset@VTimeZone@icu_58@@UEBAHEHHHEHAEAW4UErrorCode@@@Z @2474
    ?getOffset@VTimeZone@icu_58@@UEBAHEHHHEHHAEAW4UErrorCode@@@Z @2475
    ?getOffset@VTimeZone@icu_58@@UEBAXNCAEAH0AEAW4UErrorCode@@@Z @2476
    ?getOffsetFromLocal@BasicTimeZone@icu_58@@UEBAXNHHAEAH0AEAW4UErrorCode@@@Z @2477
    ?getOffsetFromLocal@OlsonTimeZone@icu_58@@UEBAXNHHAEAH0AEAW4UErrorCode@@@Z @2478
    ?getOffsetFromLocal@RuleBasedTimeZone@icu_58@@UEBAXNHHAEAH0AEAW4UErrorCode@@@Z @2479
    ?getOffsetFromLocal@SimpleTimeZone@icu_58@@UEBAXNHHAEAH0AEAW4UErrorCode@@@Z @2480
    ?getOffsetInternal@RuleBasedTimeZone@icu_58@@AEBAXNCHHAEAH0AEAW4UErrorCode@@@Z @2481
    ?getOnOffValue@CollationRuleParser@icu_58@@CA?AW4UColAttributeValue@@AEBVUnicodeString@2@@Z @2482
    ?getOptions@CollationFastLatin@icu_58@@SAHPEBUCollationData@2@AEBUCollationSettings@2@PEAGH@Z @2483
    ?getOther@?$PluralMap@VDigitAffix@icu_58@@@icu_58@@QEBAAEBVDigitAffix@2@XZ @2484
    ?getOtherVariant@PluralAffix@icu_58@@QEBAAEBVDigitAffix@2@XZ @2485
    ?getOverflowLabel@AlphabeticIndex@icu_58@@UEBAAEBVUnicodeString@2@XZ @2486
    ?getPadCharacterString@DecimalFormat@icu_58@@UEBA?AVUnicodeString@2@XZ @2487
    ?getPadPosition@DecimalFormat@icu_58@@UEBA?AW4EPadPosition@12@XZ @2488
    ?getPattern@StringSearch@icu_58@@QEBAAEBVUnicodeString@2@XZ @2489
    ?getPatternCharIndex@DateFormatSymbols@icu_58@@CA?AW4UDateFormatField@@_W@Z @2490
    ?getPatternForCurrencySpacing@DecimalFormatSymbols@icu_58@@QEBAAEBVUnicodeString@2@W4UCurrencySpacing@@CAEAW4UErrorCode@@@Z @2491
    ?getPatternForSkeleton@DateTimePatternGenerator@icu_58@@QEBAAEBVUnicodeString@2@AEBV32@@Z @2492
    ?getPatternUChars@DateFormatSymbols@icu_58@@SAPEB_WXZ @2493
    ?getPerFormatter@MeasureFormat@icu_58@@AEBAPEBVSimpleFormatter@2@W4UMeasureFormatWidth@@AEAW4UErrorCode@@@Z @2494
    ?getPluralFormatter@MeasureFormat@icu_58@@AEBAPEBVSimpleFormatter@2@AEBVMeasureUnit@2@W4UMeasureFormatWidth@@HAEAW4UErrorCode@@@Z @2495
    ?getPluralRules@CurrencyPluralInfo@icu_58@@QEBAPEBVPluralRules@2@XZ @2496
    ?getPluralRules@MeasureFormat@icu_58@@IEBAAEBVPluralRules@2@XZ @2497
    ?getPositivePrefix@DecimalFormat@icu_58@@QEBAAEAVUnicodeString@2@AEAV32@@Z @2498
    ?getPositiveSuffix@DecimalFormat@icu_58@@QEBAAEAVUnicodeString@2@AEAV32@@Z @2499
    ?getPreExponent@ScientificNumberFormatter@icu_58@@CAXAEBVDecimalFormatSymbols@2@AEAVUnicodeString@2@@Z @2500
    ?getPreferredValues@Region@icu_58@@QEBAPEAVStringEnumeration@2@AEAW4UErrorCode@@@Z @2501
    ?getPreviousStart@AnnualTimeZoneRule@icu_58@@UEBACNHHCAEAN@Z @2502
    ?getPreviousStart@InitialTimeZoneRule@icu_58@@UEBACNHHCAEAN@Z @2503
    ?getPreviousStart@TimeArrayTimeZoneRule@icu_58@@UEBACNHHCAEAN@Z @2504
    ?getPreviousTransition@OlsonTimeZone@icu_58@@UEBACNCAEAVTimeZoneTransition@2@@Z @2505
    ?getPreviousTransition@RuleBasedTimeZone@icu_58@@UEBACNCAEAVTimeZoneTransition@2@@Z @2506
    ?getPreviousTransition@SimpleTimeZone@icu_58@@UEBACNCAEAVTimeZoneTransition@2@@Z @2507
    ?getPreviousTransition@VTimeZone@icu_58@@UEBACNCAEAVTimeZoneTransition@2@@Z @2508
    ?getPrimaries@CollationFastLatin@icu_58@@CAIII@Z @2509
    ?getPrimaryAfter@CollationRootElements@icu_58@@QEBAIIHC@Z @2510
    ?getPrimaryBefore@CollationRootElements@icu_58@@QEBAIIC@Z @2511
    ?getQuarters@DateFormatSymbols@icu_58@@QEBAPEBVUnicodeString@2@AEAHW4DtContextType@12@W4DtWidthType@12@@Z @2512
    ?getQuaternaries@CollationFastLatin@icu_58@@CAIII@Z @2513
    ?getRadix@NumberingSystem@icu_58@@QEBAHXZ @2514
    ?getRawOffset@OlsonTimeZone@icu_58@@UEBAHXZ @2515
    ?getRawOffset@RuleBasedTimeZone@icu_58@@UEBAHXZ @2516
    ?getRawOffset@SimpleTimeZone@icu_58@@UEBAHXZ @2517
    ?getRawOffset@TimeZoneRule@icu_58@@QEBAHXZ @2518
    ?getRawOffset@VTimeZone@icu_58@@UEBAHXZ @2519
    ?getRecordCount@AlphabeticIndex@icu_58@@UEAAHAEAW4UErrorCode@@@Z @2520
    ?getRecordData@AlphabeticIndex@icu_58@@UEBAPEBXXZ @2521
    ?getRecordName@AlphabeticIndex@icu_58@@UEBAAEBVUnicodeString@2@XZ @2522
    ?getRedundants@DateTimePatternGenerator@icu_58@@QEAAPEAVStringEnumeration@2@AEAW4UErrorCode@@@Z @2523
    ?getRegion@TimeZone@icu_58@@CAPEB_WAEBVUnicodeString@2@@Z @2524
    ?getRegion@TimeZone@icu_58@@SAHAEBVUnicodeString@2@PEADHAEAW4UErrorCode@@@Z @2525
    ?getRegion@TimeZone@icu_58@@SAPEB_WAEBVUnicodeString@2@AEAW4UErrorCode@@@Z @2526
    ?getRegionCode@Region@icu_58@@QEBAPEBDXZ @2527
    ?getRelatedYear@Calendar@icu_58@@UEBAHAEAW4UErrorCode@@@Z @2528
    ?getReorderCode@CollationRuleParser@icu_58@@SAHPEBD@Z @2529
    ?getReorderCodes@Collator@icu_58@@UEBAHPEAHHAEAW4UErrorCode@@@Z @2530
    ?getReorderCodes@RuleBasedCollator@icu_58@@UEBAHPEAHHAEAW4UErrorCode@@@Z @2531
    ?getRepeatedWallTimeOption@Calendar@icu_58@@QEBA?AW4UCalendarWallTimeOption@@XZ @2532
    ?getRoot@CollationRoot@icu_58@@SAPEBUCollationTailoring@2@AEAW4UErrorCode@@@Z @2533
    ?getRootCacheEntry@CollationRoot@icu_58@@SAPEBUCollationCacheEntry@2@AEAW4UErrorCode@@@Z @2534
    ?getRoundingIncrement@DecimalFormat@icu_58@@UEBANXZ @2535
    ?getRoundingMode@DecimalFormat@icu_58@@UEBA?AW4ERoundingMode@12@XZ @2536
    ?getRule@AnnualTimeZoneRule@icu_58@@QEBAPEBVDateTimeRule@2@XZ @2537
    ?getRuleDayOfMonth@DateTimeRule@icu_58@@QEBAHXZ @2538
    ?getRuleDayOfWeek@DateTimeRule@icu_58@@QEBAHXZ @2539
    ?getRuleFromResource@PluralRules@icu_58@@AEAA?AVUnicodeString@2@AEBVLocale@2@W4UPluralType@@AEAW4UErrorCode@@@Z @2540
    ?getRuleMillisInDay@DateTimeRule@icu_58@@QEBAHXZ @2541
    ?getRuleMonth@DateTimeRule@icu_58@@QEBAHXZ @2542
    ?getRuleSetDisplayName@RuleBasedNumberFormat@icu_58@@UEAA?AVUnicodeString@2@AEBV32@AEBVLocale@2@@Z @2543
    ?getRuleSetDisplayName@RuleBasedNumberFormat@icu_58@@UEAA?AVUnicodeString@2@HAEBVLocale@2@@Z @2544
    ?getRuleSetDisplayNameLocale@RuleBasedNumberFormat@icu_58@@UEBA?AVLocale@2@HAEAW4UErrorCode@@@Z @2545
    ?getRuleSetName@RuleBasedNumberFormat@icu_58@@UEBA?AVUnicodeString@2@H@Z @2546
    ?getRuleWeekInMonth@DateTimeRule@icu_58@@QEBAHXZ @2547
    ?getRules@PluralRules@icu_58@@QEBA?AVUnicodeString@2@XZ @2548
    ?getRules@RuleBasedCollator@icu_58@@QEBAAEBVUnicodeString@2@XZ @2549
    ?getRules@RuleBasedCollator@icu_58@@QEBAXW4UColRuleOption@@AEAVUnicodeString@2@@Z @2550
    ?getRules@RuleBasedNumberFormat@icu_58@@UEBA?AVUnicodeString@2@XZ @2551
    ?getSamples@PluralRules@icu_58@@QEAAHAEBVUnicodeString@2@PEANHAEAW4UErrorCode@@@Z @2552
    ?getScientificExponent@DigitList@icu_58@@QEBAHHH@Z @2553
    ?getScriptIndex@CollationData@icu_58@@AEBAHH@Z @2554
    ?getSecondaries@CollationFastLatin@icu_58@@CAIII@Z @2555
    ?getSecondariesFromOneShortCE@CollationFastLatin@icu_58@@CAII@Z @2556
    ?getSecondaryAfter@CollationRootElements@icu_58@@QEBAIHI@Z @2557
    ?getSecondaryBefore@CollationRootElements@icu_58@@QEBAIII@Z @2558
    ?getSecondaryBoundary@CollationRootElements@icu_58@@QEBAIXZ @2559
    ?getSecondaryGroupingSize@DecimalFormat@icu_58@@QEBAHXZ @2560
    ?getSeparatorCount@DigitGrouping@icu_58@@QEBAHH@Z @2561
    ?getSettings@CollationRoot@icu_58@@SAPEBUCollationSettings@2@AEAW4UErrorCode@@@Z @2562
    ?getShortID@ZoneMeta@icu_58@@SAPEB_WAEBVTimeZone@2@@Z @2563
    ?getShortID@ZoneMeta@icu_58@@SAPEB_WAEBVUnicodeString@2@@Z @2564
    ?getShortIDFromCanonical@ZoneMeta@icu_58@@CAPEB_WPEB_W@Z @2565
    ?getShortMonths@DateFormatSymbols@icu_58@@QEBAPEBVUnicodeString@2@AEAH@Z @2566
    ?getShortWeekdays@DateFormatSymbols@icu_58@@QEBAPEBVUnicodeString@2@AEAH@Z @2567
    ?getSiderealOffset@CalendarAstronomer@icu_58@@AEAANXZ @2568
    ?getSimpleRulesNear@BasicTimeZone@icu_58@@UEBAXNAEAPEAVInitialTimeZoneRule@2@AEAPEAVAnnualTimeZoneRule@2@1AEAW4UErrorCode@@@Z @2569
    ?getSingleCE@CollationData@icu_58@@QEBA_JHAEAW4UErrorCode@@@Z @2570
    ?getSingleCE@CollationDataBuilder@icu_58@@QEBA_JHAEAW4UErrorCode@@@Z @2571
    ?getSkeleton@DateTimePatternGenerator@icu_58@@QEAA?AVUnicodeString@2@AEBV32@AEAW4UErrorCode@@@Z @2572
    ?getSkeletons@DateTimePatternGenerator@icu_58@@QEBAPEAVStringEnumeration@2@AEAW4UErrorCode@@@Z @2573
    ?getSkippedWallTimeOption@Calendar@icu_58@@QEBA?AW4UCalendarWallTimeOption@@XZ @2574
    ?getSmallestInterval@DigitList@icu_58@@QEBAAEAVDigitInterval@2@AEAV32@@Z @2575
    ?getSmpFmtLocale@SimpleDateFormat@icu_58@@QEBAAEBVLocale@2@XZ @2576
    ?getSortKey@RuleBasedCollator@icu_58@@UEBAHAEBVUnicodeString@2@PEAEH@Z @2577
    ?getSortKey@RuleBasedCollator@icu_58@@UEBAHPEB_WHPEAEH@Z @2578
    ?getSourceSet@Transliterator@icu_58@@QEBAAEAVUnicodeSet@2@AEAV32@@Z @2579
    ?getSpecialResetPosition@CollationBuilder@icu_58@@AEAA_JAEBVUnicodeString@2@AEAPEBDAEAW4UErrorCode@@@Z @2580
    ?getStackLimit@RegexMatcher@icu_58@@UEBAHXZ @2581
    ?getStartInYear@AnnualTimeZoneRule@icu_58@@QEBACHHHAEAN@Z @2582
    ?getStartTimeAt@TimeArrayTimeZoneRule@icu_58@@QEBACHAEAN@Z @2583
    ?getStartYear@AnnualTimeZoneRule@icu_58@@QEBAHXZ @2584
    ?getStaticClassID@AnnualTimeZoneRule@icu_58@@SAPEAXXZ @2585
    ?getStaticClassID@AnyTransliterator@icu_58@@SAPEAXXZ @2586
    ?getStaticClassID@BreakTransliterator@icu_58@@SAPEAXXZ @2587
    ?getStaticClassID@BuddhistCalendar@icu_58@@SAPEAXXZ @2588
    ?getStaticClassID@CaseMapTransliterator@icu_58@@SAPEAXXZ @2589
    ?getStaticClassID@ChineseCalendar@icu_58@@SAPEAXXZ @2590
    ?getStaticClassID@ChoiceFormat@icu_58@@SAPEAXXZ @2591
    ?getStaticClassID@CollationElementIterator@icu_58@@SAPEAXXZ @2592
    ?getStaticClassID@CollationKey@icu_58@@SAPEAXXZ @2593
    ?getStaticClassID@CompactDecimalFormat@icu_58@@SAPEAXXZ @2594
    ?getStaticClassID@CompoundTransliterator@icu_58@@SAPEAXXZ @2595
    ?getStaticClassID@CopticCalendar@icu_58@@SAPEAXXZ @2596
    ?getStaticClassID@CurrencyAmount@icu_58@@SAPEAXXZ @2597
    ?getStaticClassID@CurrencyPluralInfo@icu_58@@SAPEAXXZ @2598
    ?getStaticClassID@CurrencyUnit@icu_58@@SAPEAXXZ @2599
    ?getStaticClassID@DangiCalendar@icu_58@@SAPEAXXZ @2600
    ?getStaticClassID@DateFormatSymbols@icu_58@@SAPEAXXZ @2601
    ?getStaticClassID@DateIntervalFormat@icu_58@@SAPEAXXZ @2602
    ?getStaticClassID@DateIntervalInfo@icu_58@@SAPEAXXZ @2603
    ?getStaticClassID@DateTimePatternGenerator@icu_58@@SAPEAXXZ @2604
    ?getStaticClassID@DateTimeRule@icu_58@@SAPEAXXZ @2605
    ?getStaticClassID@DecimalFormat@icu_58@@SAPEAXXZ @2606
    ?getStaticClassID@DecimalFormatSymbols@icu_58@@SAPEAXXZ @2607
    ?getStaticClassID@EscapeTransliterator@icu_58@@SAPEAXXZ @2608
    ?getStaticClassID@EthiopicCalendar@icu_58@@SAPEAXXZ @2609
    ?getStaticClassID@FieldPosition@icu_58@@SAPEAXXZ @2610
    ?getStaticClassID@Formattable@icu_58@@SAPEAXXZ @2611
    ?getStaticClassID@GregorianCalendar@icu_58@@SAPEAXXZ @2612
    ?getStaticClassID@HebrewCalendar@icu_58@@SAPEAXXZ @2613
    ?getStaticClassID@IndianCalendar@icu_58@@SAPEAXXZ @2614
    ?getStaticClassID@InitialTimeZoneRule@icu_58@@SAPEAXXZ @2615
    ?getStaticClassID@IslamicCalendar@icu_58@@SAPEAXXZ @2616
    ?getStaticClassID@JapaneseCalendar@icu_58@@SAPEAXXZ @2617
    ?getStaticClassID@LowercaseTransliterator@icu_58@@SAPEAXXZ @2618
    ?getStaticClassID@Measure@icu_58@@SAPEAXXZ @2619
    ?getStaticClassID@MeasureFormat@icu_58@@SAPEAXXZ @2620
    ?getStaticClassID@MeasureUnit@icu_58@@SAPEAXXZ @2621
    ?getStaticClassID@MessageFormat@icu_58@@SAPEAXXZ @2622
    ?getStaticClassID@NameUnicodeTransliterator@icu_58@@SAPEAXXZ @2623
    ?getStaticClassID@NormalizationTransliterator@icu_58@@SAPEAXXZ @2624
    ?getStaticClassID@NullTransliterator@icu_58@@SAPEAXXZ @2625
    ?getStaticClassID@NumberFormat@icu_58@@SAPEAXXZ @2626
    ?getStaticClassID@NumberingSystem@icu_58@@SAPEAXXZ @2627
    ?getStaticClassID@OlsonTimeZone@icu_58@@SAPEAXXZ @2628
    ?getStaticClassID@PersianCalendar@icu_58@@SAPEAXXZ @2629
    ?getStaticClassID@PluralFormat@icu_58@@SAPEAXXZ @2630
    ?getStaticClassID@PluralRules@icu_58@@SAPEAXXZ @2631
    ?getStaticClassID@RegexMatcher@icu_58@@SAPEAXXZ @2632
    ?getStaticClassID@RegexPattern@icu_58@@SAPEAXXZ @2633
    ?getStaticClassID@RelativeDateFormat@icu_58@@SAPEAXXZ @2634
    ?getStaticClassID@RemoveTransliterator@icu_58@@SAPEAXXZ @2635
    ?getStaticClassID@RuleBasedCollator@icu_58@@SAPEAXXZ @2636
    ?getStaticClassID@RuleBasedNumberFormat@icu_58@@SAPEAXXZ @2637
    ?getStaticClassID@RuleBasedTimeZone@icu_58@@SAPEAXXZ @2638
    ?getStaticClassID@RuleBasedTransliterator@icu_58@@SAPEAXXZ @2639
    ?getStaticClassID@SelectFormat@icu_58@@SAPEAXXZ @2640
    ?getStaticClassID@SimpleDateFormat@icu_58@@SAPEAXXZ @2641
    ?getStaticClassID@SimpleTimeZone@icu_58@@SAPEAXXZ @2642
    ?getStaticClassID@StringSearch@icu_58@@SAPEAXXZ @2643
    ?getStaticClassID@TaiwanCalendar@icu_58@@SAPEAXXZ @2644
    ?getStaticClassID@TimeArrayTimeZoneRule@icu_58@@SAPEAXXZ @2645
    ?getStaticClassID@TimeUnit@icu_58@@SAPEAXXZ @2646
    ?getStaticClassID@TimeUnitAmount@icu_58@@SAPEAXXZ @2647
    ?getStaticClassID@TimeUnitFormat@icu_58@@SAPEAXXZ @2648
    ?getStaticClassID@TimeZone@icu_58@@SAPEAXXZ @2649
    ?getStaticClassID@TimeZoneFormat@icu_58@@SAPEAXXZ @2650
    ?getStaticClassID@TimeZoneTransition@icu_58@@SAPEAXXZ @2651
    ?getStaticClassID@TitlecaseTransliterator@icu_58@@SAPEAXXZ @2652
    ?getStaticClassID@Transliterator@icu_58@@SAPEAXXZ @2653
    ?getStaticClassID@UnescapeTransliterator@icu_58@@SAPEAXXZ @2654
    ?getStaticClassID@UnicodeNameTransliterator@icu_58@@SAPEAXXZ @2655
    ?getStaticClassID@UppercaseTransliterator@icu_58@@SAPEAXXZ @2656
    ?getStaticClassID@VTimeZone@icu_58@@SAPEAXXZ @2657
    ?getStaticClassID@Win32DateFormat@icu_58@@SAPEAXXZ @2658
    ?getStaticClassID@Win32NumberFormat@icu_58@@SAPEAXXZ @2659
    ?getStrength@CollationSettings@icu_58@@QEBAHXZ @2660
    ?getStrength@CollationSettings@icu_58@@SAHH@Z @2661
    ?getStrength@Collator@icu_58@@UEBA?AW4ECollationStrength@12@XZ @2662
    ?getString@Formattable@icu_58@@QEAAAEAVUnicodeString@2@AEAW4UErrorCode@@@Z @2663
    ?getString@Formattable@icu_58@@QEAAAEAVUnicodeString@2@XZ @2664
    ?getString@Formattable@icu_58@@QEBAAEAVUnicodeString@2@AEAV32@@Z @2665
    ?getString@Formattable@icu_58@@QEBAAEAVUnicodeString@2@AEAV32@AEAW4UErrorCode@@@Z @2666
    ?getString@Formattable@icu_58@@QEBAAEBVUnicodeString@2@AEAW4UErrorCode@@@Z @2667
    ?getString@Formattable@icu_58@@QEBAAEBVUnicodeString@2@XZ @2668
    ?getSubtype@MeasureUnit@icu_58@@QEBAPEBDXZ @2669
    ?getSunLongitude@CalendarAstronomer@icu_58@@QEAANXZ @2670
    ?getSunLongitude@CalendarAstronomer@icu_58@@QEAAXNAEAN0@Z @2671
    ?getSunPosition@CalendarAstronomer@icu_58@@QEAAAEAVEquatorial@12@AEAV312@@Z @2672
    ?getSunRiseSet@CalendarAstronomer@icu_58@@QEAANC@Z @2673
    ?getSunTime@CalendarAstronomer@icu_58@@QEAANNC@Z @2674
    ?getSupportedIDs@SimpleNumberFormatFactory@icu_58@@UEBAPEBVUnicodeString@2@AEAHAEAW4UErrorCode@@@Z @2675
    ?getSymbol@CurrencyAffixInfo@icu_58@@QEBAAEBVUnicodeString@2@XZ @2676
    ?getSymbol@DecimalFormatSymbols@icu_58@@QEBA?AVUnicodeString@2@W4ENumberFormatSymbol@12@@Z @2677
    ?getTZDBTimeZoneNames@TimeZoneFormat@icu_58@@AEBAPEBVTZDBTimeZoneNames@2@AEAW4UErrorCode@@@Z @2678
    ?getTZDataVersion@TimeZone@icu_58@@SAPEBDAEAW4UErrorCode@@@Z @2679
    ?getTZURL@VTimeZone@icu_58@@QEBACAEAVUnicodeString@2@@Z @2680
    ?getTable@CollationFastLatinBuilder@icu_58@@QEBAPEBGXZ @2681
    ?getTailoredSet@Collator@icu_58@@UEBAPEAVUnicodeSet@2@AEAW4UErrorCode@@@Z @2682
    ?getTailoredSet@RuleBasedCollator@icu_58@@UEBAPEAVUnicodeSet@2@AEAW4UErrorCode@@@Z @2683
    ?getTargetSet@CompoundTransliterator@icu_58@@UEBAAEAVUnicodeSet@2@AEAV32@@Z @2684
    ?getTargetSet@Transliterator@icu_58@@UEBAAEAVUnicodeSet@2@AEAV32@@Z @2685
    ?getTertiaries@CollationFastLatin@icu_58@@CAIICI@Z @2686
    ?getTertiaryAfter@CollationRootElements@icu_58@@QEBAIHII@Z @2687
    ?getTertiaryBefore@CollationRootElements@icu_58@@QEBAIIII@Z @2688
    ?getTertiaryBoundary@CollationRootElements@icu_58@@QEBAIXZ @2689
    ?getTertiaryMask@CollationSettings@icu_58@@SAIH@Z @2690
    ?getText@SearchIterator@icu_58@@QEBAAEBVUnicodeString@2@XZ @2691
    ?getThreeBytePrimaryForOffsetData@Collation@icu_58@@SAIH_J@Z @2692
    ?getTime@Calendar@icu_58@@QEBANAEAW4UErrorCode@@@Z @2693
    ?getTime@CalendarAstronomer@icu_58@@QEAANXZ @2694
    ?getTime@TimeZoneTransition@icu_58@@QEBANXZ @2695
    ?getTimeInMillis@Calendar@icu_58@@IEBANAEAW4UErrorCode@@@Z @2696
    ?getTimeLimit@RegexMatcher@icu_58@@UEBAHXZ @2697
    ?getTimeRuleType@DateTimeRule@icu_58@@QEBA?AW4TimeRuleType@12@XZ @2698
    ?getTimeSeparatorString@DateFormatSymbols@icu_58@@QEBAAEAVUnicodeString@2@AEAV32@@Z @2699
    ?getTimeType@TimeArrayTimeZoneRule@icu_58@@QEBA?AW4TimeRuleType@DateTimeRule@2@XZ @2700
    ?getTimeType@TimeZoneFormat@icu_58@@CA?AW4UTimeZoneFormatTimeType@@W4UTimeZoneNameType@@@Z @2701
    ?getTimeUnit@TimeUnitAmount@icu_58@@QEBAAEBVTimeUnit@2@XZ @2702
    ?getTimeUnitField@TimeUnit@icu_58@@QEBA?AW4UTimeUnitFields@12@XZ @2703
    ?getTimeUnitField@TimeUnitAmount@icu_58@@QEBA?AW4UTimeUnitFields@TimeUnit@2@XZ @2704
    ?getTimeUnitName@TimeUnitFormat@icu_58@@CAPEBDW4UTimeUnitFields@TimeUnit@2@AEAW4UErrorCode@@@Z @2705
    ?getTimeZone@Calendar@icu_58@@QEBAAEBVTimeZone@2@XZ @2706
    ?getTimeZone@DateFormat@icu_58@@UEBAAEBVTimeZone@2@XZ @2707
    ?getTimeZone@DateIntervalFormat@icu_58@@UEBAAEBVTimeZone@2@XZ @2708
    ?getTimeZoneFormat@SimpleDateFormat@icu_58@@UEBAPEBVTimeZoneFormat@2@XZ @2709
    ?getTimeZoneGenericNames@TimeZoneFormat@icu_58@@AEBAPEBVTimeZoneGenericNames@2@AEAW4UErrorCode@@@Z @2710
    ?getTimeZoneID@TimeZoneFormat@icu_58@@AEBAAEAVUnicodeString@2@PEBVMatchInfoCollection@TimeZoneNames@2@HAEAV32@@Z @2711
    ?getTimeZoneIDAt@MatchInfoCollection@TimeZoneNames@icu_58@@QEBACHAEAVUnicodeString@3@@Z @2712
    ?getTimeZoneNames@TimeZoneFormat@icu_58@@QEBAPEBVTimeZoneNames@2@XZ @2713
    ?getTimeZoneRules@OlsonTimeZone@icu_58@@UEBAXAEAPEBVInitialTimeZoneRule@2@QEAPEBVTimeZoneRule@2@AEAHAEAW4UErrorCode@@@Z @2714
    ?getTimeZoneRules@RuleBasedTimeZone@icu_58@@UEBAXAEAPEBVInitialTimeZoneRule@2@QEAPEBVTimeZoneRule@2@AEAHAEAW4UErrorCode@@@Z @2715
    ?getTimeZoneRules@SimpleTimeZone@icu_58@@UEBAXAEAPEBVInitialTimeZoneRule@2@QEAPEBVTimeZoneRule@2@AEAHAEAW4UErrorCode@@@Z @2716
    ?getTimeZoneRules@VTimeZone@icu_58@@UEBAXAEAPEBVInitialTimeZoneRule@2@QEAPEBVTimeZoneRule@2@AEAHAEAW4UErrorCode@@@Z @2717
    ?getTimeZoneRulesAfter@BasicTimeZone@icu_58@@IEBAXNAEAPEAVInitialTimeZoneRule@2@AEAPEAVUVector@2@AEAW4UErrorCode@@@Z @2718
    ?getTo@TimeZoneTransition@icu_58@@QEBAPEBVTimeZoneRule@2@XZ @2719
    ?getTokenLength@AffixPatternIterator@icu_58@@QEBAHXZ @2720
    ?getTokenType@AffixPatternIterator@icu_58@@QEBA?AW4ETokenType@AffixPattern@2@XZ @2721
    ?getTopBitNumber@DateTimePatternGenerator@icu_58@@AEAAHH@Z @2722
    ?getTransitionTime@RuleBasedTimeZone@icu_58@@AEBANPEAUTransition@2@CHH@Z @2723
    ?getTransliterator@CompoundTransliterator@icu_58@@UEBAAEBVTransliterator@2@H@Z @2724
    ?getType@ChineseCalendar@icu_58@@UEBAPEBDXZ @2725
    ?getType@Formattable@icu_58@@QEBA?AW4Type@12@XZ @2726
    ?getType@GregorianCalendar@icu_58@@UEBAPEBDXZ @2727
    ?getType@HebrewCalendar@icu_58@@UEBAPEBDXZ @2728
    ?getType@IslamicCalendar@icu_58@@UEBAPEBDXZ @2729
    ?getType@MeasureUnit@icu_58@@QEBAPEBDXZ @2730
    ?getType@Region@icu_58@@QEBA?AW4URegionType@@XZ @2731
    ?getUCAVersion@CollationTailoring@icu_58@@QEBAHXZ @2732
    ?getUTC@TimeArrayTimeZoneRule@icu_58@@AEBANNHH@Z @2733
    ?getUnderflowLabel@AlphabeticIndex@icu_58@@UEBAAEBVUnicodeString@2@XZ @2734
    ?getUniqueKeywordValue@PluralRules@icu_58@@QEAANAEBVUnicodeString@2@@Z @2735
    ?getUnit@Measure@icu_58@@QEBAAEBVMeasureUnit@2@XZ @2736
    ?getUnitDisplayName@MeasureFormat@icu_58@@QEBA?AVUnicodeString@2@AEBVMeasureUnit@2@AEAW4UErrorCode@@@Z @2737
    ?getUnknown@TimeZone@icu_58@@SAAEBV12@XZ @2738
    ?getUpperExponent@DigitList@icu_58@@QEBAHXZ @2739
    ?getVariableTop@RuleBasedCollator@icu_58@@UEBAIAEAW4UErrorCode@@@Z @2740
    ?getVersion@RuleBasedCollator@icu_58@@UEBAXQEAE@Z @2741
    ?getVisibleFractionDigitCount@FixedDecimal@icu_58@@QEBAHXZ @2742
    ?getWeekdays@DateFormatSymbols@icu_58@@QEBAPEBVUnicodeString@2@AEAH@Z @2743
    ?getWeekdays@DateFormatSymbols@icu_58@@QEBAPEBVUnicodeString@2@AEAHW4DtContextType@12@W4DtWidthType@12@@Z @2744
    ?getWeekendTransition@Calendar@icu_58@@UEBAHW4UCalendarDaysOfWeek@@AEAW4UErrorCode@@@Z @2745
    ?getWeight16Before@CollationBuilder@icu_58@@AEAAIH_JH@Z @2746
    ?getWeightRanges@CollationWeights@icu_58@@AEAACII@Z @2747
    ?getWindowsID@TimeZone@icu_58@@SAAEAVUnicodeString@2@AEBV32@AEAV32@AEAW4UErrorCode@@@Z @2748
    ?getYearNames@DateFormatSymbols@icu_58@@QEBAPEBVUnicodeString@2@AEAHW4DtContextType@12@W4DtWidthType@12@@Z @2749
    ?getZodiacNames@DateFormatSymbols@icu_58@@QEBAPEBVUnicodeString@2@AEAHW4DtContextType@12@W4DtWidthType@12@@Z @2750
    ?getZoneIdByMetazone@ZoneMeta@icu_58@@SAAEAVUnicodeString@2@AEBV32@0AEAV32@@Z @2751
    ?getZoneStrings@DateFormatSymbols@icu_58@@QEBAPEAPEBVUnicodeString@2@AEAH0@Z @2752
    ?greater@Collator@icu_58@@QEBACAEBVUnicodeString@2@0@Z @2753
    ?greaterOrEqual@Collator@icu_58@@QEBACAEBVUnicodeString@2@0@Z @2754
    ?group@RegexMatcher@icu_58@@UEBA?AVUnicodeString@2@AEAW4UErrorCode@@@Z @2755
    ?group@RegexMatcher@icu_58@@UEBA?AVUnicodeString@2@HAEAW4UErrorCode@@@Z @2756
    ?group@RegexMatcher@icu_58@@UEBAPEAUUText@@HPEAU3@AEA_JAEAW4UErrorCode@@@Z @2757
    ?group@RegexMatcher@icu_58@@UEBAPEAUUText@@PEAU3@AEA_JAEAW4UErrorCode@@@Z @2758
    ?groupCount@RegexMatcher@icu_58@@UEBAHXZ @2759
    ?groupNumberFromName@RegexPattern@icu_58@@UEBAHAEBVUnicodeString@2@AEAW4UErrorCode@@@Z @2760
    ?groupNumberFromName@RegexPattern@icu_58@@UEBAHPEBDHAEAW4UErrorCode@@@Z @2761
    ?growNodes@TextTrieMap@icu_58@@AEAACXZ @2762
    ?hackTimes@DateTimePatternGenerator@icu_58@@AEAAXAEBVUnicodeString@2@AEAW4UErrorCode@@@Z @2763
    ?handleCloseParen@RegexCompile@icu_58@@AEAAXXZ @2764
    ?handleComputeFields@Calendar@icu_58@@MEAAXHAEAW4UErrorCode@@@Z @2765
    ?handleComputeFields@ChineseCalendar@icu_58@@MEAAXHAEAW4UErrorCode@@@Z @2766
    ?handleComputeFields@GregorianCalendar@icu_58@@MEAAXHAEAW4UErrorCode@@@Z @2767
    ?handleComputeFields@HebrewCalendar@icu_58@@MEAAXHAEAW4UErrorCode@@@Z @2768
    ?handleComputeFields@IslamicCalendar@icu_58@@MEAAXHAEAW4UErrorCode@@@Z @2769
    ?handleComputeJulianDay@Calendar@icu_58@@MEAAHW4UCalendarDateFields@@@Z @2770
    ?handleComputeJulianDay@GregorianCalendar@icu_58@@MEAAHW4UCalendarDateFields@@@Z @2771
    ?handleComputeMonthStart@CECalendar@icu_58@@MEBAHHHC@Z @2772
    ?handleComputeMonthStart@ChineseCalendar@icu_58@@MEBAHHHC@Z @2773
    ?handleComputeMonthStart@GregorianCalendar@icu_58@@MEBAHHHC@Z @2774
    ?handleComputeMonthStart@HebrewCalendar@icu_58@@MEBAHHHC@Z @2775
    ?handleComputeMonthStart@IslamicCalendar@icu_58@@MEBAHHHC@Z @2776
    ?handleCurrencySignInPattern@DecimalFormat@icu_58@@AEAAXAEAW4UErrorCode@@@Z @2777
    ?handleGetExtendedYear@ChineseCalendar@icu_58@@MEAAHXZ @2778
    ?handleGetExtendedYear@GregorianCalendar@icu_58@@MEAAHXZ @2779
    ?handleGetExtendedYear@HebrewCalendar@icu_58@@MEAAHXZ @2780
    ?handleGetExtendedYear@IslamicCalendar@icu_58@@MEAAHXZ @2781
    ?handleGetExtendedYearFromWeekFields@Calendar@icu_58@@MEAAHHH@Z @2782
    ?handleGetExtendedYearFromWeekFields@GregorianCalendar@icu_58@@MEAAHHH@Z @2783
    ?handleGetLimit@CECalendar@icu_58@@MEBAHW4UCalendarDateFields@@W4ELimitType@Calendar@2@@Z @2784
    ?handleGetLimit@ChineseCalendar@icu_58@@MEBAHW4UCalendarDateFields@@W4ELimitType@Calendar@2@@Z @2785
    ?handleGetLimit@GregorianCalendar@icu_58@@MEBAHW4UCalendarDateFields@@W4ELimitType@Calendar@2@@Z @2786
    ?handleGetLimit@HebrewCalendar@icu_58@@MEBAHW4UCalendarDateFields@@W4ELimitType@Calendar@2@@Z @2787
    ?handleGetLimit@IslamicCalendar@icu_58@@MEBAHW4UCalendarDateFields@@W4ELimitType@Calendar@2@@Z @2788
    ?handleGetMonthLength@Calendar@icu_58@@MEBAHHH@Z @2789
    ?handleGetMonthLength@ChineseCalendar@icu_58@@MEBAHHH@Z @2790
    ?handleGetMonthLength@GregorianCalendar@icu_58@@MEBAHHH@Z @2791
    ?handleGetMonthLength@HebrewCalendar@icu_58@@MEBAHHH@Z @2792
    ?handleGetMonthLength@IslamicCalendar@icu_58@@MEBAHHH@Z @2793
    ?handleGetSourceSet@CompoundTransliterator@icu_58@@MEBAXAEAVUnicodeSet@2@@Z @2794
    ?handleGetSourceSet@Transliterator@icu_58@@UEBAXAEAVUnicodeSet@2@@Z @2795
    ?handleGetTrailSurrogate@CollationIterator@icu_58@@MEAA_WXZ @2796
    ?handleGetTrailSurrogate@FCDUIterCollationIterator@icu_58@@MEAA_WXZ @2797
    ?handleGetTrailSurrogate@FCDUTF8CollationIterator@icu_58@@MEAA_WXZ @2798
    ?handleGetTrailSurrogate@UIterCollationIterator@icu_58@@MEAA_WXZ @2799
    ?handleGetTrailSurrogate@UTF16CollationIterator@icu_58@@MEAA_WXZ @2800
    ?handleGetYearLength@Calendar@icu_58@@MEBAHH@Z @2801
    ?handleGetYearLength@GregorianCalendar@icu_58@@MEBAHH@Z @2802
    ?handleGetYearLength@HebrewCalendar@icu_58@@MEBAHH@Z @2803
    ?handleGetYearLength@IslamicCalendar@icu_58@@MEBAHH@Z @2804
    ?handleNext@StringSearch@icu_58@@MEAAHHAEAW4UErrorCode@@@Z @2805
    ?handleNextCE32@CollationIterator@icu_58@@MEAAIAEAHAEAW4UErrorCode@@@Z @2806
    ?handleNextCE32@FCDUIterCollationIterator@icu_58@@MEAAIAEAHAEAW4UErrorCode@@@Z @2807
    ?handleNextCE32@FCDUTF16CollationIterator@icu_58@@MEAAIAEAHAEAW4UErrorCode@@@Z @2808
    ?handleNextCE32@FCDUTF8CollationIterator@icu_58@@MEAAIAEAHAEAW4UErrorCode@@@Z @2809
    ?handleNextCE32@UIterCollationIterator@icu_58@@MEAAIAEAHAEAW4UErrorCode@@@Z @2810
    ?handleNextCE32@UTF16CollationIterator@icu_58@@MEAAIAEAHAEAW4UErrorCode@@@Z @2811
    ?handleNextCE32@UTF8CollationIterator@icu_58@@MEAAIAEAHAEAW4UErrorCode@@@Z @2812
    ?handleNonNumeric@FixedPrecision@icu_58@@CACAEAVDigitList@2@AEAVVisibleDigits@2@@Z @2813
    ?handlePrev@StringSearch@icu_58@@MEAAHHAEAW4UErrorCode@@@Z @2814
    ?handleTransliterate@CompoundTransliterator@icu_58@@MEBAXAEAVReplaceable@2@AEAUUTransPosition@@C@Z @2815
    ?hasAnchoringBounds@RegexMatcher@icu_58@@UEBACXZ @2816
    ?hasBackwardSecondary@CollationSettings@icu_58@@QEBACXZ @2817
    ?hasCE32Tag@Collation@icu_58@@SACIH@Z @2818
    ?hasEquivalentTransitions@BasicTimeZone@icu_58@@UEBACAEBV12@NNCAEAW4UErrorCode@@@Z @2819
    ?hasLccc@CollationFCD@icu_58@@SACH@Z @2820
    ?hasMappings@CollationDataBuilder@icu_58@@QEBACXZ @2821
    ?hasMultipleVariants@PluralAffix@icu_58@@QEBACXZ @2822
    ?hasNoMajorSolarTerm@ChineseCalendar@icu_58@@EEBACH@Z @2823
    ?hasReordering@CollationSettings@icu_58@@QEBACXZ @2824
    ?hasSameRules@OlsonTimeZone@icu_58@@UEBACAEBVTimeZone@2@@Z @2825
    ?hasSameRules@RuleBasedTimeZone@icu_58@@UEBACAEBVTimeZone@2@@Z @2826
    ?hasSameRules@SimpleTimeZone@icu_58@@UEBACAEBVTimeZone@2@@Z @2827
    ?hasSameRules@TimeZone@icu_58@@UEBACAEBV12@@Z @2828
    ?hasSameRules@VTimeZone@icu_58@@UEBACAEBVTimeZone@2@@Z @2829
    ?hasTccc@CollationFCD@icu_58@@SACH@Z @2830
    ?hasTransparentBounds@RegexMatcher@icu_58@@UEBACXZ @2831
    ?hashCode@?$CacheKey@VDateFmtBestPattern@icu_58@@@icu_58@@UEBAHXZ @2832
    ?hashCode@?$LocaleCacheKey@VDateFmtBestPattern@icu_58@@@icu_58@@UEBAHXZ @2833
    ?hashCode@CollationKey@icu_58@@QEBAHXZ @2834
    ?hashCode@CollationSettings@icu_58@@QEBAHXZ @2835
    ?hashCode@DateFmtBestPatternKey@icu_58@@UEBAHXZ @2836
    ?hashCode@RuleBasedCollator@icu_58@@UEBAHXZ @2837
    ?hashCode@ScriptSet@icu_58@@QEBAHXZ @2838
    ?haveDefaultCentury@CECalendar@icu_58@@MEBACXZ @2839
    ?haveDefaultCentury@ChineseCalendar@icu_58@@MEBACXZ @2840
    ?haveDefaultCentury@GregorianCalendar@icu_58@@UEBACXZ @2841
    ?haveDefaultCentury@HebrewCalendar@icu_58@@MEBACXZ @2842
    ?haveDefaultCentury@IslamicCalendar@icu_58@@MEBACXZ @2843
    ?hitEnd@RegexMatcher@icu_58@@UEBACXZ @2844
    ?ignorePrefix@CollationBuilder@icu_58@@AEBACAEBVUnicodeString@2@AEAW4UErrorCode@@@Z @2845
    ?ignoreString@CollationBuilder@icu_58@@AEBACAEBVUnicodeString@2@AEAW4UErrorCode@@@Z @2846
    ?inDaylightTime@CECalendar@icu_58@@MEBACAEAW4UErrorCode@@@Z @2847
    ?inDaylightTime@ChineseCalendar@icu_58@@MEBACAEAW4UErrorCode@@@Z @2848
    ?inDaylightTime@GregorianCalendar@icu_58@@UEBACAEAW4UErrorCode@@@Z @2849
    ?inDaylightTime@HebrewCalendar@icu_58@@MEBACAEAW4UErrorCode@@@Z @2850
    ?inDaylightTime@IslamicCalendar@icu_58@@MEBACAEAW4UErrorCode@@@Z @2851
    ?inDaylightTime@OlsonTimeZone@icu_58@@UEBACNAEAW4UErrorCode@@@Z @2852
    ?inDaylightTime@RuleBasedTimeZone@icu_58@@UEBACNAEAW4UErrorCode@@@Z @2853
    ?inDaylightTime@SimpleTimeZone@icu_58@@UEBACNAEAW4UErrorCode@@@Z @2854
    ?inDaylightTime@VTimeZone@icu_58@@UEBACNAEAW4UErrorCode@@@Z @2855
    ?inSameGroup@CollationFastLatinBuilder@icu_58@@AEBACII@Z @2856
    ?incThreeBytePrimaryByOffset@Collation@icu_58@@SAIICH@Z @2857
    ?incTwoBytePrimaryByOffset@Collation@icu_58@@SAIICH@Z @2858
    ?incWeight@CollationWeights@icu_58@@AEBAIIH@Z @2859
    ?incWeightByOffset@CollationWeights@icu_58@@AEBAIIHH@Z @2860
    ?indexFromCE32@Collation@icu_58@@SAHI@Z @2861
    ?indexFromString@StandardPlural@icu_58@@SAHAEBVUnicodeString@2@AEAW4UErrorCode@@@Z @2862
    ?indexFromString@StandardPlural@icu_58@@SAHPEBDAEAW4UErrorCode@@@Z @2863
    ?indexFromTempCE32@CollationBuilder@icu_58@@CAHI@Z @2864
    ?indexFromTempCE@CollationBuilder@icu_58@@CAH_J@Z @2865
    ?indexOrNegativeFromString@StandardPlural@icu_58@@SAHAEBVUnicodeString@2@@Z @2866
    ?indexOrNegativeFromString@StandardPlural@icu_58@@SAHPEBD@Z @2867
    ?indexOrOtherIndexFromString@StandardPlural@icu_58@@SAHAEBVUnicodeString@2@@Z @2868
    ?indexOrOtherIndexFromString@StandardPlural@icu_58@@SAHPEBD@Z @2869
    ?init2@RegexMatcher@icu_58@@AEAAXPEAUUText@@AEAW4UErrorCode@@@Z @2870
    ?init@AlphabeticIndex@icu_58@@AEAAXPEBVLocale@2@AEAW4UErrorCode@@@Z @2871
    ?init@CompoundTransliterator@icu_58@@AEAAXAEAVUVector@2@W4UTransDirection@@CAEAW4UErrorCode@@@Z @2872
    ?init@CompoundTransliterator@icu_58@@AEAAXAEBVUnicodeString@2@W4UTransDirection@@CAEAW4UErrorCode@@@Z @2873
    ?init@DecimalFormat@icu_58@@AEAAXXZ @2874
    ?init@FixedDecimal@icu_58@@QEAAXN@Z @2875
    ?init@FixedDecimal@icu_58@@QEAAXNH_J@Z @2876
    ?init@Formattable@icu_58@@AEAAXXZ @2877
    ?init@PluralFormat@icu_58@@AEAAXPEBVPluralRules@2@W4UPluralType@@AEAW4UErrorCode@@@Z @2878
    ?init@RegexMatcher@icu_58@@AEAAXAEAW4UErrorCode@@@Z @2879
    ?init@RegexPattern@icu_58@@AEAAXXZ @2880
    ?init@RelativeDateTimeFormatter@icu_58@@AEAAXPEAVNumberFormat@2@PEAVBreakIterator@2@AEAW4UErrorCode@@@Z @2881
    ?init@RuleBasedNumberFormat@icu_58@@AEAAXAEBVUnicodeString@2@PEAVLocalizationInfo@2@AEAUUParseError@@AEAW4UErrorCode@@@Z @2882
    ?initBuckets@AlphabeticIndex@icu_58@@AEAAXAEAW4UErrorCode@@@Z @2883
    ?initCapitalizationContextInfo@RuleBasedNumberFormat@icu_58@@AEAAXAEBVLocale@2@@Z @2884
    ?initCurrency@MeasureUnit@icu_58@@IEAAXPEBD@Z @2885
    ?initData@DateTimePatternGenerator@icu_58@@AEAAXAEBVLocale@2@AEAW4UErrorCode@@@Z @2886
    ?initDataMembers@TimeUnitFormat@icu_58@@AEAAXAEAW4UErrorCode@@@Z @2887
    ?initDefaultRuleSet@RuleBasedNumberFormat@icu_58@@AEAAXXZ @2888
    ?initForPrimary@CollationWeights@icu_58@@QEAAXC@Z @2889
    ?initForSecondary@CollationWeights@icu_58@@QEAAXXZ @2890
    ?initForTailoring@CollationDataBuilder@icu_58@@QEAAXPEBUCollationData@2@AEAW4UErrorCode@@@Z @2891
    ?initForTertiary@CollationWeights@icu_58@@QEAAXXZ @2892
    ?initGMTOffsetPatterns@TimeZoneFormat@icu_58@@AEAAXAEAW4UErrorCode@@@Z @2893
    ?initGMTPattern@TimeZoneFormat@icu_58@@AEAAXAEBVUnicodeString@2@AEAW4UErrorCode@@@Z @2894
    ?initHash@CurrencyPluralInfo@icu_58@@AEAAPEAVHashtable@2@AEAW4UErrorCode@@@Z @2895
    ?initHash@DateIntervalInfo@icu_58@@AEAAPEAVHashtable@2@AEAW4UErrorCode@@@Z @2896
    ?initHash@TimeUnitFormat@icu_58@@AEAAPEAVHashtable@2@AEAW4UErrorCode@@@Z @2897
    ?initHashForAffixPattern@DecimalFormat@icu_58@@AEAAPEAVHashtable@2@AEAW4UErrorCode@@@Z @2898
    ?initHashtable@DateTimePatternGenerator@icu_58@@AEAAXAEAW4UErrorCode@@@Z @2899
    ?initLabels@AlphabeticIndex@icu_58@@AEBAXAEAVUVector@2@AEAW4UErrorCode@@@Z @2900
    ?initMaxExpansions@RuleBasedCollator@icu_58@@AEBACAEAW4UErrorCode@@@Z @2901
    ?initMeasureFormat@MeasureFormat@icu_58@@IEAAXAEBVLocale@2@W4UMeasureFormatWidth@@PEAVNumberFormat@2@AEAW4UErrorCode@@@Z @2902
    ?initNumberFormatters@SimpleDateFormat@icu_58@@AEAAXAEBVLocale@2@AEAW4UErrorCode@@@Z @2903
    ?initStartTimes@TimeArrayTimeZoneRule@icu_58@@AEAACQEBNHAEAW4UErrorCode@@@Z @2904
    ?initTime@MeasureUnit@icu_58@@IEAAXPEBD@Z @2905
    ?initTransitionRules@OlsonTimeZone@icu_58@@QEAAXAEAW4UErrorCode@@@Z @2906
    ?initTransitionRules@SimpleTimeZone@icu_58@@AEAAXAEAW4UErrorCode@@@Z @2907
    ?initVisibleDigits@FixedPrecision@icu_58@@AEBAC_JHAEAVVisibleDigits@2@AEAW4UErrorCode@@@Z @2908
    ?initVisibleDigits@FixedPrecision@icu_58@@QEBAAEAVVisibleDigits@2@AEAVDigitList@2@AEAV32@AEAW4UErrorCode@@@Z @2909
    ?initVisibleDigits@FixedPrecision@icu_58@@QEBAAEAVVisibleDigits@2@NAEAV32@AEAW4UErrorCode@@@Z @2910
    ?initVisibleDigits@FixedPrecision@icu_58@@QEBAAEAVVisibleDigits@2@_JAEAV32@AEAW4UErrorCode@@@Z @2911
    ?initVisibleDigitsWithExponent@DecimalFormat@icu_58@@QEBAAEAVVisibleDigitsWithExponent@2@AEAVDigitList@2@AEAV32@AEAW4UErrorCode@@@Z @2912
    ?initVisibleDigitsWithExponent@DecimalFormat@icu_58@@QEBAAEAVVisibleDigitsWithExponent@2@AEBVFormattable@2@AEAV32@AEAW4UErrorCode@@@Z @2913
    ?initVisibleDigitsWithExponent@DecimalFormat@icu_58@@QEBAAEAVVisibleDigitsWithExponent@2@NAEAV32@AEAW4UErrorCode@@@Z @2914
    ?initVisibleDigitsWithExponent@FixedPrecision@icu_58@@QEBAAEAVVisibleDigitsWithExponent@2@AEAVDigitList@2@AEAV32@AEAW4UErrorCode@@@Z @2915
    ?initVisibleDigitsWithExponent@FixedPrecision@icu_58@@QEBAAEAVVisibleDigitsWithExponent@2@NAEAV32@AEAW4UErrorCode@@@Z @2916
    ?initVisibleDigitsWithExponent@FixedPrecision@icu_58@@QEBAAEAVVisibleDigitsWithExponent@2@_JAEAV32@AEAW4UErrorCode@@@Z @2917
    ?initVisibleDigitsWithExponent@ScientificPrecision@icu_58@@QEBAAEAVVisibleDigitsWithExponent@2@AEAVDigitList@2@AEAV32@AEAW4UErrorCode@@@Z @2918
    ?initVisibleDigitsWithExponent@ScientificPrecision@icu_58@@QEBAAEAVVisibleDigitsWithExponent@2@NAEAV32@AEAW4UErrorCode@@@Z @2919
    ?initVisibleDigitsWithExponent@ScientificPrecision@icu_58@@QEBAAEAVVisibleDigitsWithExponent@2@_JAEAV32@AEAW4UErrorCode@@@Z @2920
    ?initZoneStringsArray@DateFormatSymbols@icu_58@@AEAAXXZ @2921
    ?initialDstOffset@OlsonTimeZone@icu_58@@AEBAHXZ @2922
    ?initialRawOffset@OlsonTimeZone@icu_58@@AEBAHXZ @2923
    ?initialize@CurrencyPluralInfo@icu_58@@AEAAXAEBVLocale@2@AEAW4UErrorCode@@@Z @2924
    ?initialize@DecimalFormatSymbols@icu_58@@AEAAXAEBVLocale@2@AEAW4UErrorCode@@C@Z @2925
    ?initialize@DecimalFormatSymbols@icu_58@@AEAAXXZ @2926
    ?initialize@SimpleDateFormat@icu_58@@AEAAXAEBVLocale@2@AEAW4UErrorCode@@@Z @2927
    ?initializeBooleanAttributes@SimpleDateFormat@icu_58@@AEAAXXZ @2928
    ?initializeCalendar@SimpleDateFormat@icu_58@@AEAAPEAVCalendar@2@PEAVTimeZone@2@AEBVLocale@2@AEAW4UErrorCode@@@Z @2929
    ?initializeData@DateFormatSymbols@icu_58@@AEAAXAEBVLocale@2@PEBDAEAW4UErrorCode@@C@Z @2930
    ?initializeData@DateIntervalInfo@icu_58@@AEAAXAEBVLocale@2@AEAW4UErrorCode@@@Z @2931
    ?initializeDecimalFormatSymbols@RuleBasedNumberFormat@icu_58@@AEAAPEAVDecimalFormatSymbols@2@AEAW4UErrorCode@@@Z @2932
    ?initializeDefaultCentury@SimpleDateFormat@icu_58@@AEAAXXZ @2933
    ?initializeDefaultInfinityRule@RuleBasedNumberFormat@icu_58@@AEAAPEAVNFRule@2@AEAW4UErrorCode@@@Z @2934
    ?initializeDefaultNaNRule@RuleBasedNumberFormat@icu_58@@AEAAPEAVNFRule@2@AEAW4UErrorCode@@@Z @2935
    ?initializeNew@?$PluralMap@VDigitAffix@icu_58@@@icu_58@@AEAAXXZ @2936
    ?initializePattern@DateIntervalFormat@icu_58@@AEAAXAEAW4UErrorCode@@@Z @2937
    ?initializeRegistry@Transliterator@icu_58@@CACAEAW4UErrorCode@@@Z @2938
    ?initializeSystemDefaultCentury@IslamicCalendar@icu_58@@CAXXZ @2939
    ?input@RegexMatcher@icu_58@@UEBAAEBVUnicodeString@2@XZ @2940
    ?inputText@RegexMatcher@icu_58@@UEBAPEAUUText@@XZ @2941
    ?insertNodeBetween@CollationBuilder@icu_58@@AEAAHHH_JAEAW4UErrorCode@@@Z @2942
    ?insertOp@RegexCompile@icu_58@@AEAAXH@Z @2943
    ?insertTailoredNodeAfter@CollationBuilder@icu_58@@AEAAHHHAEAW4UErrorCode@@@Z @2944
    ?integerToken@Transliterator@icu_58@@SA?ATToken@12@H@Z @2945
    ?internalAddContractions@RuleBasedCollator@icu_58@@QEBAXHAEAVUnicodeSet@2@AEAW4UErrorCode@@@Z @2946
    ?internalBuildTailoring@RuleBasedCollator@icu_58@@QEAAXAEBVUnicodeString@2@HW4UColAttributeValue@@PEAUUParseError@@PEAV32@AEAW4UErrorCode@@@Z @2947
    ?internalClear@DigitList@icu_58@@AEAAXXZ @2948
    ?internalCompareUTF8@Collator@icu_58@@UEBA?AW4UCollationResult@@PEBDH0HAEAW4UErrorCode@@@Z @2949
    ?internalCompareUTF8@RuleBasedCollator@icu_58@@UEBA?AW4UCollationResult@@PEBDH0HAEAW4UErrorCode@@@Z @2950
    ?internalCreateInstance@NumberFormat@icu_58@@SAPEAV12@AEBVLocale@2@W4UNumberFormatStyle@@AEAW4UErrorCode@@@Z @2951
    ?internalForLocale@PluralRules@icu_58@@SAPEAV12@AEBVLocale@2@W4UPluralType@@AEAW4UErrorCode@@@Z @2952
    ?internalGet@Calendar@icu_58@@IEBAHW4EDateFields@12@@Z @2953
    ?internalGet@Calendar@icu_58@@IEBAHW4UCalendarDateFields@@@Z @2954
    ?internalGet@Calendar@icu_58@@IEBAHW4UCalendarDateFields@@H@Z @2955
    ?internalGetCEs@RuleBasedCollator@icu_58@@QEBAXAEBVUnicodeString@2@AEAVUVector64@2@AEAW4UErrorCode@@@Z @2956
    ?internalGetCharString@Formattable@icu_58@@QEAAPEAVCharString@2@AEAW4UErrorCode@@@Z @2957
    ?internalGetContractionsAndExpansions@RuleBasedCollator@icu_58@@QEBAXPEAVUnicodeSet@2@0CAEAW4UErrorCode@@@Z @2958
    ?internalGetDefaultCenturyStart@ChineseCalendar@icu_58@@AEBANXZ @2959
    ?internalGetDefaultCenturyStartYear@ChineseCalendar@icu_58@@AEBAHXZ @2960
    ?internalGetEra@GregorianCalendar@icu_58@@MEBAHXZ @2961
    ?internalGetIndexForTypeAndSubtype@MeasureUnit@icu_58@@SAHPEBD0@Z @2962
    ?internalGetLocaleID@RuleBasedCollator@icu_58@@QEBAPEBDW4ULocDataLocaleType@@AEAW4UErrorCode@@@Z @2963
    ?internalGetShortDefinitionString@Collator@icu_58@@UEBAHPEBDPEADHAEAW4UErrorCode@@@Z @2964
    ?internalGetShortDefinitionString@RuleBasedCollator@icu_58@@UEBAHPEBDPEADHAEAW4UErrorCode@@@Z @2965
    ?internalGetTime@Calendar@icu_58@@IEBANXZ @2966
    ?internalNextSortKeyPart@Collator@icu_58@@UEBAHPEAUUCharIterator@@QEAIPEAEHAEAW4UErrorCode@@@Z @2967
    ?internalNextSortKeyPart@RuleBasedCollator@icu_58@@UEBAHPEAUUCharIterator@@QEAIPEAEHAEAW4UErrorCode@@@Z @2968
    ?internalResetBucketIterator@AlphabeticIndex@icu_58@@AEAAXXZ @2969
    ?internalSet@Calendar@icu_58@@IEAAXW4EDateFields@12@H@Z @2970
    ?internalSet@Calendar@icu_58@@IEAAXW4UCalendarDateFields@@H@Z @2971
    ?internalSetDouble@DigitList@icu_58@@AEAAXN@Z @2972
    ?internalSetTime@Calendar@icu_58@@IEAAXN@Z @2973
    ?intersect@ScriptSet@icu_58@@QEAAAEAV12@AEBV12@@Z @2974
    ?intersect@ScriptSet@icu_58@@QEAAAEAV12@W4UScriptCode@@AEAW4UErrorCode@@@Z @2975
    ?intersects@ScriptSet@icu_58@@QEBACAEBV12@@Z @2976
    ?isAcceptable@CollationDataReader@icu_58@@SACPEAXPEBD1PEBUUDataInfo@@@Z @2977
    ?isAfterNonNumericField@SimpleDateFormat@icu_58@@CACAEBVUnicodeString@2@H@Z @2978
    ?isAlgorithmic@NumberingSystem@icu_58@@QEBACXZ @2979
    ?isAssigned@CollationDataBuilder@icu_58@@QEBACH@Z @2980
    ?isAssignedCE32@Collation@icu_58@@SACI@Z @2981
    ?isAtNumericField@SimpleDateFormat@icu_58@@CACAEBVUnicodeString@2@H@Z @2982
    ?isAvailableFormatSet@DateTimePatternGenerator@icu_58@@AEBACAEBVUnicodeString@2@@Z @2983
    ?isBogus@CollationKey@icu_58@@QEBACXZ @2984
    ?isBogus@CollationTailoring@icu_58@@QEAACXZ @2985
    ?isBuilderContextCE32@CollationDataBuilder@icu_58@@KACI@Z @2986
    ?isCalendarLenient@DateFormat@icu_58@@UEBACXZ @2987
    ?isCanonicalItem@DateTimePatternGenerator@icu_58@@AEBACAEBVUnicodeString@2@@Z @2988
    ?isChunkWordBoundary@RegexMatcher@icu_58@@AEAACH@Z @2989
    ?isCivil@IslamicCalendar@icu_58@@QEAACXZ @2990
    ?isCompressibleLeadByte@CollationData@icu_58@@QEBACI@Z @2991
    ?isCompressibleLeadByte@CollationDataBuilder@icu_58@@UEBACI@Z @2992
    ?isCompressiblePrimary@CollationData@icu_58@@QEBACI@Z @2993
    ?isCompressiblePrimary@CollationDataBuilder@icu_58@@QEBACI@Z @2994
    ?isContractionCE32@Collation@icu_58@@SACI@Z @2995
    ?isContractionCharCE@CollationFastLatinBuilder@icu_58@@CAC_J@Z @2996
    ?isCustomCurrencySymbol@DecimalFormatSymbols@icu_58@@QEBACXZ @2997
    ?isCustomIntlCurrencySymbol@DecimalFormatSymbols@icu_58@@QEBACXZ @2998
    ?isDecimalPatternMatchRequired@DecimalFormat@icu_58@@QEBACXZ @2999
    ?isDecimalSeparatorAlwaysShown@DecimalFormat@icu_58@@QEBACXZ @3000
    ?isDefault@CurrencyAffixInfo@icu_58@@QEBACXZ @3001
    ?isDigit@CollationData@icu_58@@QEBACH@Z @3002
    ?isEmpty@ScriptSet@icu_58@@QEBACXZ @3003
    ?isEmpty@TextTrieMap@icu_58@@QEBAHXZ @3004
    ?isEndOfPrimaryRange@CollationRootElements@icu_58@@CACI@Z @3005
    ?isEquivalentTo@AnnualTimeZoneRule@icu_58@@UEBACAEBVTimeZoneRule@2@@Z @3006
    ?isEquivalentTo@Calendar@icu_58@@UEBACAEBV12@@Z @3007
    ?isEquivalentTo@GregorianCalendar@icu_58@@UEBACAEBVCalendar@2@@Z @3008
    ?isEquivalentTo@InitialTimeZoneRule@icu_58@@UEBACAEBVTimeZoneRule@2@@Z @3009
    ?isEquivalentTo@TimeArrayTimeZoneRule@icu_58@@UEBACAEBVTimeZoneRule@2@@Z @3010
    ?isEquivalentTo@TimeZoneRule@icu_58@@UEBACAEBV12@@Z @3011
    ?isExponentSignAlwaysShown@DecimalFormat@icu_58@@UEBACXZ @3012
    ?isFCD16OfTibetanCompositeVowel@CollationFCD@icu_58@@SACG@Z @3013
    ?isFCD@CollationBuilder@icu_58@@AEBACAEBVUnicodeString@2@AEAW4UErrorCode@@@Z @3014
    ?isFastFormattable@DigitFormatterOptions@icu_58@@QEBACXZ @3015
    ?isFastFormattable@FixedPrecision@icu_58@@QEBACXZ @3016
    ?isFastFormattable@ValueFormatter@icu_58@@QEBACH@Z @3017
    ?isFieldUnitIgnored@SimpleDateFormat@icu_58@@QEBACW4UCalendarDateFields@@@Z @3018
    ?isFieldUnitIgnored@SimpleDateFormat@icu_58@@SACAEBVUnicodeString@2@W4UCalendarDateFields@@@Z @3019
    ?isGroupingEnabled@DigitGrouping@icu_58@@AEBACH@Z @3020
    ?isGroupingUsed@DigitGrouping@icu_58@@QEBACXZ @3021
    ?isGroupingUsed@NumberFormat@icu_58@@QEBACXZ @3022
    ?isIgnorable@CollationElementIterator@icu_58@@SACH@Z @3023
    ?isInfinite@DigitList@icu_58@@QEBACXZ @3024
    ?isInfinite@VisibleDigits@icu_58@@QEBACXZ @3025
    ?isInfinite@VisibleDigitsWithExponent@icu_58@@QEBACXZ @3026
    ?isKeyword@PluralRules@icu_58@@QEBACAEBVUnicodeString@2@@Z @3027
    ?isLeapMonthBetween@ChineseCalendar@icu_58@@EEBACHH@Z @3028
    ?isLeapYear@GregorianCalendar@icu_58@@QEBACH@Z @3029
    ?isLeapYear@HebrewCalendar@icu_58@@SACH@Z @3030
    ?isLenient@Calendar@icu_58@@QEBACXZ @3031
    ?isLenient@DateFormat@icu_58@@UEBACXZ @3032
    ?isLenient@NumberFormat@icu_58@@UEBACXZ @3033
    ?isLenient@RuleBasedNumberFormat@icu_58@@UEBACXZ @3034
    ?isLongPrimaryCE32@Collation@icu_58@@SACI@Z @3035
    ?isNaN@DigitList@icu_58@@QEBACXZ @3036
    ?isNaN@VisibleDigits@icu_58@@QEBACXZ @3037
    ?isNaN@VisibleDigitsWithExponent@icu_58@@QEBACXZ @3038
    ?isNaNOrInfinity@VisibleDigits@icu_58@@QEBACXZ @3039
    ?isNegative@VisibleDigits@icu_58@@QEBACXZ @3040
    ?isNegative@VisibleDigitsWithExponent@icu_58@@QEBACXZ @3041
    ?isNoConstraints@SignificantDigitInterval@icu_58@@QEBACXZ @3042
    ?isNoGrouping@DigitGrouping@icu_58@@QEBACHAEBVIntDigitCountRange@2@@Z @3043
    ?isNumeric@CollationSettings@icu_58@@QEBACXZ @3044
    ?isNumeric@Formattable@icu_58@@QEBACXZ @3045
    ?isNumeric@SimpleDateFormat@icu_58@@CAC_WH@Z @3046
    ?isNumericField@DateFormatSymbols@icu_58@@CACW4UDateFormatField@@H@Z @3047
    ?isNumericPatternChar@DateFormatSymbols@icu_58@@CAC_WH@Z @3048
    ?isOverMaxDigits@VisibleDigits@icu_58@@AEBACXZ @3049
    ?isParseIntegerOnly@NumberFormat@icu_58@@QEBACXZ @3050
    ?isPositive@DigitList@icu_58@@QEBACXZ @3051
    ?isPrefixCE32@Collation@icu_58@@SACI@Z @3052
    ?isRecording@FieldPositionHandler@icu_58@@UEBACXZ @3053
    ?isRoundingRequired@FixedPrecision@icu_58@@AEBACHH@Z @3054
    ?isScientificNotation@DecimalFormat@icu_58@@UEBACXZ @3055
    ?isSelfContainedCE32@Collation@icu_58@@SACI@Z @3056
    ?isSeparatorAt@DigitGrouping@icu_58@@QEBACHH@Z @3057
    ?isSet@Calendar@icu_58@@QEBACW4UCalendarDateFields@@@Z @3058
    ?isSimpleOrLongCE32@Collation@icu_58@@SACI@Z @3059
    ?isSpecialCE32@Collation@icu_58@@SACI@Z @3060
    ?isStandardDigits@DigitFormatter@icu_58@@AEBACXZ @3061
    ?isStyleSupported@NumberFormat@icu_58@@CACW4UNumberFormatStyle@@@Z @3062
    ?isSyntaxChar@CollationRuleParser@icu_58@@CACH@Z @3063
    ?isSyntaxChar@SimpleDateFormat@icu_58@@CAC_W@Z @3064
    ?isTailoredNode@CollationBuilder@icu_58@@CAC_J@Z @3065
    ?isTempCE32@CollationBuilder@icu_58@@CACI@Z @3066
    ?isTempCE@CollationBuilder@icu_58@@CAC_J@Z @3067
    ?isTertiaryWithCaseBits@CollationSettings@icu_58@@SACH@Z @3068
    ?isUWordBoundary@RegexMatcher@icu_58@@AEAAC_J@Z @3069
    ?isUnsafe@RuleBasedCollator@icu_58@@AEBACH@Z @3070
    ?isUnsafeBackward@CollationData@icu_58@@QEBACHC@Z @3071
    ?isValid@QuantityFormatter@icu_58@@QEBACXZ @3072
    ?isValidEnum@?$EnumSet@W4UDateFormatBooleanAttribute@@$0A@$03@icu_58@@QEBACW4UDateFormatBooleanAttribute@@@Z @3073
    ?isValidEnum@?$EnumSet@W4UNumberFormatAttribute@@$0BAAA@$0BAAD@@icu_58@@QEBACW4UNumberFormatAttribute@@@Z @3074
    ?isValidValue@?$EnumSet@W4UDateFormatBooleanAttribute@@$0A@$03@icu_58@@QEBACH@Z @3075
    ?isValidValue@?$EnumSet@W4UNumberFormatAttribute@@$0BAAA@$0BAAD@@icu_58@@QEBACH@Z @3076
    ?isWeekend@Calendar@icu_58@@UEBACNAEAW4UErrorCode@@@Z @3077
    ?isWeekend@Calendar@icu_58@@UEBACXZ @3078
    ?isWordBoundary@RegexMatcher@icu_58@@AEAAC_J@Z @3079
    ?isZero@DigitList@icu_58@@QEBACXZ @3080
    ?iterator@AffixPattern@icu_58@@QEBAAEAVAffixPatternIterator@2@AEAV32@@Z @3081
    ?jamoCpFromIndex@CollationDataBuilder@icu_58@@KAHH@Z @3082
    ?jdToCE@CECalendar@icu_58@@KAXHHAEAH00@Z @3083
    ?joinIDs@CompoundTransliterator@icu_58@@AEAA?AVUnicodeString@2@QEBQEAVTransliterator@2@H@Z @3084
    ?julianDayToDayOfWeek@Calendar@icu_58@@KAEN@Z @3085
    ?julianDayToMillis@GregorianCalendar@icu_58@@CANN@Z @3086
    ?kDOWPrecedence@Calendar@icu_58@@1QAY1M@7$$CBHA @3087
    ?kDatePrecedence@Calendar@icu_58@@1QAY1M@7$$CBHA @3088
    ?kDoubleFractionDigits@DecimalFormat@icu_58@@1HB @3089
    ?kDoubleIntegerDigits@DecimalFormat@icu_58@@1HB @3090
    ?kMaxScientificIntegerDigits@DecimalFormat@icu_58@@1HB @3091
    ?kYearPrecedence@Calendar@icu_58@@1QAY1M@7$$CBHA @3092
    ?last@SearchIterator@icu_58@@QEAAHAEAW4UErrorCode@@@Z @3093
    ?lastCEWithPrimaryBefore@CollationRootElements@icu_58@@QEBA_JI@Z @3094
    ?latinCE0FromCE32@Collation@icu_58@@SA_JI@Z @3095
    ?latinCE1FromCE32@Collation@icu_58@@SA_JI@Z @3096
    ?lcccBits@CollationFCD@icu_58@@0QBIB @3097
    ?lcccIndex@CollationFCD@icu_58@@0QBEB @3098
    ?length@DigitInterval@icu_58@@QEBAHXZ @3099
    ?lengthFromCE32@Collation@icu_58@@SAHI@Z @3100
    ?lengthOfTable@CollationFastLatinBuilder@icu_58@@QEBAHXZ @3101
    ?lengthOfWeight@CollationWeights@icu_58@@SAHI@Z @3102
    ?lengthenRange@CollationWeights@icu_58@@AEBAXAEAUWeightRange@12@@Z @3103
    ?literalChar@RegexCompile@icu_58@@AEAAXH@Z @3104
    ?load@CollationRoot@icu_58@@CAXAEAW4UErrorCode@@@Z @3105
    ?load@VTimeZone@icu_58@@AEAAXAEAVVTZReader@2@AEAW4UErrorCode@@@Z @3106
    ?loadAllDisplayNames@TimeZoneNames@icu_58@@UEAAXAEAW4UErrorCode@@@Z @3107
    ?loadAllowedHourFormatsData@DateTimePatternGenerator@icu_58@@CAXAEAW4UErrorCode@@@Z @3108
    ?loadGroups@CollationFastLatinBuilder@icu_58@@AEAACAEBUCollationData@2@AEAW4UErrorCode@@@Z @3109
    ?loadInstance@GenderInfo@icu_58@@CAPEBV12@AEBVLocale@2@AEAW4UErrorCode@@@Z @3110
    ?loadRegionData@Region@icu_58@@CAXAEAW4UErrorCode@@@Z @3111
    ?loadRule@TimeZone@icu_58@@KAPEAUUResourceBundle@@PEBU3@AEBVUnicodeString@2@PEAU3@AEAW4UErrorCode@@@Z @3112
    ?lookingAt@RegexMatcher@icu_58@@UEAACAEAW4UErrorCode@@@Z @3113
    ?lookingAt@RegexMatcher@icu_58@@UEAAC_JAEAW4UErrorCode@@@Z @3114
    ?lookup@CollationFastLatin@icu_58@@CAIPEBGH@Z @3115
    ?lookupUTF8@CollationFastLatin@icu_58@@CAIPEBGHPEBEAEAHH@Z @3116
    ?lookupUTF8Unsafe@CollationFastLatin@icu_58@@CAIPEBGHPEBEAEAH@Z @3117
    ?lstToUT@CalendarAstronomer@icu_58@@QEAANN@Z @3118
    ?majorSolarTerm@ChineseCalendar@icu_58@@EEBAHH@Z @3119
    ?makeBaseVersion@CollationTailoring@icu_58@@SAXQEBEQEAE@Z @3120
    ?makeBuilderContextCE32@CollationDataBuilder@icu_58@@KAIH@Z @3121
    ?makeCE32FromTagAndIndex@Collation@icu_58@@SAIHH@Z @3122
    ?makeCE32FromTagIndexAndLength@Collation@icu_58@@SAIHHH@Z @3123
    ?makeCE@Collation@icu_58@@SA_JI@Z @3124
    ?makeCE@Collation@icu_58@@SA_JIIII@Z @3125
    ?makeInstance@Calendar@icu_58@@SAPEAV12@AEBVLocale@2@AEAW4UErrorCode@@@Z @3126
    ?makeInstance@Collator@icu_58@@CAPEAV12@AEBVLocale@2@AEAW4UErrorCode@@@Z @3127
    ?makeInstance@NumberFormat@icu_58@@CAPEAV12@AEBVLocale@2@W4UNumberFormatStyle@@AEAW4UErrorCode@@@Z @3128
    ?makeInstance@NumberFormat@icu_58@@KAPEAV12@AEBVLocale@2@W4UNumberFormatStyle@@CAEAW4UErrorCode@@@Z @3129
    ?makeLongPrimaryCE32@Collation@icu_58@@SAII@Z @3130
    ?makeLongSecondaryCE32@Collation@icu_58@@SAII@Z @3131
    ?makeReorderRanges@CollationData@icu_58@@AEBAXPEBHHCAEAVUVector32@2@AEAW4UErrorCode@@@Z @3132
    ?makeReorderRanges@CollationData@icu_58@@QEBAXPEBHHAEAVUVector32@2@AEAW4UErrorCode@@@Z @3133
    ?makeTailoredCEs@CollationBuilder@icu_58@@AEAAXAEAW4UErrorCode@@@Z @3134
    ?match@DecimalFormat@icu_58@@CAHAEBVUnicodeString@2@H0@Z @3135
    ?match@DecimalFormat@icu_58@@CAHAEBVUnicodeString@2@HH@Z @3136
    ?matchDayPeriodStrings@SimpleDateFormat@icu_58@@AEBAHAEBVUnicodeString@2@HPEBV32@HAEAH@Z @3137
    ?matchDecimal@DecimalFormat@icu_58@@CACHCHPEBVUnicodeSet@2@H@Z @3138
    ?matchGrouping@DecimalFormat@icu_58@@CACHCHPEBVUnicodeSet@2@H0H@Z @3139
    ?matchLiterals@SimpleDateFormat@icu_58@@CACAEBVUnicodeString@2@AEAH01CCC@Z @3140
    ?matchQuarterString@SimpleDateFormat@icu_58@@AEBAHAEBVUnicodeString@2@HW4UCalendarDateFields@@PEBV32@HAEAVCalendar@2@@Z @3141
    ?matchStartType@RegexCompile@icu_58@@AEAAXXZ @3142
    ?matchString@SimpleDateFormat@icu_58@@AEBAHAEBVUnicodeString@2@HW4UCalendarDateFields@@PEBV32@H2AEAVCalendar@2@@Z @3143
    ?matchStringUntilLimitPart@ChoiceFormat@icu_58@@CAHAEBVMessagePattern@2@HHAEBVUnicodeString@2@H@Z @3144
    ?matchSymbol@DecimalFormat@icu_58@@CACAEBVUnicodeString@2@HH0PEAVUnicodeSet@2@H@Z @3145
    ?matcher@RegexPattern@icu_58@@UEBAPEAVRegexMatcher@2@AEAW4UErrorCode@@@Z @3146
    ?matcher@RegexPattern@icu_58@@UEBAPEAVRegexMatcher@2@AEBVUnicodeString@2@AEAW4UErrorCode@@@Z @3147
    ?matches@MatchInfoCollection@TimeZoneNames@icu_58@@AEAAPEAVUVector@3@AEAW4UErrorCode@@@Z @3148
    ?matches@RegexMatcher@icu_58@@UEAACAEAW4UErrorCode@@@Z @3149
    ?matches@RegexMatcher@icu_58@@UEAAC_JAEAW4UErrorCode@@@Z @3150
    ?matches@RegexPattern@icu_58@@SACAEBVUnicodeString@2@0AEAUUParseError@@AEAW4UErrorCode@@@Z @3151
    ?matches@RegexPattern@icu_58@@SACPEAUUText@@0AEAUUParseError@@AEAW4UErrorCode@@@Z @3152
    ?maxMatchLength@RegexCompile@icu_58@@AEAAHHH@Z @3153
    ?mayHaveLccc@CollationFCD@icu_58@@SACH@Z @3154
    ?maybeSetPrimaryRange@CollationDataBuilder@icu_58@@QEAACHHIHAEAW4UErrorCode@@@Z @3155
    ?maybeTibetanCompositeVowel@CollationFCD@icu_58@@SACH@Z @3156
    ?mergeCompositeIntoString@CollationBuilder@icu_58@@AEBACAEBVUnicodeString@2@HH0AEAV32@1AEAW4UErrorCode@@@Z @3157
    ?millisToDays@ChineseCalendar@icu_58@@AEBANN@Z @3158
    ?millisToJulianDay@GregorianCalendar@icu_58@@CANN@Z @3159
    ?minMatchLength@RegexCompile@icu_58@@AEAAHHH@Z @3160
    ?monthLength@GregorianCalendar@icu_58@@MEBAHH@Z @3161
    ?monthLength@GregorianCalendar@icu_58@@MEBAHHH@Z @3162
    ?monthStart@IslamicCalendar@icu_58@@AEBAHHH@Z @3163
    ?monthsInYear@HebrewCalendar@icu_58@@CAHH@Z @3164
    ?moonAge@IslamicCalendar@icu_58@@CANNAEAW4UErrorCode@@@Z @3165
    ?mult@DigitList@icu_58@@QEAAXAEBV12@AEAW4UErrorCode@@@Z @3166
    ?needsPluralRules@DigitAffixesAndPadding@icu_58@@QEBACXZ @3167
    ?newMoonNear@ChineseCalendar@icu_58@@EEBAHNC@Z @3168
    ?newYear@ChineseCalendar@icu_58@@EEBAHH@Z @3169
    ?newerField@Calendar@icu_58@@IEBA?AW4UCalendarDateFields@@W43@0@Z @3170
    ?newestStamp@Calendar@icu_58@@IEBAHW4UCalendarDateFields@@0H@Z @3171
    ?next@?$PluralMap@VDigitAffix@icu_58@@@icu_58@@QEBAPEBVDigitAffix@2@AEAW4Category@PluralMapBase@2@@Z @3172
    ?next@CollationElementIterator@icu_58@@QEAAHAEAW4UErrorCode@@@Z @3173
    ?next@FieldPositionIterator@icu_58@@QEAACAEAVFieldPosition@2@@Z @3174
    ?next@PluralAvailableLocalesEnumeration@icu_58@@UEAAPEBDPEAHAEAW4UErrorCode@@@Z @3175
    ?next@SearchIterator@icu_58@@QEAAHAEAW4UErrorCode@@@Z @3176
    ?nextBucket@AlphabeticIndex@icu_58@@UEAACAEAW4UErrorCode@@@Z @3177
    ?nextCE32FromContraction@CollationIterator@icu_58@@AEAAIPEBUCollationData@2@IPEB_WIHAEAW4UErrorCode@@@Z @3178
    ?nextCE32FromDiscontiguousContraction@CollationIterator@icu_58@@AEAAIPEBUCollationData@2@AEAVUCharsTrie@2@IHHAEAW4UErrorCode@@@Z @3179
    ?nextCE@CollationIterator@icu_58@@QEAA_JAEAW4UErrorCode@@@Z @3180
    ?nextCEFromCE32@CollationIterator@icu_58@@AEAA_JPEBUCollationData@2@HIAEAW4UErrorCode@@@Z @3181
    ?nextChar@RegexCompile@icu_58@@QEAAXAEAURegexPatternChar@12@@Z @3182
    ?nextCharLL@RegexCompile@icu_58@@AEAAHXZ @3183
    ?nextCodePoint@FCDUIterCollationIterator@icu_58@@UEAAHAEAW4UErrorCode@@@Z @3184
    ?nextCodePoint@FCDUTF16CollationIterator@icu_58@@UEAAHAEAW4UErrorCode@@@Z @3185
    ?nextCodePoint@FCDUTF8CollationIterator@icu_58@@UEAAHAEAW4UErrorCode@@@Z @3186
    ?nextCodePoint@UIterCollationIterator@icu_58@@UEAAHAEAW4UErrorCode@@@Z @3187
    ?nextCodePoint@UTF16CollationIterator@icu_58@@UEAAHAEAW4UErrorCode@@@Z @3188
    ?nextCodePoint@UTF8CollationIterator@icu_58@@UEAAHAEAW4UErrorCode@@@Z @3189
    ?nextHasLccc@FCDUTF8CollationIterator@icu_58@@AEBACXZ @3190
    ?nextIndexFromNode@CollationBuilder@icu_58@@CAH_J@Z @3191
    ?nextMutable@?$PluralMap@VDigitAffix@icu_58@@@icu_58@@QEAAPEAVDigitAffix@2@AEAW4Category@PluralMapBase@2@@Z @3192
    ?nextPair@CollationFastLatin@icu_58@@CAIPEBGHIPEB_WPEBEAEAH3@Z @3193
    ?nextRecord@AlphabeticIndex@icu_58@@UEAACAEAW4UErrorCode@@@Z @3194
    ?nextSegment@FCDUIterCollationIterator@icu_58@@AEAACAEAW4UErrorCode@@@Z @3195
    ?nextSegment@FCDUTF16CollationIterator@icu_58@@AEAACAEAW4UErrorCode@@@Z @3196
    ?nextSegment@FCDUTF8CollationIterator@icu_58@@AEAACAEAW4UErrorCode@@@Z @3197
    ?nextSetBit@ScriptSet@icu_58@@QEBAHH@Z @3198
    ?nextSkippedCodePoint@CollationIterator@icu_58@@AEAAHAEAW4UErrorCode@@@Z @3199
    ?nextToken@AffixPatternIterator@icu_58@@QEAACXZ @3200
    ?nextTopLevelArgStart@MessageFormat@icu_58@@AEBAHH@Z @3201
    ?nextWeight@CollationWeights@icu_58@@QEAAIXZ @3202
    ?nodeFromNextIndex@CollationBuilder@icu_58@@CA_JH@Z @3203
    ?nodeFromPreviousIndex@CollationBuilder@icu_58@@CA_JH@Z @3204
    ?nodeFromStrength@CollationBuilder@icu_58@@CA_JH@Z @3205
    ?nodeFromWeight16@CollationBuilder@icu_58@@CA_JI@Z @3206
    ?nodeFromWeight32@CollationBuilder@icu_58@@CA_JI@Z @3207
    ?nodeHasAnyBefore@CollationBuilder@icu_58@@CAC_J@Z @3208
    ?nodeHasBefore2@CollationBuilder@icu_58@@CAC_J@Z @3209
    ?nodeHasBefore3@CollationBuilder@icu_58@@CAC_J@Z @3210
    ?normalize@FCDUIterCollationIterator@icu_58@@AEAACAEBVUnicodeString@2@AEAW4UErrorCode@@@Z @3211
    ?normalize@FCDUTF16CollationIterator@icu_58@@AEAACPEB_W0AEAW4UErrorCode@@@Z @3212
    ?normalize@FCDUTF8CollationIterator@icu_58@@AEAACAEBVUnicodeString@2@AEAW4UErrorCode@@@Z @3213
    ?normalizeDir@CollationElementIterator@icu_58@@AEBACXZ @3214
    ?offsetMonth@ChineseCalendar@icu_58@@EEAAXHHH@Z @3215
    ?optimize@CollationBuilder@icu_58@@EEAAXAEBVUnicodeSet@2@AEAPEBDAEAW4UErrorCode@@@Z @3216
    ?optimize@CollationDataBuilder@icu_58@@QEAAXAEBVUnicodeSet@2@AEAW4UErrorCode@@@Z @3217
    ?optimize@Sink@CollationRuleParser@icu_58@@UEAAXAEBVUnicodeSet@3@AEAPEBDAEAW4UErrorCode@@@Z @3218
    ?orOtherFromString@StandardPlural@icu_58@@SA?AW4Form@12@AEBVUnicodeString@2@@Z @3219
    ?orOtherFromString@StandardPlural@icu_58@@SA?AW4Form@12@PEBD@Z @3220
    ?orphanFilter@Transliterator@icu_58@@QEAAPEAVUnicodeFilter@2@XZ @3221
    ?orphanOrClone@?$MaybeStackHeaderAndArray@UdecNumber@@D$0CI@@icu_58@@QEAAPEAUdecNumber@@HAEAH@Z @3222
    ?orphanTimeZone@Calendar@icu_58@@QEAAPEAVTimeZone@2@XZ @3223
    ?parse@AffixPatternParser@icu_58@@QEBAAEAVPluralAffix@2@AEBVAffixPattern@2@AEBVCurrencyAffixInfo@2@AEAV32@AEAW4UErrorCode@@@Z @3224
    ?parse@ChoiceFormat@icu_58@@UEBAXAEBVUnicodeString@2@AEAVFormattable@2@AEAVParsePosition@2@@Z @3225
    ?parse@CollationRuleParser@icu_58@@AEAAXAEBVUnicodeString@2@AEAW4UErrorCode@@@Z @3226
    ?parse@CollationRuleParser@icu_58@@QEAAXAEBVUnicodeString@2@AEAUCollationSettings@2@PEAUUParseError@@AEAW4UErrorCode@@@Z @3227
    ?parse@CompactDecimalFormat@icu_58@@UEBAXAEBVUnicodeString@2@AEAVFormattable@2@AEAVParsePosition@2@@Z @3228
    ?parse@CompactDecimalFormat@icu_58@@UEBAXAEBVUnicodeString@2@AEAVFormattable@2@AEAW4UErrorCode@@@Z @3229
    ?parse@DateFormat@icu_58@@QEBANAEBVUnicodeString@2@AEAVParsePosition@2@@Z @3230
    ?parse@DateFormat@icu_58@@UEBANAEBVUnicodeString@2@AEAW4UErrorCode@@@Z @3231
    ?parse@DecimalFormat@icu_58@@AEBAXAEBVUnicodeString@2@AEAVFormattable@2@AEAVParsePosition@2@PEA_W@Z @3232
    ?parse@DecimalFormat@icu_58@@UEBAXAEBVUnicodeString@2@AEAVFormattable@2@AEAVParsePosition@2@@Z @3233
    ?parse@MessageFormat@icu_58@@AEBAPEAVFormattable@2@HAEBVUnicodeString@2@AEAVParsePosition@2@AEAHAEAW4UErrorCode@@@Z @3234
    ?parse@MessageFormat@icu_58@@UEBAPEAVFormattable@2@AEBVUnicodeString@2@AEAHAEAW4UErrorCode@@@Z @3235
    ?parse@MessageFormat@icu_58@@UEBAPEAVFormattable@2@AEBVUnicodeString@2@AEAVParsePosition@2@AEAH@Z @3236
    ?parse@NumberFormat@icu_58@@UEBAXAEBVUnicodeString@2@AEAVFormattable@2@AEAW4UErrorCode@@@Z @3237
    ?parse@RuleBasedNumberFormat@icu_58@@UEBAXAEBVUnicodeString@2@AEAVFormattable@2@AEAVParsePosition@2@@Z @3238
    ?parse@SimpleDateFormat@icu_58@@UEBAXAEBVUnicodeString@2@AEAVCalendar@2@AEAVParsePosition@2@@Z @3239
    ?parse@TimeZoneFormat@icu_58@@QEBAPEAVTimeZone@2@W4UTimeZoneFormatStyle@@AEBVUnicodeString@2@AEAVParsePosition@2@PEAW4UTimeZoneFormatTimeType@@@Z @3240
    ?parse@TimeZoneFormat@icu_58@@UEBAPEAVTimeZone@2@W4UTimeZoneFormatStyle@@AEBVUnicodeString@2@AEAVParsePosition@2@HPEAW4UTimeZoneFormatTimeType@@@Z @3241
    ?parse@VTimeZone@icu_58@@AEAAXAEAW4UErrorCode@@@Z @3242
    ?parseAbuttingAsciiOffsetFields@TimeZoneFormat@icu_58@@CAHAEBVUnicodeString@2@AEAVParsePosition@2@W4OffsetFields@12@2C@Z @3243
    ?parseAbuttingOffsetFields@TimeZoneFormat@icu_58@@AEBAHAEBVUnicodeString@2@HAEAH@Z @3244
    ?parseAffixString@AffixPattern@icu_58@@SAAEAV12@AEBVUnicodeString@2@AEAV12@AEAW4UErrorCode@@@Z @3245
    ?parseAmbiguousDatesAsAfter@SimpleDateFormat@icu_58@@AEAAXNAEAW4UErrorCode@@@Z @3246
    ?parseAndBuild@CollationBuilder@icu_58@@QEAAPEAUCollationTailoring@2@AEBVUnicodeString@2@QEBEPEAVImporter@CollationRuleParser@2@PEAUUParseError@@AEAW4UErrorCode@@@Z @3247
    ?parseArgument@ChoiceFormat@icu_58@@CANAEBVMessagePattern@2@HAEBVUnicodeString@2@AEAVParsePosition@2@@Z @3248
    ?parseAsciiOffsetFields@TimeZoneFormat@icu_58@@CAHAEBVUnicodeString@2@AEAVParsePosition@2@_WW4OffsetFields@12@3@Z @3249
    ?parseCurrency@CompactDecimalFormat@icu_58@@UEBAPEAVCurrencyAmount@2@AEBVUnicodeString@2@AEAVParsePosition@2@@Z @3250
    ?parseCurrency@DecimalFormat@icu_58@@UEBAPEAVCurrencyAmount@2@AEBVUnicodeString@2@AEAVParsePosition@2@@Z @3251
    ?parseCurrency@NumberFormat@icu_58@@UEBAPEAVCurrencyAmount@2@AEBVUnicodeString@2@AEAVParsePosition@2@@Z @3252
    ?parseCustomID@TimeZone@icu_58@@CACAEBVUnicodeString@2@AEAH111@Z @3253
    ?parseDefaultOffsetFields@TimeZoneFormat@icu_58@@AEBAHAEBVUnicodeString@2@H_WAEAH@Z @3254
    ?parseExemplarLocation@TimeZoneFormat@icu_58@@AEBAAEAVUnicodeString@2@AEBV32@AEAVParsePosition@2@AEAV32@@Z @3255
    ?parseForCurrency@DecimalFormat@icu_58@@AEBACAEBVUnicodeString@2@AEAVParsePosition@2@AEAVDigitList@2@PEACPEA_W@Z @3256
    ?parseInt@SimpleDateFormat@icu_58@@AEBAXAEBVUnicodeString@2@AEAVFormattable@2@AEAVParsePosition@2@CPEAVNumberFormat@2@@Z @3257
    ?parseInt@SimpleDateFormat@icu_58@@AEBAXAEBVUnicodeString@2@AEAVFormattable@2@HAEAVParsePosition@2@CPEAVNumberFormat@2@@Z @3258
    ?parseObject@DateFormat@icu_58@@UEBAXAEBVUnicodeString@2@AEAVFormattable@2@AEAVParsePosition@2@@Z @3259
    ?parseObject@DateIntervalFormat@icu_58@@UEBAXAEBVUnicodeString@2@AEAVFormattable@2@AEAVParsePosition@2@@Z @3260
    ?parseObject@DummyFormat@MessageFormat@icu_58@@UEBAXAEBVUnicodeString@3@AEAVFormattable@3@AEAVParsePosition@3@@Z @3261
    ?parseObject@Format@icu_58@@QEBAXAEBVUnicodeString@2@AEAVFormattable@2@AEAW4UErrorCode@@@Z @3262
    ?parseObject@MeasureFormat@icu_58@@UEBAXAEBVUnicodeString@2@AEAVFormattable@2@AEAVParsePosition@2@@Z @3263
    ?parseObject@MessageFormat@icu_58@@UEBAXAEBVUnicodeString@2@AEAVFormattable@2@AEAVParsePosition@2@@Z @3264
    ?parseObject@NumberFormat@icu_58@@UEBAXAEBVUnicodeString@2@AEAVFormattable@2@AEAVParsePosition@2@@Z @3265
    ?parseObject@PluralFormat@icu_58@@UEBAXAEBVUnicodeString@2@AEAVFormattable@2@AEAVParsePosition@2@@Z @3266
    ?parseObject@SelectFormat@icu_58@@UEBAXAEBVUnicodeString@2@AEAVFormattable@2@AEAVParsePosition@2@@Z @3267
    ?parseObject@TimeUnitFormat@icu_58@@UEBAXAEBVUnicodeString@2@AEAVFormattable@2@AEAVParsePosition@2@@Z @3268
    ?parseObject@TimeZoneFormat@icu_58@@UEBAXAEBVUnicodeString@2@AEAVFormattable@2@AEAVParsePosition@2@@Z @3269
    ?parseOffsetDefaultLocalizedGMT@TimeZoneFormat@icu_58@@AEBAHAEBVUnicodeString@2@HAEAH@Z @3270
    ?parseOffsetFieldWithLocalizedDigits@TimeZoneFormat@icu_58@@AEBAHAEBVUnicodeString@2@HEEGGAEAH@Z @3271
    ?parseOffsetFields@TimeZoneFormat@icu_58@@AEBAHAEBVUnicodeString@2@HCAEAH@Z @3272
    ?parseOffsetFieldsWithPattern@TimeZoneFormat@icu_58@@AEBAHAEBVUnicodeString@2@HPEAVUVector@2@CAEAH22@Z @3273
    ?parseOffsetISO8601@TimeZoneFormat@icu_58@@AEBAHAEBVUnicodeString@2@AEAVParsePosition@2@CPEAC@Z @3274
    ?parseOffsetISO8601@TimeZoneFormat@icu_58@@QEBAHAEBVUnicodeString@2@AEAVParsePosition@2@@Z @3275
    ?parseOffsetLocalizedGMT@TimeZoneFormat@icu_58@@AEBAHAEBVUnicodeString@2@AEAVParsePosition@2@CPEAC@Z @3276
    ?parseOffsetLocalizedGMT@TimeZoneFormat@icu_58@@QEBAHAEBVUnicodeString@2@AEAVParsePosition@2@@Z @3277
    ?parseOffsetLocalizedGMTPattern@TimeZoneFormat@icu_58@@AEBAHAEBVUnicodeString@2@HCAEAH@Z @3278
    ?parseOffsetPattern@TimeZoneFormat@icu_58@@CAPEAVUVector@2@AEBVUnicodeString@2@W4OffsetFields@12@AEAW4UErrorCode@@@Z @3279
    ?parseOffsetShortLocalizedGMT@TimeZoneFormat@icu_58@@QEBAHAEBVUnicodeString@2@AEAVParsePosition@2@@Z @3280
    ?parsePattern@SimpleDateFormat@icu_58@@AEAAXXZ @3281
    ?parseRelationOperator@CollationRuleParser@icu_58@@AEAAHAEAW4UErrorCode@@@Z @3282
    ?parseRelationStrings@CollationRuleParser@icu_58@@AEAAXHHAEAW4UErrorCode@@@Z @3283
    ?parseReordering@CollationRuleParser@icu_58@@AEAAXAEBVUnicodeString@2@AEAW4UErrorCode@@@Z @3284
    ?parseResetAndPosition@CollationRuleParser@icu_58@@AEAAHAEAW4UErrorCode@@@Z @3285
    ?parseRuleChain@CollationRuleParser@icu_58@@AEAAXAEAW4UErrorCode@@@Z @3286
    ?parseScripts@ScriptSet@icu_58@@QEAAAEAV12@AEBVUnicodeString@2@AEAW4UErrorCode@@@Z @3287
    ?parseSetting@CollationRuleParser@icu_58@@AEAAXAEAW4UErrorCode@@@Z @3288
    ?parseShortZoneID@TimeZoneFormat@icu_58@@AEBAAEAVUnicodeString@2@AEBV32@AEAVParsePosition@2@AEAV32@@Z @3289
    ?parseSingleLocalizedDigit@TimeZoneFormat@icu_58@@AEBAHAEBVUnicodeString@2@HAEAH@Z @3290
    ?parseSkeleton@DateIntervalInfo@icu_58@@CAXAEBVUnicodeString@2@PEAH@Z @3291
    ?parseSpecialPosition@CollationRuleParser@icu_58@@AEAAHHAEAVUnicodeString@2@AEAW4UErrorCode@@@Z @3292
    ?parseStarredCharacters@CollationRuleParser@icu_58@@AEAAXHHAEAW4UErrorCode@@@Z @3293
    ?parseString@CollationRuleParser@icu_58@@AEAAHHAEAVUnicodeString@2@AEAW4UErrorCode@@@Z @3294
    ?parseTailoringString@CollationRuleParser@icu_58@@AEAAHHAEAVUnicodeString@2@AEAW4UErrorCode@@@Z @3295
    ?parseType@PluralFormat@icu_58@@AEBAXAEBVUnicodeString@2@PEBVNFRule@2@AEAVFormattable@2@AEAVFieldPosition@2@@Z @3296
    ?parseUnicodeSet@CollationRuleParser@icu_58@@AEAAHHAEAVUnicodeSet@2@AEAW4UErrorCode@@@Z @3297
    ?parseUserAffixString@AffixPattern@icu_58@@SAAEAV12@AEBVUnicodeString@2@AEAV12@AEAW4UErrorCode@@@Z @3298
    ?parseZoneID@TimeZoneFormat@icu_58@@AEBAAEAVUnicodeString@2@AEBV32@AEAVParsePosition@2@AEAV32@@Z @3299
    ?pattern@RegexMatcher@icu_58@@UEBAAEBVRegexPattern@2@XZ @3300
    ?pattern@RegexPattern@icu_58@@UEBA?AVUnicodeString@2@XZ @3301
    ?patternText@RegexPattern@icu_58@@UEBAPEAUUText@@AEAW4UErrorCode@@@Z @3302
    ?peekCharLL@RegexCompile@icu_58@@AEAAHXZ @3303
    ?pin@IntDigitCountRange@icu_58@@QEBAHH@Z @3304
    ?pinDayOfMonth@GregorianCalendar@icu_58@@IEAAXXZ @3305
    ?pinField@Calendar@icu_58@@MEAAXW4UCalendarDateFields@@AEAW4UErrorCode@@@Z @3306
    ?pointerToken@Transliterator@icu_58@@SA?ATToken@12@PEAX@Z @3307
    ?preceding@SearchIterator@icu_58@@QEAAHHAEAW4UErrorCode@@@Z @3308
    ?prepareFixedDecimalFormatting@ValueFormatter@icu_58@@QEAAXAEBVDigitFormatter@2@AEBVDigitGrouping@2@AEBVFixedPrecision@2@AEBVDigitFormatterOptions@2@@Z @3309
    ?prepareGetActual@Calendar@icu_58@@MEAAXW4UCalendarDateFields@@CAEAW4UErrorCode@@@Z @3310
    ?prepareScientificFormatting@ValueFormatter@icu_58@@QEAAXAEBVDigitFormatter@2@AEBVScientificPrecision@2@AEBVSciFormatterOptions@2@@Z @3311
    ?previous@CollationElementIterator@icu_58@@QEAAHAEAW4UErrorCode@@@Z @3312
    ?previous@SearchIterator@icu_58@@QEAAHAEAW4UErrorCode@@@Z @3313
    ?previousCE@CollationIterator@icu_58@@QEAA_JAEAVUVector32@2@AEAW4UErrorCode@@@Z @3314
    ?previousCEUnsafe@CollationIterator@icu_58@@AEAA_JHAEAVUVector32@2@AEAW4UErrorCode@@@Z @3315
    ?previousCodePoint@FCDUIterCollationIterator@icu_58@@UEAAHAEAW4UErrorCode@@@Z @3316
    ?previousCodePoint@FCDUTF16CollationIterator@icu_58@@UEAAHAEAW4UErrorCode@@@Z @3317
    ?previousCodePoint@FCDUTF8CollationIterator@icu_58@@UEAAHAEAW4UErrorCode@@@Z @3318
    ?previousCodePoint@UIterCollationIterator@icu_58@@UEAAHAEAW4UErrorCode@@@Z @3319
    ?previousCodePoint@UTF16CollationIterator@icu_58@@UEAAHAEAW4UErrorCode@@@Z @3320
    ?previousCodePoint@UTF8CollationIterator@icu_58@@UEAAHAEAW4UErrorCode@@@Z @3321
    ?previousHasTccc@FCDUTF8CollationIterator@icu_58@@AEBACXZ @3322
    ?previousIndexFromNode@CollationBuilder@icu_58@@CAH_J@Z @3323
    ?previousSegment@FCDUIterCollationIterator@icu_58@@AEAACAEAW4UErrorCode@@@Z @3324
    ?previousSegment@FCDUTF16CollationIterator@icu_58@@AEAACAEAW4UErrorCode@@@Z @3325
    ?previousSegment@FCDUTF8CollationIterator@icu_58@@AEAACAEAW4UErrorCode@@@Z @3326
    ?primaryFromLongPrimaryCE32@Collation@icu_58@@SAII@Z @3327
    ?primaryOrder@CollationElementIterator@icu_58@@SAHH@Z @3328
    ?processOverrideString@SimpleDateFormat@icu_58@@AEAAXAEBVLocale@2@AEBVUnicodeString@2@CAEAW4UErrorCode@@@Z @3329
    ?put@TextTrieMap@icu_58@@QEAAXAEBVUnicodeString@2@PEAXAEAVZNStringPool@2@AEAW4UErrorCode@@@Z @3330
    ?put@TextTrieMap@icu_58@@QEAAXPEB_WPEAXAEAW4UErrorCode@@@Z @3331
    ?putImpl@TextTrieMap@icu_58@@AEAAXAEBVUnicodeString@2@PEAXAEAW4UErrorCode@@@Z @3332
    ?quantize@DigitList@icu_58@@QEAAXAEBV12@AEAW4UErrorCode@@@Z @3333
    ?quickInit@FixedDecimal@icu_58@@QEAACN@Z @3334
    ?rawOffsetAt@OlsonTimeZone@icu_58@@AEBAHF@Z @3335
    ?rbcFromUCollator@RuleBasedCollator@icu_58@@SAPEAV12@PEAUUCollator@@@Z @3336
    ?rbcFromUCollator@RuleBasedCollator@icu_58@@SAPEBV12@PEBUUCollator@@@Z @3337
    ?read@CollationDataReader@icu_58@@SAXPEBUCollationTailoring@2@PEBEHAEAU32@AEAW4UErrorCode@@@Z @3338
    ?readCE32@CollationData@icu_58@@SAIPEB_W@Z @3339
    ?readFromCurrentLocale@TimeUnitFormat@icu_58@@AEAAXW4UTimeUnitFormatStyle@@PEBDAEBVUVector@2@AEAW4UErrorCode@@@Z @3340
    ?readWords@CollationRuleParser@icu_58@@AEBAHHAEAVUnicodeString@2@@Z @3341
    ?reallocate@CollationKey@icu_58@@AEAAPEAEHH@Z @3342
    ?recalculateStamp@Calendar@icu_58@@AEAAXXZ @3343
    ?reduce@DigitList@icu_58@@QEAAXXZ @3344
    ?refreshInputText@RegexMatcher@icu_58@@UEAAAEAV12@PEAUUText@@AEAW4UErrorCode@@@Z @3345
    ?region@RegexMatcher@icu_58@@UEAAAEAV12@_J00AEAW4UErrorCode@@@Z @3346
    ?region@RegexMatcher@icu_58@@UEAAAEAV12@_J0AEAW4UErrorCode@@@Z @3347
    ?regionEnd64@RegexMatcher@icu_58@@UEBA_JXZ @3348
    ?regionEnd@RegexMatcher@icu_58@@UEBAHXZ @3349
    ?regionStart64@RegexMatcher@icu_58@@UEBA_JXZ @3350
    ?regionStart@RegexMatcher@icu_58@@UEBAHXZ @3351
    ?registerAlias@Transliterator@icu_58@@SAXAEBVUnicodeString@2@0@Z @3352
    ?registerFactory@Calendar@icu_58@@SAPEBXPEAVICUServiceFactory@2@AEAW4UErrorCode@@@Z @3353
    ?registerFactory@Collator@icu_58@@SAPEBXPEAVCollatorFactory@2@AEAW4UErrorCode@@@Z @3354
    ?registerFactory@NumberFormat@icu_58@@SAPEBXPEAVNumberFormatFactory@2@AEAW4UErrorCode@@@Z @3355
    ?registerFactory@Transliterator@icu_58@@SAXAEBVUnicodeString@2@P6APEAV12@0TToken@12@@Z1@Z @3356
    ?registerInstance@Collator@icu_58@@SAPEBXPEAV12@AEBVLocale@2@AEAW4UErrorCode@@@Z @3357
    ?registerInstance@Transliterator@icu_58@@SAXPEAV12@@Z @3358
    ?releaseMemory@?$MaybeStackHeaderAndArray@UdecNumber@@D$0CI@@icu_58@@AEAAXXZ @3359
    ?remove@?$EnumSet@W4UDateFormatBooleanAttribute@@$0A@$03@icu_58@@QEAAXW4UDateFormatBooleanAttribute@@@Z @3360
    ?remove@?$EnumSet@W4UNumberFormatAttribute@@$0BAAA@$0BAAD@@icu_58@@QEAAXW4UNumberFormatAttribute@@@Z @3361
    ?remove@AffixPattern@icu_58@@QEAAXXZ @3362
    ?remove@DigitAffix@icu_58@@QEAAXXZ @3363
    ?remove@PluralAffix@icu_58@@QEAAXXZ @3364
    ?reorder@CollationSettings@icu_58@@QEBAII@Z @3365
    ?reorderEx@CollationSettings@icu_58@@AEBAII@Z @3366
    ?reorderTableHasSplitBytes@CollationSettings@icu_58@@SACQEBE@Z @3367
    ?replaceAll@RegexMatcher@icu_58@@UEAA?AVUnicodeString@2@AEBV32@AEAW4UErrorCode@@@Z @3368
    ?replaceAll@RegexMatcher@icu_58@@UEAAPEAUUText@@PEAU3@0AEAW4UErrorCode@@@Z @3369
    ?replaceFieldTypes@DateTimePatternGenerator@icu_58@@QEAA?AVUnicodeString@2@AEBV32@0AEAW4UErrorCode@@@Z @3370
    ?replaceFieldTypes@DateTimePatternGenerator@icu_58@@QEAA?AVUnicodeString@2@AEBV32@0W4UDateTimePatternMatchOptions@@AEAW4UErrorCode@@@Z @3371
    ?replaceFirst@RegexMatcher@icu_58@@UEAA?AVUnicodeString@2@AEBV32@AEAW4UErrorCode@@@Z @3372
    ?replaceFirst@RegexMatcher@icu_58@@UEAAPEAUUText@@PEAU3@0AEAW4UErrorCode@@@Z @3373
    ?requireEnd@RegexMatcher@icu_58@@UEBACXZ @3374
    ?reset@CollationElementIterator@icu_58@@QEAAXXZ @3375
    ?reset@CollationIterator@icu_58@@IEAAXXZ @3376
    ?reset@CollationKey@icu_58@@AEAAAEAV12@XZ @3377
    ?reset@PluralAvailableLocalesEnumeration@icu_58@@UEAAXAEAW4UErrorCode@@@Z @3378
    ?reset@PluralSelectorAdapter@PluralFormat@icu_58@@QEAAXXZ @3379
    ?reset@PluralSelectorProvider@MessageFormat@icu_58@@QEAAXXZ @3380
    ?reset@QuantityFormatter@icu_58@@QEAAXXZ @3381
    ?reset@RegexMatcher@icu_58@@UEAAAEAV12@AEBVUnicodeString@2@@Z @3382
    ?reset@RegexMatcher@icu_58@@UEAAAEAV12@PEAUUText@@@Z @3383
    ?reset@RegexMatcher@icu_58@@UEAAAEAV12@XZ @3384
    ?reset@RegexMatcher@icu_58@@UEAAAEAV12@_JAEAW4UErrorCode@@@Z @3385
    ?reset@ScriptSet@icu_58@@QEAAAEAV12@W4UScriptCode@@AEAW4UErrorCode@@@Z @3386
    ?reset@SearchIterator@icu_58@@UEAAXXZ @3387
    ?reset@StringSearch@icu_58@@UEAAXXZ @3388
    ?resetAll@ScriptSet@icu_58@@QEAAAEAV12@XZ @3389
    ?resetBucketIterator@AlphabeticIndex@icu_58@@UEAAAEAV12@AEAW4UErrorCode@@@Z @3390
    ?resetCEs@CollationFastLatinBuilder@icu_58@@AEAAXXZ @3391
    ?resetPattern@MessageFormat@icu_58@@AEAAXXZ @3392
    ?resetPreserveRegion@RegexMatcher@icu_58@@QEAAXXZ @3393
    ?resetRecordIterator@AlphabeticIndex@icu_58@@UEAAAEAV12@XZ @3394
    ?resetReordering@CollationSettings@icu_58@@QEAAXXZ @3395
    ?resetStack@RegexMatcher@icu_58@@AEAAPEAUREStackFrame@2@XZ @3396
    ?resetToOffset@FCDUIterCollationIterator@icu_58@@UEAAXH@Z @3397
    ?resetToOffset@FCDUTF16CollationIterator@icu_58@@UEAAXH@Z @3398
    ?resetToOffset@FCDUTF8CollationIterator@icu_58@@UEAAXH@Z @3399
    ?resetToOffset@UIterCollationIterator@icu_58@@UEAAXH@Z @3400
    ?resetToOffset@UTF16CollationIterator@icu_58@@UEAAXH@Z @3401
    ?resetToOffset@UTF8CollationIterator@icu_58@@UEAAXH@Z @3402
    ?resize@?$MaybeStackHeaderAndArray@UdecNumber@@D$0CI@@icu_58@@QEAAPEAUdecNumber@@HH@Z @3403
    ?resolveFields@Calendar@icu_58@@IEAA?AW4UCalendarDateFields@@PEAY1M@7$$CBH@Z @3404
    ?resolveUnitPerUnit@MeasureUnit@icu_58@@SAPEAV12@AEBV12@0@Z @3405
    ?riseOrSet@CalendarAstronomer@icu_58@@QEAANAEAVCoordFunc@12@CNNN@Z @3406
    ?roll@Calendar@icu_58@@QEAAXW4EDateFields@12@CAEAW4UErrorCode@@@Z @3407
    ?roll@Calendar@icu_58@@QEAAXW4UCalendarDateFields@@CAEAW4UErrorCode@@@Z @3408
    ?roll@Calendar@icu_58@@UEAAXW4EDateFields@12@HAEAW4UErrorCode@@@Z @3409
    ?roll@Calendar@icu_58@@UEAAXW4UCalendarDateFields@@HAEAW4UErrorCode@@@Z @3410
    ?roll@ChineseCalendar@icu_58@@UEAAXW4EDateFields@Calendar@2@HAEAW4UErrorCode@@@Z @3411
    ?roll@ChineseCalendar@icu_58@@UEAAXW4UCalendarDateFields@@HAEAW4UErrorCode@@@Z @3412
    ?roll@GregorianCalendar@icu_58@@UEAAXW4EDateFields@Calendar@2@HAEAW4UErrorCode@@@Z @3413
    ?roll@GregorianCalendar@icu_58@@UEAAXW4UCalendarDateFields@@HAEAW4UErrorCode@@@Z @3414
    ?roll@HebrewCalendar@icu_58@@UEAAXW4EDateFields@Calendar@2@HAEAW4UErrorCode@@@Z @3415
    ?roll@HebrewCalendar@icu_58@@UEAAXW4UCalendarDateFields@@HAEAW4UErrorCode@@@Z @3416
    ?round@DigitList@icu_58@@QEAAXH@Z @3417
    ?round@FixedPrecision@icu_58@@QEBAAEAVDigitList@2@AEAV32@HAEAW4UErrorCode@@@Z @3418
    ?round@ScientificPrecision@icu_58@@QEBAAEAVDigitList@2@AEAV32@AEAW4UErrorCode@@@Z @3419
    ?round@ValueFormatter@icu_58@@QEBAAEAVDigitList@2@AEAV32@AEAW4UErrorCode@@@Z @3420
    ?roundAtExponent@DigitList@icu_58@@QEAAXHH@Z @3421
    ?roundFixedPoint@DigitList@icu_58@@QEAAXH@Z @3422
    ?rulesForKeyword@PluralRules@icu_58@@AEBAPEAVRuleChain@2@AEBVUnicodeString@2@@Z @3423
    ?safeClone@Collator@icu_58@@UEBAPEAV12@XZ @3424
    ?safeClone@StringSearch@icu_58@@UEBAPEAVSearchIterator@2@XZ @3425
    ?sameCEs@CollationBuilder@icu_58@@CACQEB_JH0H@Z @3426
    ?scanNamedChar@RegexCompile@icu_58@@AEAAHXZ @3427
    ?scanPosixProp@RegexCompile@icu_58@@AEAAPEAVUnicodeSet@2@XZ @3428
    ?scanProp@RegexCompile@icu_58@@AEAAPEAVUnicodeSet@2@XZ @3429
    ?search@TextTrieMap@icu_58@@AEBAXPEAUCharacterNode@2@AEBVUnicodeString@2@HHPEAVTextTrieMapSearchResultHandler@2@AEAW4UErrorCode@@@Z @3430
    ?search@TextTrieMap@icu_58@@QEBAXAEBVUnicodeString@2@HPEAVTextTrieMapSearchResultHandler@2@AEAW4UErrorCode@@@Z @3431
    ?searchInLocaleChain@TimeUnitFormat@icu_58@@AEAAXW4UTimeUnitFormatStyle@@PEBD1W4UTimeUnitFields@TimeUnit@2@AEBVUnicodeString@2@1PEAVHashtable@2@AEAW4UErrorCode@@@Z @3432
    ?secondaryOrder@CollationElementIterator@icu_58@@SAHH@Z @3433
    ?select@PluralRules@icu_58@@QEBA?AVUnicodeString@2@AEBVFixedDecimal@2@@Z @3434
    ?select@PluralRules@icu_58@@QEBA?AVUnicodeString@2@AEBVVisibleDigitsWithExponent@2@@Z @3435
    ?select@PluralRules@icu_58@@QEBA?AVUnicodeString@2@H@Z @3436
    ?select@PluralRules@icu_58@@QEBA?AVUnicodeString@2@N@Z @3437
    ?select@PluralSelectorAdapter@PluralFormat@icu_58@@UEBA?AVUnicodeString@3@PEAXNAEAW4UErrorCode@@@Z @3438
    ?select@PluralSelectorProvider@MessageFormat@icu_58@@UEBA?AVUnicodeString@3@PEAXNAEAW4UErrorCode@@@Z @3439
    ?selectPlural@QuantityFormatter@icu_58@@SA?AW4Form@StandardPlural@2@AEBVFormattable@2@AEBVNumberFormat@2@AEBVPluralRules@2@AEAVUnicodeString@2@AEAVFieldPosition@2@AEAW4UErrorCode@@@Z @3440
    ?separated@AlphabeticIndex@icu_58@@CA?AVUnicodeString@2@AEBV32@@Z @3441
    ?set2DigitYearStart@SimpleDateFormat@icu_58@@UEAAXNAEAW4UErrorCode@@@Z @3442
    ?set@?$EnumSet@W4UDateFormatBooleanAttribute@@$0A@$03@icu_58@@QEAAXW4UDateFormatBooleanAttribute@@H@Z @3443
    ?set@?$EnumSet@W4UNumberFormatAttribute@@$0BAAA@$0BAAD@@icu_58@@QEAAXW4UNumberFormatAttribute@@H@Z @3444
    ?set@Calendar@icu_58@@QEAAXHHH@Z @3445
    ?set@Calendar@icu_58@@QEAAXHHHHH@Z @3446
    ?set@Calendar@icu_58@@QEAAXHHHHHH@Z @3447
    ?set@Calendar@icu_58@@QEAAXW4UCalendarDateFields@@H@Z @3448
    ?set@CurrencyAffixInfo@icu_58@@QEAAXPEBDPEBVPluralRules@2@PEB_WAEAW4UErrorCode@@@Z @3449
    ?set@DigitList@icu_58@@QEAAXH@Z @3450
    ?set@DigitList@icu_58@@QEAAXN@Z @3451
    ?set@DigitList@icu_58@@QEAAXVStringPiece@2@AEAW4UErrorCode@@I@Z @3452
    ?set@DigitList@icu_58@@QEAAX_J@Z @3453
    ?set@Ecliptic@CalendarAstronomer@icu_58@@QEAAXNN@Z @3454
    ?set@Equatorial@CalendarAstronomer@icu_58@@QEAAXNN@Z @3455
    ?set@Horizon@CalendarAstronomer@icu_58@@QEAAXNN@Z @3456
    ?set@MoonAge@CalendarAstronomer@icu_58@@QEAAXN@Z @3457
    ?set@ScriptSet@icu_58@@QEAAAEAV12@W4UScriptCode@@AEAW4UErrorCode@@@Z @3458
    ?setAlgorithmic@NumberingSystem@icu_58@@AEAAXC@Z @3459
    ?setAll@ScriptSet@icu_58@@QEAAAEAV12@XZ @3460
    ?setAlternateHandling@CollationSettings@icu_58@@QEAAXW4UColAttributeValue@@HAEAW4UErrorCode@@@Z @3461
    ?setAmPmStrings@DateFormatSymbols@icu_58@@QEAAXPEBVUnicodeString@2@H@Z @3462
    ?setAppendItemFormat@DateTimePatternGenerator@icu_58@@QEAAXW4UDateTimePatternField@@AEBVUnicodeString@2@@Z @3463
    ?setAppendItemName@DateTimePatternGenerator@icu_58@@QEAAXW4UDateTimePatternField@@AEBVUnicodeString@2@@Z @3464
    ?setArgStartFormat@MessageFormat@icu_58@@AEAAXHPEAVFormat@2@AEAW4UErrorCode@@@Z @3465
    ?setArray@Formattable@icu_58@@QEAAXPEBV12@H@Z @3466
    ?setAttribute@DecimalFormat@icu_58@@UEAAAEAV12@W4UNumberFormatAttribute@@HAEAW4UErrorCode@@@Z @3467
    ?setAttribute@RuleBasedCollator@icu_58@@UEAAXW4UColAttribute@@W4UColAttributeValue@@AEAW4UErrorCode@@@Z @3468
    ?setAttribute@SearchIterator@icu_58@@QEAAXW4USearchAttribute@@W4USearchAttributeValue@@AEAW4UErrorCode@@@Z @3469
    ?setAttributeDefault@RuleBasedCollator@icu_58@@AEAAXH@Z @3470
    ?setAttributeExplicitly@RuleBasedCollator@icu_58@@AEAAXH@Z @3471
    ?setAvailableFormat@DateTimePatternGenerator@icu_58@@AEAAXAEBVUnicodeString@2@AEAW4UErrorCode@@@Z @3472
    ?setBeginIndex@FieldPosition@icu_58@@QEAAXH@Z @3473
    ?setBooleanAttribute@DateFormat@icu_58@@UEAAAEAV12@W4UDateFormatBooleanAttribute@@CAEAW4UErrorCode@@@Z @3474
    ?setBreakIterator@SearchIterator@icu_58@@QEAAXPEAVBreakIterator@2@AEAW4UErrorCode@@@Z @3475
    ?setCalculationType@IslamicCalendar@icu_58@@QEAAXW4ECalculationType@12@AEAW4UErrorCode@@@Z @3476
    ?setCalendar@DateFormat@icu_58@@UEAAXAEBVCalendar@2@@Z @3477
    ?setCalendarLenient@DateFormat@icu_58@@UEAAXC@Z @3478
    ?setCaseBits@CollationBuilder@icu_58@@AEAAXAEBVUnicodeString@2@AEAPEBDAEAW4UErrorCode@@@Z @3479
    ?setCaseFirst@CollationSettings@icu_58@@QEAAXW4UColAttributeValue@@HAEAW4UErrorCode@@@Z @3480
    ?setChoices@ChoiceFormat@icu_58@@EEAAXPEBNPEBCPEBVUnicodeString@2@HAEAW4UErrorCode@@@Z @3481
    ?setChoices@ChoiceFormat@icu_58@@UEAAXPEBNPEBCPEBVUnicodeString@2@H@Z @3482
    ?setChoices@ChoiceFormat@icu_58@@UEAAXPEBNPEBVUnicodeString@2@H@Z @3483
    ?setCollator@StringSearch@icu_58@@QEAAXPEAVRuleBasedCollator@2@AEAW4UErrorCode@@@Z @3484
    ?setContext@DateFormat@icu_58@@UEAAXW4UDisplayContext@@AEAW4UErrorCode@@@Z @3485
    ?setContext@DecimalFormat@icu_58@@UEAAXW4UDisplayContext@@AEAW4UErrorCode@@@Z @3486
    ?setContext@NumberFormat@icu_58@@UEAAXW4UDisplayContext@@AEAW4UErrorCode@@@Z @3487
    ?setContext@RuleBasedNumberFormat@icu_58@@UEAAXW4UDisplayContext@@AEAW4UErrorCode@@@Z @3488
    ?setContext@SimpleDateFormat@icu_58@@UEAAXW4UDisplayContext@@AEAW4UErrorCode@@@Z @3489
    ?setCount@DigitList@icu_58@@QEAAXH@Z @3490
    ?setCurrency@DecimalFormat@icu_58@@UEAAXPEB_W@Z @3491
    ?setCurrency@DecimalFormat@icu_58@@UEAAXPEB_WAEAW4UErrorCode@@@Z @3492
    ?setCurrency@NumberFormat@icu_58@@UEAAXPEB_WAEAW4UErrorCode@@@Z @3493
    ?setCurrencyPluralInfo@DecimalFormat@icu_58@@UEAAXAEBVCurrencyPluralInfo@2@@Z @3494
    ?setCurrencyPluralPattern@CurrencyPluralInfo@icu_58@@QEAAXAEBVUnicodeString@2@0AEAW4UErrorCode@@@Z @3495
    ?setCurrencyUsage@DecimalFormat@icu_58@@QEAAXW4UCurrencyUsage@@PEAW4UErrorCode@@@Z @3496
    ?setCurrentCE@CollationIterator@icu_58@@QEAAX_J@Z @3497
    ?setCustomArgStartFormat@MessageFormat@icu_58@@AEAAXHPEAVFormat@2@AEAW4UErrorCode@@@Z @3498
    ?setDSTSavings@SimpleTimeZone@icu_58@@QEAAXHAEAW4UErrorCode@@@Z @3499
    ?setData@FieldPositionIterator@icu_58@@AEAAXPEAVUVector32@2@AEAW4UErrorCode@@@Z @3500
    ?setDate@CalendarAstronomer@icu_58@@QEAAXN@Z @3501
    ?setDate@Formattable@icu_58@@QEAAXN@Z @3502
    ?setDateFormatSymbols@SimpleDateFormat@icu_58@@UEAAXAEBVDateFormatSymbols@2@@Z @3503
    ?setDateIntervalInfo@DateIntervalFormat@icu_58@@QEAAXAEBVDateIntervalInfo@2@AEAW4UErrorCode@@@Z @3504
    ?setDateTimeFormat@DateTimePatternGenerator@icu_58@@QEAAXAEBVUnicodeString@2@@Z @3505
    ?setDateTimeFromCalendar@DateTimePatternGenerator@icu_58@@AEAAXAEBVLocale@2@AEAW4UErrorCode@@@Z @3506
    ?setDecimal@DateTimePatternGenerator@icu_58@@QEAAXAEBVUnicodeString@2@@Z @3507
    ?setDecimalAt@DigitList@icu_58@@QEAAXH@Z @3508
    ?setDecimalFormatSymbols@AffixPatternParser@icu_58@@QEAAXAEBVDecimalFormatSymbols@2@@Z @3509
    ?setDecimalFormatSymbols@DecimalFormat@icu_58@@UEAAXAEBVDecimalFormatSymbols@2@@Z @3510
    ?setDecimalFormatSymbols@DigitFormatter@icu_58@@QEAAXAEBVDecimalFormatSymbols@2@@Z @3511
    ?setDecimalFormatSymbols@RuleBasedNumberFormat@icu_58@@UEAAXAEBVDecimalFormatSymbols@2@@Z @3512
    ?setDecimalFormatSymbolsForMonetary@DigitFormatter@icu_58@@QEAAXAEBVDecimalFormatSymbols@2@@Z @3513
    ?setDecimalNumber@Formattable@icu_58@@QEAAXVStringPiece@2@AEAW4UErrorCode@@@Z @3514
    ?setDecimalPatternMatchRequired@DecimalFormat@icu_58@@UEAAXC@Z @3515
    ?setDecimalSeparatorAlwaysShown@DecimalFormat@icu_58@@UEAAXC@Z @3516
    ?setDecimalSymbols@DateTimePatternGenerator@icu_58@@AEAAXAEBVLocale@2@AEAW4UErrorCode@@@Z @3517
    ?setDefault@TimeZone@icu_58@@SAXAEBV12@@Z @3518
    ?setDefaultParseOptions@TimeZoneFormat@icu_58@@QEAAXI@Z @3519
    ?setDefaultRuleSet@RuleBasedNumberFormat@icu_58@@UEAAXAEBVUnicodeString@2@AEAW4UErrorCode@@@Z @3520
    ?setDesc@NumberingSystem@icu_58@@AEAAXVUnicodeString@2@@Z @3521
    ?setDigit@DigitList@icu_58@@QEAAXHD@Z @3522
    ?setDigitTags@CollationDataBuilder@icu_58@@IEAAXAEAW4UErrorCode@@@Z @3523
    ?setDouble@Formattable@icu_58@@QEAAXN@Z @3524
    ?setEndIndex@FieldPosition@icu_58@@QEAAXH@Z @3525
    ?setEndRule@SimpleTimeZone@icu_58@@QEAAXHHHAEAW4UErrorCode@@@Z @3526
    ?setEndRule@SimpleTimeZone@icu_58@@QEAAXHHHHAEAW4UErrorCode@@@Z @3527
    ?setEndRule@SimpleTimeZone@icu_58@@QEAAXHHHHCAEAW4UErrorCode@@@Z @3528
    ?setEndRule@SimpleTimeZone@icu_58@@QEAAXHHHHW4TimeMode@12@AEAW4UErrorCode@@@Z @3529
    ?setEndRule@SimpleTimeZone@icu_58@@QEAAXHHHHW4TimeMode@12@CAEAW4UErrorCode@@@Z @3530
    ?setEndRule@SimpleTimeZone@icu_58@@QEAAXHHHW4TimeMode@12@AEAW4UErrorCode@@@Z @3531
    ?setEraNames@DateFormatSymbols@icu_58@@QEAAXPEBVUnicodeString@2@H@Z @3532
    ?setEras@DateFormatSymbols@icu_58@@QEAAXPEBVUnicodeString@2@H@Z @3533
    ?setErrorContext@CollationRuleParser@icu_58@@AEAAXXZ @3534
    ?setEval@RegexCompile@icu_58@@AEAAXH@Z @3535
    ?setExponentSignAlwaysShown@DecimalFormat@icu_58@@UEAAXC@Z @3536
    ?setFallbackIntervalPattern@DateIntervalInfo@icu_58@@QEAAXAEBVUnicodeString@2@AEAW4UErrorCode@@@Z @3537
    ?setFallbackPattern@DateIntervalFormat@icu_58@@AEAAXW4UCalendarDateFields@@AEBVUnicodeString@2@AEAW4UErrorCode@@@Z @3538
    ?setFastLatinOptions@RuleBasedCollator@icu_58@@AEBAXAEAUCollationSettings@2@@Z @3539
    ?setField@FieldPosition@icu_58@@QEAAXH@Z @3540
    ?setFindProgressCallback@RegexMatcher@icu_58@@UEAAXP6ACPEBX_J@Z0AEAW4UErrorCode@@@Z @3541
    ?setFirstDayOfWeek@Calendar@icu_58@@QEAAXW4UCalendarDaysOfWeek@@@Z @3542
    ?setFlag@CollationSettings@icu_58@@QEAAXHW4UColAttributeValue@@HAEAW4UErrorCode@@@Z @3543
    ?setFormat@MessageFormat@icu_58@@UEAAXAEBVUnicodeString@2@AEBVFormat@2@AEAW4UErrorCode@@@Z @3544
    ?setFormat@MessageFormat@icu_58@@UEAAXHAEBVFormat@2@@Z @3545
    ?setFormatWidth@DecimalFormat@icu_58@@UEAAXH@Z @3546
    ?setFormats@MessageFormat@icu_58@@UEAAXPEAPEBVFormat@2@H@Z @3547
    ?setFracDigitCount@DigitInterval@icu_58@@QEAAXH@Z @3548
    ?setFrom@TimeZoneTransition@icu_58@@QEAAXAEBVTimeZoneRule@2@@Z @3549
    ?setGMTOffsetDigits@TimeZoneFormat@icu_58@@QEAAXAEBVUnicodeString@2@AEAW4UErrorCode@@@Z @3550
    ?setGMTOffsetPattern@TimeZoneFormat@icu_58@@QEAAXW4UTimeZoneFormatGMTOffsetPatternType@@AEBVUnicodeString@2@AEAW4UErrorCode@@@Z @3551
    ?setGMTPattern@TimeZoneFormat@icu_58@@QEAAXAEBVUnicodeString@2@AEAW4UErrorCode@@@Z @3552
    ?setGMTZeroFormat@TimeZoneFormat@icu_58@@QEAAXAEBVUnicodeString@2@AEAW4UErrorCode@@@Z @3553
    ?setGregorianChange@GregorianCalendar@icu_58@@QEAAXNAEAW4UErrorCode@@@Z @3554
    ?setGroupingSize@DecimalFormat@icu_58@@UEAAXH@Z @3555
    ?setGroupingUsed@DecimalFormat@icu_58@@UEAAXC@Z @3556
    ?setGroupingUsed@NumberFormat@icu_58@@UEAAXC@Z @3557
    ?setID@TimeZone@icu_58@@QEAAXAEBVUnicodeString@2@@Z @3558
    ?setID@Transliterator@icu_58@@IEAAXAEBVUnicodeString@2@@Z @3559
    ?setISO@CurrencyAffixInfo@icu_58@@QEAAXAEBVUnicodeString@2@@Z @3560
    ?setImporter@CollationRuleParser@icu_58@@QEAAXPEAVImporter@12@@Z @3561
    ?setInfinite@VisibleDigits@icu_58@@AEAAXXZ @3562
    ?setInflowLabel@AlphabeticIndex@icu_58@@UEAAAEAV12@AEBVUnicodeString@2@AEAW4UErrorCode@@@Z @3563
    ?setInt64@Formattable@icu_58@@QEAAX_J@Z @3564
    ?setIntDigitCount@DigitInterval@icu_58@@QEAAXH@Z @3565
    ?setIntervalPattern@DateIntervalFormat@icu_58@@AEAACW4UCalendarDateFields@@PEBVUnicodeString@2@1CPEAV42@2@Z @3566
    ?setIntervalPattern@DateIntervalFormat@icu_58@@AEAAXW4UCalendarDateFields@@AEBVUnicodeString@2@@Z @3567
    ?setIntervalPattern@DateIntervalFormat@icu_58@@AEAAXW4UCalendarDateFields@@AEBVUnicodeString@2@C@Z @3568
    ?setIntervalPattern@DateIntervalInfo@icu_58@@QEAAXAEBVUnicodeString@2@W4UCalendarDateFields@@0AEAW4UErrorCode@@@Z @3569
    ?setIntervalPatternInternally@DateIntervalInfo@icu_58@@AEAAXAEBVUnicodeString@2@W4UCalendarDateFields@@0AEAW4UErrorCode@@@Z @3570
    ?setJulianDay@CalendarAstronomer@icu_58@@QEAAXN@Z @3571
    ?setLastModified@VTimeZone@icu_58@@QEAAXN@Z @3572
    ?setLeadSurrogates@CollationDataBuilder@icu_58@@IEAAXAEAW4UErrorCode@@@Z @3573
    ?setLeastSignificantInclusive@DigitInterval@icu_58@@QEAAXH@Z @3574
    ?setLength@CollationKey@icu_58@@AEAAXH@Z @3575
    ?setLenient@Calendar@icu_58@@QEAAXC@Z @3576
    ?setLenient@DateFormat@icu_58@@UEAAXC@Z @3577
    ?setLenient@NumberFormat@icu_58@@UEAAXC@Z @3578
    ?setLenient@RuleBasedNumberFormat@icu_58@@UEAAXC@Z @3579
    ?setLocalPatternChars@DateFormatSymbols@icu_58@@QEAAXAEBVUnicodeString@2@@Z @3580
    ?setLocale@CurrencyPluralInfo@icu_58@@QEAAXAEBVLocale@2@AEAW4UErrorCode@@@Z @3581
    ?setLocale@MessageFormat@icu_58@@UEAAXAEBVLocale@2@@Z @3582
    ?setLocale@PluralFormat@icu_58@@QEAAXAEBVLocale@2@AEAW4UErrorCode@@@Z @3583
    ?setLocale@TimeUnitFormat@icu_58@@QEAAXAEBVLocale@2@AEAW4UErrorCode@@@Z @3584
    ?setLocaleIDs@Format@icu_58@@IEAAXPEBD0@Z @3585
    ?setLocales@Collator@icu_58@@UEAAXAEBVLocale@2@00@Z @3586
    ?setLocales@RuleBasedCollator@icu_58@@MEAAXAEBVLocale@2@00@Z @3587
    ?setLong@Formattable@icu_58@@QEAAXH@Z @3588
    ?setMatchCallback@RegexMatcher@icu_58@@UEAAXP6ACPEBXH@Z0AEAW4UErrorCode@@@Z @3589
    ?setMatchLength@SearchIterator@icu_58@@MEAAXH@Z @3590
    ?setMatchNotFound@SearchIterator@icu_58@@IEAAXXZ @3591
    ?setMatchStart@SearchIterator@icu_58@@MEAAXH@Z @3592
    ?setMax@SignificantDigitInterval@icu_58@@QEAAXH@Z @3593
    ?setMaxLabelCount@AlphabeticIndex@icu_58@@UEAAAEAV12@HAEAW4UErrorCode@@@Z @3594
    ?setMaxVariable@CollationSettings@icu_58@@QEAAXHHAEAW4UErrorCode@@@Z @3595
    ?setMaxVariable@Collator@icu_58@@UEAAAEAV12@W4UColReorderCode@@AEAW4UErrorCode@@@Z @3596
    ?setMaxVariable@RuleBasedCollator@icu_58@@UEAAAEAVCollator@2@W4UColReorderCode@@AEAW4UErrorCode@@@Z @3597
    ?setMaximumContextLength@Transliterator@icu_58@@IEAAXH@Z @3598
    ?setMaximumFractionDigits@DecimalFormat@icu_58@@UEAAXH@Z @3599
    ?setMaximumFractionDigits@NumberFormat@icu_58@@UEAAXH@Z @3600
    ?setMaximumIntegerDigits@DecimalFormat@icu_58@@UEAAXH@Z @3601
    ?setMaximumIntegerDigits@NumberFormat@icu_58@@UEAAXH@Z @3602
    ?setMaximumSignificantDigits@DecimalFormat@icu_58@@QEAAXH@Z @3603
    ?setMeasureFormatLocale@MeasureFormat@icu_58@@IEAACAEBVLocale@2@AEAW4UErrorCode@@@Z @3604
    ?setMin@SignificantDigitInterval@icu_58@@QEAAXH@Z @3605
    ?setMinimalDaysInFirstWeek@Calendar@icu_58@@QEAAXE@Z @3606
    ?setMinimumExponentDigits@DecimalFormat@icu_58@@UEAAXC@Z @3607
    ?setMinimumFractionDigits@DecimalFormat@icu_58@@UEAAXH@Z @3608
    ?setMinimumFractionDigits@NumberFormat@icu_58@@UEAAXH@Z @3609
    ?setMinimumGroupingDigits@DecimalFormat@icu_58@@UEAAXH@Z @3610
    ?setMinimumIntegerDigits@DecimalFormat@icu_58@@UEAAXH@Z @3611
    ?setMinimumIntegerDigits@NumberFormat@icu_58@@UEAAXH@Z @3612
    ?setMinimumSignificantDigits@DecimalFormat@icu_58@@QEAAXH@Z @3613
    ?setMonths@DateFormatSymbols@icu_58@@QEAAXPEBVUnicodeString@2@H@Z @3614
    ?setMonths@DateFormatSymbols@icu_58@@QEAAXPEBVUnicodeString@2@HW4DtContextType@12@W4DtWidthType@12@@Z @3615
    ?setMostSignificantExclusive@DigitInterval@icu_58@@QEAAXH@Z @3616
    ?setMultiplier@DecimalFormat@icu_58@@UEAAXH@Z @3617
    ?setNaN@VisibleDigits@icu_58@@AEAAXXZ @3618
    ?setName@NumberingSystem@icu_58@@AEAAXPEBD@Z @3619
    ?setNarrowEras@DateFormatSymbols@icu_58@@QEAAXPEBVUnicodeString@2@H@Z @3620
    ?setNegative@VisibleDigits@icu_58@@AEAAXXZ @3621
    ?setNegativePrefix@DecimalFormat@icu_58@@UEAAXAEBVUnicodeString@2@@Z @3622
    ?setNegativeSuffix@DecimalFormat@icu_58@@UEAAXAEBVUnicodeString@2@@Z @3623
    ?setNumberFormat@DateFormat@icu_58@@UEAAXAEBVNumberFormat@2@@Z @3624
    ?setNumberFormat@PluralFormat@icu_58@@QEAAXPEBVNumberFormat@2@AEAW4UErrorCode@@@Z @3625
    ?setNumberFormat@TimeUnitFormat@icu_58@@QEAAXAEBVNumberFormat@2@AEAW4UErrorCode@@@Z @3626
    ?setOffset@CollationElementIterator@icu_58@@QEAAXHAEAW4UErrorCode@@@Z @3627
    ?setOffset@StringSearch@icu_58@@UEAAXHAEAW4UErrorCode@@@Z @3628
    ?setOtherDecimalFormatSymbols@DigitFormatter@icu_58@@AEAAXAEBVDecimalFormatSymbols@2@@Z @3629
    ?setOverflowLabel@AlphabeticIndex@icu_58@@UEAAAEAV12@AEBVUnicodeString@2@AEAW4UErrorCode@@@Z @3630
    ?setPadCharacter@DecimalFormat@icu_58@@UEAAXAEBVUnicodeString@2@@Z @3631
    ?setPadPosition@DecimalFormat@icu_58@@UEAAXW4EPadPosition@12@@Z @3632
    ?setParseAllInput@DecimalFormat@icu_58@@QEAAXW4UNumberFormatAttributeValue@@@Z @3633
    ?setParseError@CollationRuleParser@icu_58@@AEAAXPEBDAEAW4UErrorCode@@@Z @3634
    ?setParseIntegerOnly@DecimalFormat@icu_58@@UEAAXC@Z @3635
    ?setParseIntegerOnly@NumberFormat@icu_58@@UEAAXC@Z @3636
    ?setPattern@StringSearch@icu_58@@QEAAXAEBVUnicodeString@2@AEAW4UErrorCode@@@Z @3637
    ?setPatternForCurrencySpacing@DecimalFormatSymbols@icu_58@@QEAAXW4UCurrencySpacing@@CAEBVUnicodeString@2@@Z @3638
    ?setPatternInfo@DateIntervalFormat@icu_58@@AEAAXW4UCalendarDateFields@@PEBVUnicodeString@2@1C@Z @3639
    ?setPluralRules@CurrencyPluralInfo@icu_58@@QEAAXAEBVUnicodeString@2@AEAW4UErrorCode@@@Z @3640
    ?setPositive@DigitList@icu_58@@QEAAXC@Z @3641
    ?setPositivePrefix@DecimalFormat@icu_58@@UEAAXAEBVUnicodeString@2@@Z @3642
    ?setPositiveSuffix@DecimalFormat@icu_58@@UEAAXAEBVUnicodeString@2@@Z @3643
    ?setPrimaryRangeAndReturnNext@CollationDataBuilder@icu_58@@QEAAIHHIHAEAW4UErrorCode@@@Z @3644
    ?setPushOp@RegexCompile@icu_58@@AEAAXH@Z @3645
    ?setQuarters@DateFormatSymbols@icu_58@@QEAAXPEBVUnicodeString@2@HW4DtContextType@12@W4DtWidthType@12@@Z @3646
    ?setRadix@NumberingSystem@icu_58@@AEAAXH@Z @3647
    ?setRawOffset@OlsonTimeZone@icu_58@@UEAAXH@Z @3648
    ?setRawOffset@RuleBasedTimeZone@icu_58@@UEAAXH@Z @3649
    ?setRawOffset@SimpleTimeZone@icu_58@@UEAAXH@Z @3650
    ?setRawOffset@VTimeZone@icu_58@@UEAAXH@Z @3651
    ?setRelatedYear@Calendar@icu_58@@UEAAXH@Z @3652
    ?setReorderArrays@CollationSettings@icu_58@@AEAAXPEBHHPEBIHPEBEAEAW4UErrorCode@@@Z @3653
    ?setReorderCodes@Collator@icu_58@@UEAAXPEBHHAEAW4UErrorCode@@@Z @3654
    ?setReorderCodes@RuleBasedCollator@icu_58@@UEAAXPEBHHAEAW4UErrorCode@@@Z @3655
    ?setReordering@CollationSettings@icu_58@@QEAAXAEBUCollationData@2@PEBHHAEAW4UErrorCode@@@Z @3656
    ?setRepeatedWallTimeOption@Calendar@icu_58@@QEAAXW4UCalendarWallTimeOption@@@Z @3657
    ?setRoundingIncrement@DecimalFormat@icu_58@@UEAAXN@Z @3658
    ?setRoundingMode@DecimalFormat@icu_58@@UEAAXW4ERoundingMode@12@@Z @3659
    ?setRoundingMode@DigitList@icu_58@@QEAAXW4ERoundingMode@DecimalFormat@2@@Z @3660
    ?setScientificNotation@DecimalFormat@icu_58@@UEAAXC@Z @3661
    ?setScriptExtensions@ScriptSet@icu_58@@QEAAXHAEAW4UErrorCode@@@Z @3662
    ?setSecondaryGroupingSize@DecimalFormat@icu_58@@UEAAXH@Z @3663
    ?setSeparateDateTimePtn@DateIntervalFormat@icu_58@@AEAACAEBVUnicodeString@2@0@Z @3664
    ?setShortMonths@DateFormatSymbols@icu_58@@QEAAXPEBVUnicodeString@2@H@Z @3665
    ?setShortWeekdays@DateFormatSymbols@icu_58@@QEAAXPEBVUnicodeString@2@H@Z @3666
    ?setSignificantDigitsUsed@DecimalFormat@icu_58@@QEAAXC@Z @3667
    ?setSink@CollationRuleParser@icu_58@@QEAAXPEAVSink@12@@Z @3668
    ?setSkippedWallTimeOption@Calendar@icu_58@@QEAAXW4UCalendarWallTimeOption@@@Z @3669
    ?setStackLimit@RegexMatcher@icu_58@@UEAAXHAEAW4UErrorCode@@@Z @3670
    ?setStartRule@SimpleTimeZone@icu_58@@QEAAXHHHAEAW4UErrorCode@@@Z @3671
    ?setStartRule@SimpleTimeZone@icu_58@@QEAAXHHHHAEAW4UErrorCode@@@Z @3672
    ?setStartRule@SimpleTimeZone@icu_58@@QEAAXHHHHCAEAW4UErrorCode@@@Z @3673
    ?setStartRule@SimpleTimeZone@icu_58@@QEAAXHHHHW4TimeMode@12@AEAW4UErrorCode@@@Z @3674
    ?setStartRule@SimpleTimeZone@icu_58@@QEAAXHHHHW4TimeMode@12@CAEAW4UErrorCode@@@Z @3675
    ?setStartRule@SimpleTimeZone@icu_58@@QEAAXHHHW4TimeMode@12@AEAW4UErrorCode@@@Z @3676
    ?setStartYear@SimpleTimeZone@icu_58@@QEAAXH@Z @3677
    ?setStrength@CollationSettings@icu_58@@QEAAXHHAEAW4UErrorCode@@@Z @3678
    ?setStrength@Collator@icu_58@@UEAAXW4ECollationStrength@12@@Z @3679
    ?setString@Formattable@icu_58@@QEAAXAEBVUnicodeString@2@@Z @3680
    ?setSymbol@CurrencyAffixInfo@icu_58@@QEAAXAEBVUnicodeString@2@@Z @3681
    ?setSymbol@DecimalFormatSymbols@icu_58@@QEAAXW4ENumberFormatSymbol@12@AEBVUnicodeString@2@C@Z @3682
    ?setTZURL@VTimeZone@icu_58@@QEAAXAEBVUnicodeString@2@@Z @3683
    ?setText@CollationElementIterator@icu_58@@QEAAXAEAVCharacterIterator@2@AEAW4UErrorCode@@@Z @3684
    ?setText@CollationElementIterator@icu_58@@QEAAXAEBVUnicodeString@2@AEAW4UErrorCode@@@Z @3685
    ?setText@SearchIterator@icu_58@@UEAAXAEAVCharacterIterator@2@AEAW4UErrorCode@@@Z @3686
    ?setText@SearchIterator@icu_58@@UEAAXAEBVUnicodeString@2@AEAW4UErrorCode@@@Z @3687
    ?setText@StringSearch@icu_58@@UEAAXAEAVCharacterIterator@2@AEAW4UErrorCode@@@Z @3688
    ?setText@StringSearch@icu_58@@UEAAXAEBVUnicodeString@2@AEAW4UErrorCode@@@Z @3689
    ?setText@UTF16CollationIterator@icu_58@@QEAAXPEB_W0@Z @3690
    ?setTime@Calendar@icu_58@@QEAAXNAEAW4UErrorCode@@@Z @3691
    ?setTime@CalendarAstronomer@icu_58@@QEAAXN@Z @3692
    ?setTime@TimeZoneTransition@icu_58@@QEAAXN@Z @3693
    ?setTimeInMillis@Calendar@icu_58@@IEAAXNAEAW4UErrorCode@@@Z @3694
    ?setTimeLimit@RegexMatcher@icu_58@@UEAAXHAEAW4UErrorCode@@@Z @3695
    ?setTimeSeparatorString@DateFormatSymbols@icu_58@@QEAAXAEBVUnicodeString@2@@Z @3696
    ?setTimeZone@Calendar@icu_58@@QEAAXAEBVTimeZone@2@@Z @3697
    ?setTimeZone@DateFormat@icu_58@@UEAAXAEBVTimeZone@2@@Z @3698
    ?setTimeZone@DateIntervalFormat@icu_58@@UEAAXAEBVTimeZone@2@@Z @3699
    ?setTimeZoneFormat@SimpleDateFormat@icu_58@@UEAAXAEBVTimeZoneFormat@2@@Z @3700
    ?setTimeZoneNames@TimeZoneFormat@icu_58@@QEAAXAEBVTimeZoneNames@2@@Z @3701
    ?setTo@DigitAffix@icu_58@@QEAAXAEBVUnicodeString@2@H@Z @3702
    ?setTo@MeasureUnit@icu_58@@AEAAXHH@Z @3703
    ?setTo@TimeZoneTransition@icu_58@@QEAAXAEBVTimeZoneRule@2@@Z @3704
    ?setToBogus@CollationKey@icu_58@@AEAAAEAV12@XZ @3705
    ?setToZero@DigitList@icu_58@@QEAAXXZ @3706
    ?setTrace@RegexMatcher@icu_58@@QEAAXC@Z @3707
    ?setTransliterators@CompoundTransliterator@icu_58@@QEAAXQEBQEAVTransliterator@2@H@Z @3708
    ?setUnderflowLabel@AlphabeticIndex@icu_58@@UEAAAEAV12@AEBVUnicodeString@2@AEAW4UErrorCode@@@Z @3709
    ?setVariableTop@RuleBasedCollator@icu_58@@UEAAIAEBVUnicodeString@2@AEAW4UErrorCode@@@Z @3710
    ?setVariableTop@RuleBasedCollator@icu_58@@UEAAIPEB_WHAEAW4UErrorCode@@@Z @3711
    ?setVariableTop@RuleBasedCollator@icu_58@@UEAAXIAEAW4UErrorCode@@@Z @3712
    ?setVariant@PluralAffix@icu_58@@QEAACPEBDAEBVUnicodeString@2@AEAW4UErrorCode@@@Z @3713
    ?setVersion@CollationTailoring@icu_58@@QEAAXQEBE0@Z @3714
    ?setWeekData@Calendar@icu_58@@AEAAXAEBVLocale@2@PEBDAEAW4UErrorCode@@@Z @3715
    ?setWeekdays@DateFormatSymbols@icu_58@@QEAAXPEBVUnicodeString@2@H@Z @3716
    ?setWeekdays@DateFormatSymbols@icu_58@@QEAAXPEBVUnicodeString@2@HW4DtContextType@12@W4DtWidthType@12@@Z @3717
    ?setYearNames@DateFormatSymbols@icu_58@@QEAAXPEBVUnicodeString@2@HW4DtContextType@12@W4DtWidthType@12@@Z @3718
    ?setZodiacNames@DateFormatSymbols@icu_58@@QEAAXPEBVUnicodeString@2@HW4DtContextType@12@W4DtWidthType@12@@Z @3719
    ?setZoneStrings@DateFormatSymbols@icu_58@@QEAAXPEBQEBVUnicodeString@2@HH@Z @3720
    ?setup@TimeUnitFormat@icu_58@@AEAAXAEAW4UErrorCode@@@Z @3721
    ?setupCurrencyAffixPatterns@DecimalFormat@icu_58@@AEAAXAEAW4UErrorCode@@@Z @3722
    ?setupCurrencyPluralPattern@CurrencyPluralInfo@icu_58@@AEAAXAEBVLocale@2@AEAW4UErrorCode@@@Z @3723
    ?shiftDecimalRight@DigitList@icu_58@@QEAAXH@Z @3724
    ?shiftLast@FieldPositionHandler@icu_58@@UEAAXH@Z @3725
    ?shrinkToFitWithin@DigitInterval@icu_58@@QEAAXAEBV12@@Z @3726
    ?size@MatchInfoCollection@TimeZoneNames@icu_58@@QEBAHXZ @3727
    ?skipBidiMarks@DecimalFormat@icu_58@@CAHAEBVUnicodeString@2@H@Z @3728
    ?skipComment@CollationRuleParser@icu_58@@AEBAHH@Z @3729
    ?skipPadding@DecimalFormat@icu_58@@AEBAHAEBVUnicodeString@2@H@Z @3730
    ?skipPatternWhiteSpace@DecimalFormat@icu_58@@CAHAEBVUnicodeString@2@H@Z @3731
    ?skipPatternWhiteSpace@SimpleDateFormat@icu_58@@AEBAHAEBVUnicodeString@2@H@Z @3732
    ?skipUWhiteSpace@DecimalFormat@icu_58@@CAHAEBVUnicodeString@2@H@Z @3733
    ?skipUWhiteSpace@SimpleDateFormat@icu_58@@AEBAHAEBVUnicodeString@2@H@Z @3734
    ?skipUWhiteSpaceAndMarks@DecimalFormat@icu_58@@CAHAEBVUnicodeString@2@H@Z @3735
    ?skipWhiteSpace@CollationRuleParser@icu_58@@AEBAHH@Z @3736
    ?sortsTertiaryUpperCaseFirst@CollationSettings@icu_58@@SACH@Z @3737
    ?split@RegexMatcher@icu_58@@UEAAHAEBVUnicodeString@2@QEAV32@HAEAW4UErrorCode@@@Z @3738
    ?split@RegexMatcher@icu_58@@UEAAHPEAUUText@@QEAPEAU3@HAEAW4UErrorCode@@@Z @3739
    ?split@RegexPattern@icu_58@@UEBAHAEBVUnicodeString@2@QEAV32@HAEAW4UErrorCode@@@Z @3740
    ?split@RegexPattern@icu_58@@UEBAHPEAUUText@@QEAPEAU3@HAEAW4UErrorCode@@@Z @3741
    ?splitPatternInto2Part@DateIntervalFormat@icu_58@@CAHAEBVUnicodeString@2@@Z @3742
    ?start64@RegexMatcher@icu_58@@UEBA_JAEAW4UErrorCode@@@Z @3743
    ?start64@RegexMatcher@icu_58@@UEBA_JHAEAW4UErrorCode@@@Z @3744
    ?start@RegexMatcher@icu_58@@UEBAHAEAW4UErrorCode@@@Z @3745
    ?start@RegexMatcher@icu_58@@UEBAHHAEAW4UErrorCode@@@Z @3746
    ?startOfYear@HebrewCalendar@icu_58@@CAHHAEAW4UErrorCode@@@Z @3747
    ?staticGetBaseSkeleton@DateTimePatternGenerator@icu_58@@SA?AVUnicodeString@2@AEBV32@AEAW4UErrorCode@@@Z @3748
    ?staticGetSkeleton@DateTimePatternGenerator@icu_58@@SA?AVUnicodeString@2@AEBV32@AEAW4UErrorCode@@@Z @3749
    ?strengthFromNode@CollationBuilder@icu_58@@CAH_J@Z @3750
    ?strengthFromTempCE@CollationBuilder@icu_58@@CAH_J@Z @3751
    ?strengthOrder@CollationElementIterator@icu_58@@QEBAHH@Z @3752
    ?stringNumeric@DateIntervalInfo@icu_58@@CACHHD@Z @3753
    ?stripNOPs@RegexCompile@icu_58@@AEAAXXZ @3754
    ?stripWhitespace@RuleBasedNumberFormat@icu_58@@AEAAXAEAVUnicodeString@2@@Z @3755
    ?subFormat@SimpleDateFormat@icu_58@@AEBAXAEAVUnicodeString@2@_WHW4UDisplayContext@@HAEAVFieldPositionHandler@2@AEAVCalendar@2@AEAVSimpleDateFormatMutableNFs@2@AEAW4UErrorCode@@@Z @3756
    ?subParse@SimpleDateFormat@icu_58@@AEBAHAEBVUnicodeString@2@AEAH_WHCCQEAC1AEAVCalendar@2@HPEAVMessageFormat@2@PEAW4UTimeZoneFormatTimeType@@AEAVSimpleDateFormatMutableNFs@2@PEAH@Z @3757
    ?subparse@DecimalFormat@icu_58@@AEBACAEBVUnicodeString@2@PEBV32@111CCAEAVParsePosition@2@AEAVDigitList@2@PEACPEA_W@Z @3758
    ?suppressContractions@CollationBuilder@icu_58@@EEAAXAEBVUnicodeSet@2@AEAPEBDAEAW4UErrorCode@@@Z @3759
    ?suppressContractions@CollationDataBuilder@icu_58@@QEAAXAEBVUnicodeSet@2@AEAW4UErrorCode@@@Z @3760
    ?suppressContractions@Sink@CollationRuleParser@icu_58@@UEAAXAEBVUnicodeSet@3@AEAPEBDAEAW4UErrorCode@@@Z @3761
    ?switchToBackward@FCDUIterCollationIterator@icu_58@@AEAAXXZ @3762
    ?switchToBackward@FCDUTF16CollationIterator@icu_58@@AEAAXXZ @3763
    ?switchToBackward@FCDUTF8CollationIterator@icu_58@@AEAAXXZ @3764
    ?switchToForward@FCDUIterCollationIterator@icu_58@@AEAAXXZ @3765
    ?switchToForward@FCDUTF16CollationIterator@icu_58@@AEAAXXZ @3766
    ?switchToForward@FCDUTF8CollationIterator@icu_58@@AEAAXXZ @3767
    ?synodicMonthsBetween@ChineseCalendar@icu_58@@EEBAHHH@Z @3768
    ?syntaxError@Format@icu_58@@KAXAEBVUnicodeString@2@HAEAUUParseError@@@Z @3769
    ?tagFromCE32@Collation@icu_58@@SAHI@Z @3770
    ?tcccBits@CollationFCD@icu_58@@0QBIB @3771
    ?tcccIndex@CollationFCD@icu_58@@0QBEB @3772
    ?tempCEFromIndexAndStrength@CollationBuilder@icu_58@@CA_JHH@Z @3773
    ?tertiaryOrder@CollationElementIterator@icu_58@@SAHH@Z @3774
    ?test@ScriptSet@icu_58@@QEBACW4UScriptCode@@AEAW4UErrorCode@@@Z @3775
    ?timeOfAngle@CalendarAstronomer@icu_58@@QEAANAEAVAngleFunc@12@NNNC@Z @3776
    ?toCodePoints@TimeZoneFormat@icu_58@@CACAEBVUnicodeString@2@PEAHH@Z @3777
    ?toIntegralValue@DigitList@icu_58@@QEAAXXZ @3778
    ?toLocalizedPattern@DecimalFormat@icu_58@@UEBAAEAVUnicodeString@2@AEAV32@@Z @3779
    ?toLocalizedPattern@SimpleDateFormat@icu_58@@UEBAAEAVUnicodeString@2@AEAV32@AEAW4UErrorCode@@@Z @3780
    ?toPattern@ChoiceFormat@icu_58@@UEBAAEAVUnicodeString@2@AEAV32@@Z @3781
    ?toPattern@DecimalFormat@icu_58@@UEBAAEAVUnicodeString@2@AEAV32@@Z @3782
    ?toPattern@MessageFormat@icu_58@@UEBAAEAVUnicodeString@2@AEAV32@@Z @3783
    ?toPattern@PluralFormat@icu_58@@QEAAAEAVUnicodeString@2@AEAV32@@Z @3784
    ?toPattern@SelectFormat@icu_58@@QEAAAEAVUnicodeString@2@AEAV32@@Z @3785
    ?toPattern@SimpleDateFormat@icu_58@@UEBAAEAVUnicodeString@2@AEAV32@@Z @3786
    ?toRules@CompoundTransliterator@icu_58@@UEBAAEAVUnicodeString@2@AEAV32@C@Z @3787
    ?toRules@Transliterator@icu_58@@UEBAAEAVUnicodeString@2@AEAV32@C@Z @3788
    ?toScientific@DigitList@icu_58@@QEAAHHH@Z @3789
    ?toScientific@ScientificPrecision@icu_58@@QEBAHAEAVDigitList@2@@Z @3790
    ?toString@AffixPattern@icu_58@@QEBAAEAVUnicodeString@2@AEAV32@@Z @3791
    ?toString@DigitAffix@icu_58@@QEBAAEBVUnicodeString@2@XZ @3792
    ?toString@Ecliptic@CalendarAstronomer@icu_58@@QEBA?AVUnicodeString@3@XZ @3793
    ?toString@Equatorial@CalendarAstronomer@icu_58@@QEBA?AVUnicodeString@3@XZ @3794
    ?toString@Horizon@CalendarAstronomer@icu_58@@QEBA?AVUnicodeString@3@XZ @3795
    ?toUCollationElements@CollationElementIterator@icu_58@@QEAAPEAUUCollationElements@@XZ @3796
    ?toUCollationElements@CollationElementIterator@icu_58@@QEBAPEBUUCollationElements@@XZ @3797
    ?toUCollator@Collator@icu_58@@QEAAPEAUUCollator@@XZ @3798
    ?toUCollator@Collator@icu_58@@QEBAPEBUUCollator@@XZ @3799
    ?toUFormattable@Formattable@icu_58@@QEAAPEAPEAXXZ @3800
    ?toUFormattable@Formattable@icu_58@@QEBAPEBQEAXXZ @3801
    ?toUserString@AffixPattern@icu_58@@QEBAAEAVUnicodeString@2@AEAV32@@Z @3802
    ?toVisibleDigitsWithExponent@ValueFormatter@icu_58@@QEBAAEAVVisibleDigitsWithExponent@2@AEAVDigitList@2@AEAV32@AEAW4UErrorCode@@@Z @3803
    ?toVisibleDigitsWithExponent@ValueFormatter@icu_58@@QEBAAEAVVisibleDigitsWithExponent@2@_JAEAV32@AEAW4UErrorCode@@@Z @3804
    ?transitionCount@OlsonTimeZone@icu_58@@AEBAFXZ @3805
    ?transitionTime@OlsonTimeZone@icu_58@@AEBANF@Z @3806
    ?transitionTimeInSeconds@OlsonTimeZone@icu_58@@AEBA_JF@Z @3807
    ?translatePattern@SimpleDateFormat@icu_58@@CAXAEBVUnicodeString@2@AEAV32@00AEAW4UErrorCode@@@Z @3808
    ?transliterate@Transliterator@icu_58@@UEBAHAEAVReplaceable@2@HH@Z @3809
    ?transliterate@Transliterator@icu_58@@UEBAXAEAVReplaceable@2@@Z @3810
    ?transliterate@Transliterator@icu_58@@UEBAXAEAVReplaceable@2@AEAUUTransPosition@@AEAW4UErrorCode@@@Z @3811
    ?transliterate@Transliterator@icu_58@@UEBAXAEAVReplaceable@2@AEAUUTransPosition@@AEBVUnicodeString@2@AEAW4UErrorCode@@@Z @3812
    ?transliterate@Transliterator@icu_58@@UEBAXAEAVReplaceable@2@AEAUUTransPosition@@HAEAW4UErrorCode@@@Z @3813
    ?trim@DigitList@icu_58@@QEAAXXZ @3814
    ?trimMarksFromAffix@DecimalFormat@icu_58@@CAAEAVUnicodeString@2@AEBV32@AEAV32@@Z @3815
    ?trueMonthStart@IslamicCalendar@icu_58@@AEBAHH@Z @3816
    ?truncateOffsetPattern@TimeZoneFormat@icu_58@@CAAEAVUnicodeString@2@AEBV32@AEAV32@AEAW4UErrorCode@@@Z @3817
    ?tzFormat@SimpleDateFormat@icu_58@@AEBAPEAVTimeZoneFormat@2@XZ @3818
    ?unassignedCEFromCodePoint@Collation@icu_58@@SA_JH@Z @3819
    ?unassignedPrimaryFromCodePoint@Collation@icu_58@@SAIH@Z @3820
    ?unquote@TimeZoneFormat@icu_58@@CAAEAVUnicodeString@2@AEBV32@AEAV32@@Z @3821
    ?unregister@Calendar@icu_58@@SACPEBXAEAW4UErrorCode@@@Z @3822
    ?unregister@Collator@icu_58@@SACPEBXAEAW4UErrorCode@@@Z @3823
    ?unregister@NumberFormat@icu_58@@SACPEBXAEAW4UErrorCode@@@Z @3824
    ?unregister@Transliterator@icu_58@@SAXAEBVUnicodeString@2@@Z @3825
    ?updateMetaData@MessageFormat@icu_58@@AEBAPEAVFieldPosition@2@AEAVAppendableWrapper@2@HPEAV32@PEBVFormattable@2@@Z @3826
    ?updateTime@Calendar@icu_58@@AEAAXAEAW4UErrorCode@@@Z @3827
    ?useAnchoringBounds@RegexMatcher@icu_58@@UEAAAEAV12@C@Z @3828
    ?useDaylightTime@OlsonTimeZone@icu_58@@UEBACXZ @3829
    ?useDaylightTime@RuleBasedTimeZone@icu_58@@UEBACXZ @3830
    ?useDaylightTime@SimpleTimeZone@icu_58@@UEBACXZ @3831
    ?useDaylightTime@VTimeZone@icu_58@@UEBACXZ @3832
    ?useTransparentBounds@RegexMatcher@icu_58@@UEAAAEAV12@C@Z @3833
    ?usesCurrency@AffixPattern@icu_58@@QEBACXZ @3834
    ?usesNamedArguments@MessageFormat@icu_58@@QEBACXZ @3835
    ?usesPercent@AffixPattern@icu_58@@QEBACXZ @3836
    ?usesPermill@AffixPattern@icu_58@@QEBACXZ @3837
    ?uspoof_getSkeletonUnicodeString_58@@YAAEAVUnicodeString@icu_58@@PEBUUSpoofChecker@@IAEBV12@AEAV12@PEAW4UErrorCode@@@Z @3838
    ?validateField@Calendar@icu_58@@AEAAXW4UCalendarDateFields@@HHAEAW4UErrorCode@@@Z @3839
    ?validateField@Calendar@icu_58@@MEAAXW4UCalendarDateFields@@AEAW4UErrorCode@@@Z @3840
    ?validateField@HebrewCalendar@icu_58@@MEAAXW4UCalendarDateFields@@AEAW4UErrorCode@@@Z @3841
    ?validateFields@Calendar@icu_58@@AEAAXAEAW4UErrorCode@@@Z @3842
    ?validateFields@GregorianCalendar@icu_58@@AEBACXZ @3843
    ?visible@CollatorFactory@icu_58@@UEBACXZ @3844
    ?visible@SimpleNumberFormatFactory@icu_58@@UEBACXZ @3845
    ?weekNumber@Calendar@icu_58@@IEAAHHH@Z @3846
    ?weekNumber@Calendar@icu_58@@IEAAHHHH@Z @3847
    ?weight16FromNode@CollationBuilder@icu_58@@CAI_J@Z @3848
    ?weight32FromNode@CollationBuilder@icu_58@@CAI_J@Z @3849
    ?winterSolstice@ChineseCalendar@icu_58@@EEBAHH@Z @3850
    ?withPerUnitAndAppend@MeasureFormat@icu_58@@AEBAHAEBVUnicodeString@2@AEBVMeasureUnit@2@AEAV32@AEAW4UErrorCode@@@Z @3851
    ?write@CollationDataWriter@icu_58@@CAHCQEBEAEBUCollationData@2@AEBUCollationSettings@2@PEBXHQEAHPEAEHAEAW4UErrorCode@@@Z @3852
    ?write@VTimeZone@icu_58@@AEBAXAEAVVTZWriter@2@AEAW4UErrorCode@@@Z @3853
    ?write@VTimeZone@icu_58@@AEBAXNAEAVVTZWriter@2@AEAW4UErrorCode@@@Z @3854
    ?write@VTimeZone@icu_58@@QEBAXAEAVUnicodeString@2@AEAW4UErrorCode@@@Z @3855
    ?write@VTimeZone@icu_58@@QEBAXNAEAVUnicodeString@2@AEAW4UErrorCode@@@Z @3856
    ?writeBase@CollationDataWriter@icu_58@@SAHAEBUCollationData@2@AEBUCollationSettings@2@PEBXHQEAHPEAEHAEAW4UErrorCode@@@Z @3857
    ?writeDescription@?$CacheKey@VDateFmtBestPattern@icu_58@@@icu_58@@UEBAPEADPEADH@Z @3858
    ?writeDescription@?$LocaleCacheKey@VDateFmtBestPattern@icu_58@@@icu_58@@UEBAPEADPEADH@Z @3859
    ?writeFinalRule@VTimeZone@icu_58@@AEBAXAEAVVTZWriter@2@CPEBVAnnualTimeZoneRule@2@HHNAEAW4UErrorCode@@@Z @3860
    ?writeFooter@VTimeZone@icu_58@@AEBAXAEAVVTZWriter@2@AEAW4UErrorCode@@@Z @3861
    ?writeHeaders@VTimeZone@icu_58@@AEBAXAEAVVTZWriter@2@AEAW4UErrorCode@@@Z @3862
    ?writeIdenticalLevel@RuleBasedCollator@icu_58@@AEBAXPEB_W0AEAVSortKeyByteSink@2@AEAW4UErrorCode@@@Z @3863
    ?writeSimple@VTimeZone@icu_58@@AEBAXNAEAVVTZWriter@2@AEAW4UErrorCode@@@Z @3864
    ?writeSimple@VTimeZone@icu_58@@QEBAXNAEAVUnicodeString@2@AEAW4UErrorCode@@@Z @3865
    ?writeSortKey@RuleBasedCollator@icu_58@@AEBAXPEB_WHAEAVSortKeyByteSink@2@AEAW4UErrorCode@@@Z @3866
    ?writeSortKeyUpToQuaternary@CollationKeys@icu_58@@SAXAEAVCollationIterator@2@PEBCAEBUCollationSettings@2@AEAVSortKeyByteSink@2@W4Level@Collation@2@AEAVLevelCallback@12@CAEAW4UErrorCode@@@Z @3867
    ?writeTailoring@CollationDataWriter@icu_58@@SAHAEBUCollationTailoring@2@AEBUCollationSettings@2@QEAHPEAEHAEAW4UErrorCode@@@Z @3868
    ?writeZone@VTimeZone@icu_58@@AEBAXAEAVVTZWriter@2@AEAVBasicTimeZone@2@PEAVUVector@2@AEAW4UErrorCode@@@Z @3869
    ?writeZonePropsByDOM@VTimeZone@icu_58@@AEBAXAEAVVTZWriter@2@CAEBVUnicodeString@2@HHHHNNAEAW4UErrorCode@@@Z @3870
    ?writeZonePropsByDOW@VTimeZone@icu_58@@AEBAXAEAVVTZWriter@2@CAEBVUnicodeString@2@HHHHHNNAEAW4UErrorCode@@@Z @3871
    ?writeZonePropsByDOW_GEQ_DOM@VTimeZone@icu_58@@AEBAXAEAVVTZWriter@2@CAEBVUnicodeString@2@HHHHHNNAEAW4UErrorCode@@@Z @3872
    ?writeZonePropsByDOW_GEQ_DOM_sub@VTimeZone@icu_58@@AEBAXAEAVVTZWriter@2@HHHHNHAEAW4UErrorCode@@@Z @3873
    ?writeZonePropsByDOW_LEQ_DOM@VTimeZone@icu_58@@AEBAXAEAVVTZWriter@2@CAEBVUnicodeString@2@HHHHHNNAEAW4UErrorCode@@@Z @3874
    ?writeZonePropsByTime@VTimeZone@icu_58@@AEBAXAEAVVTZWriter@2@CAEBVUnicodeString@2@HHNCAEAW4UErrorCode@@@Z @3875
    ?yearLength@GregorianCalendar@icu_58@@IEBAHH@Z @3876
    ?yearLength@GregorianCalendar@icu_58@@IEBAHXZ @3877
    ?yearStart@IslamicCalendar@icu_58@@AEBAHH@Z @3878
    ?yearType@HebrewCalendar@icu_58@@AEBAHH@Z @3879
    ?zap@RegexPattern@icu_58@@AEAAXXZ @3880
    ?zeroPaddingNumber@SimpleDateFormat@icu_58@@AEBAXPEAVNumberFormat@2@AEAVUnicodeString@2@HHH@Z @3881
    ?zoneOffsetAt@OlsonTimeZone@icu_58@@AEBAHF@Z @3882
    izrule_clone_58 @3883
    izrule_close_58 @3884
    izrule_equals_58 @3885
    izrule_getDSTSavings_58 @3886
    izrule_getDynamicClassID_58 @3887
    izrule_getFinalStart_58 @3888
    izrule_getFirstStart_58 @3889
    izrule_getName_58 @3890
    izrule_getNextStart_58 @3891
    izrule_getPreviousStart_58 @3892
    izrule_getRawOffset_58 @3893
    izrule_getStaticClassID_58 @3894
    izrule_isEquivalentTo_58 @3895
    izrule_open_58 @3896
    u_formatMessageWithError_58 @3897
    u_formatMessage_58 @3898
    u_parseMessageWithError_58 @3899
    u_parseMessage_58 @3900
    u_vformatMessageWithError_58 @3901
    u_vformatMessage_58 @3902
    u_vparseMessageWithError_58 @3903
    u_vparseMessage_58 @3904
    ucal_add_58 @3905
    ucal_clearField_58 @3906
    ucal_clear_58 @3907
    ucal_clone_58 @3908
    ucal_close_58 @3909
    ucal_countAvailable_58 @3910
    ucal_equivalentTo_58 @3911
    ucal_getAttribute_58 @3912
    ucal_getAvailable_58 @3913
    ucal_getCanonicalTimeZoneID_58 @3914
    ucal_getDSTSavings_58 @3915
    ucal_getDayOfWeekType_58 @3916
    ucal_getDefaultTimeZone_58 @3917
    ucal_getFieldDifference_58 @3918
    ucal_getGregorianChange_58 @3919
    ucal_getKeywordValuesForLocale_58 @3920
    ucal_getLimit_58 @3921
    ucal_getLocaleByType_58 @3922
    ucal_getMillis_58 @3923
    ucal_getNow_58 @3924
    ucal_getTZDataVersion_58 @3925
    ucal_getTimeZoneDisplayName_58 @3926
    ucal_getTimeZoneIDForWindowsID_58 @3927
    ucal_getTimeZoneID_58 @3928
    ucal_getTimeZoneTransitionDate_58 @3929
    ucal_getType_58 @3930
    ucal_getWeekendTransition_58 @3931
    ucal_getWindowsTimeZoneID_58 @3932
    ucal_get_58 @3933
    ucal_inDaylightTime_58 @3934
    ucal_isSet_58 @3935
    ucal_isWeekend_58 @3936
    ucal_openCountryTimeZones_58 @3937
    ucal_openTimeZoneIDEnumeration_58 @3938
    ucal_openTimeZones_58 @3939
    ucal_open_58 @3940
    ucal_roll_58 @3941
    ucal_setAttribute_58 @3942
    ucal_setDateTime_58 @3943
    ucal_setDate_58 @3944
    ucal_setDefaultTimeZone_58 @3945
    ucal_setGregorianChange_58 @3946
    ucal_setMillis_58 @3947
    ucal_setTimeZone_58 @3948
    ucal_set_58 @3949
    ucol_cloneBinary_58 @3950
    ucol_closeElements_58 @3951
    ucol_close_58 @3952
    ucol_countAvailable_58 @3953
    ucol_equal_58 @3954
    ucol_equals_58 @3955
    ucol_getAttribute_58 @3956
    ucol_getAvailable_58 @3957
    ucol_getBound_58 @3958
    ucol_getContractionsAndExpansions_58 @3959
    ucol_getContractions_58 @3960
    ucol_getDisplayName_58 @3961
    ucol_getEquivalentReorderCodes_58 @3962
    ucol_getFunctionalEquivalent_58 @3963
    ucol_getKeywordValuesForLocale_58 @3964
    ucol_getKeywordValues_58 @3965
    ucol_getKeywords_58 @3966
    ucol_getLocaleByType_58 @3967
    ucol_getLocale_58 @3968
    ucol_getMaxExpansion_58 @3969
    ucol_getMaxVariable_58 @3970
    ucol_getOffset_58 @3971
    ucol_getReorderCodes_58 @3972
    ucol_getRulesEx_58 @3973
    ucol_getRules_58 @3974
    ucol_getShortDefinitionString_58 @3975
    ucol_getSortKey_58 @3976
    ucol_getStrength_58 @3977
    ucol_getTailoredSet_58 @3978
    ucol_getUCAVersion_58 @3979
    ucol_getUnsafeSet_58 @3980
    ucol_getVariableTop_58 @3981
    ucol_getVersion_58 @3982
    ucol_greaterOrEqual_58 @3983
    ucol_greater_58 @3984
    ucol_keyHashCode_58 @3985
    ucol_mergeSortkeys_58 @3986
    ucol_nextSortKeyPart_58 @3987
    ucol_next_58 @3988
    ucol_normalizeShortDefinitionString_58 @3989
    ucol_openAvailableLocales_58 @3990
    ucol_openBinary_58 @3991
    ucol_openElements_58 @3992
    ucol_openFromShortString_58 @3993
    ucol_openRules_58 @3994
    ucol_open_58 @3995
    ucol_prepareShortStringOpen_58 @3996
    ucol_previous_58 @3997
    ucol_primaryOrder_58 @3998
    ucol_reset_58 @3999
    ucol_restoreVariableTop_58 @4000
    ucol_safeClone_58 @4001
    ucol_secondaryOrder_58 @4002
    ucol_setAttribute_58 @4003
    ucol_setMaxVariable_58 @4004
    ucol_setOffset_58 @4005
    ucol_setReorderCodes_58 @4006
    ucol_setStrength_58 @4007
    ucol_setText_58 @4008
    ucol_setVariableTop_58 @4009
    ucol_strcollIter_58 @4010
    ucol_strcollUTF8_58 @4011
    ucol_strcoll_58 @4012
    ucol_tertiaryOrder_58 @4013
    ucsdet_close_58 @4014
    ucsdet_detectAll_58 @4015
    ucsdet_detect_58 @4016
    ucsdet_enableInputFilter_58 @4017
    ucsdet_getAllDetectableCharsets_58 @4018
    ucsdet_getConfidence_58 @4019
    ucsdet_getDetectableCharsets_58 @4020
    ucsdet_getLanguage_58 @4021
    ucsdet_getName_58 @4022
    ucsdet_getUChars_58 @4023
    ucsdet_isInputFilterEnabled_58 @4024
    ucsdet_open_58 @4025
    ucsdet_setDeclaredEncoding_58 @4026
    ucsdet_setDetectableCharset_58 @4027
    ucsdet_setText_58 @4028
    udat_adoptNumberFormatForFields_58 @4029
    udat_adoptNumberFormat_58 @4030
    udat_applyPatternRelative_58 @4031
    udat_applyPattern_58 @4032
    udat_clone_58 @4033
    udat_close_58 @4034
    udat_countAvailable_58 @4035
    udat_countSymbols_58 @4036
    udat_formatCalendarForFields_58 @4037
    udat_formatCalendar_58 @4038
    udat_formatForFields_58 @4039
    udat_format_58 @4040
    udat_get2DigitYearStart_58 @4041
    udat_getAvailable_58 @4042
    udat_getBooleanAttribute_58 @4043
    udat_getCalendar_58 @4044
    udat_getContext_58 @4045
    udat_getLocaleByType_58 @4046
    udat_getNumberFormatForField_58 @4047
    udat_getNumberFormat_58 @4048
    udat_getSymbols_58 @4049
    udat_isLenient_58 @4050
    udat_open_58 @4051
    udat_parseCalendar_58 @4052
    udat_parse_58 @4053
    udat_registerOpener_58 @4054
    udat_set2DigitYearStart_58 @4055
    udat_setBooleanAttribute_58 @4056
    udat_setCalendar_58 @4057
    udat_setContext_58 @4058
    udat_setLenient_58 @4059
    udat_setNumberFormat_58 @4060
    udat_setSymbols_58 @4061
    udat_toCalendarDateField_58 @4062
    udat_toPatternRelativeDate_58 @4063
    udat_toPatternRelativeTime_58 @4064
    udat_toPattern_58 @4065
    udat_unregisterOpener_58 @4066
    udatpg_addPattern_58 @4067
    udatpg_clone_58 @4068
    udatpg_close_58 @4069
    udatpg_getAppendItemFormat_58 @4070
    udatpg_getAppendItemName_58 @4071
    udatpg_getBaseSkeleton_58 @4072
    udatpg_getBestPatternWithOptions_58 @4073
    udatpg_getBestPattern_58 @4074
    udatpg_getDateTimeFormat_58 @4075
    udatpg_getDecimal_58 @4076
    udatpg_getPatternForSkeleton_58 @4077
    udatpg_getSkeleton_58 @4078
    udatpg_openBaseSkeletons_58 @4079
    udatpg_openEmpty_58 @4080
    udatpg_openSkeletons_58 @4081
    udatpg_open_58 @4082
    udatpg_replaceFieldTypesWithOptions_58 @4083
    udatpg_replaceFieldTypes_58 @4084
    udatpg_setAppendItemFormat_58 @4085
    udatpg_setAppendItemName_58 @4086
    udatpg_setDateTimeFormat_58 @4087
    udatpg_setDecimal_58 @4088
    udtitvfmt_close_58 @4089
    udtitvfmt_format_58 @4090
    udtitvfmt_open_58 @4091
    ufieldpositer_close_58 @4092
    ufieldpositer_next_58 @4093
    ufieldpositer_open_58 @4094
    ufmt_close_58 @4095
    ufmt_getArrayItemByIndex_58 @4096
    ufmt_getArrayLength_58 @4097
    ufmt_getDate_58 @4098
    ufmt_getDecNumChars_58 @4099
    ufmt_getDouble_58 @4100
    ufmt_getInt64_58 @4101
    ufmt_getLong_58 @4102
    ufmt_getObject_58 @4103
    ufmt_getType_58 @4104
    ufmt_getUChars_58 @4105
    ufmt_isNumeric_58 @4106
    ufmt_open_58 @4107
    ugender_getInstance_58 @4108
    ugender_getListGender_58 @4109
    uhash_compareScriptSet_58 @4110
    uhash_deleteScriptSet_58 @4111
    uhash_equalsScriptSet_58 @4112
    uhash_hashScriptSet_58 @4113
    ulocdata_close_58 @4114
    ulocdata_getCLDRVersion_58 @4115
    ulocdata_getDelimiter_58 @4116
    ulocdata_getExemplarSet_58 @4117
    ulocdata_getLocaleDisplayPattern_58 @4118
    ulocdata_getLocaleSeparator_58 @4119
    ulocdata_getMeasurementSystem_58 @4120
    ulocdata_getNoSubstitute_58 @4121
    ulocdata_getPaperSize_58 @4122
    ulocdata_open_58 @4123
    ulocdata_setNoSubstitute_58 @4124
    umsg_applyPattern_58 @4125
    umsg_autoQuoteApostrophe_58 @4126
    umsg_clone_58 @4127
    umsg_close_58 @4128
    umsg_format_58 @4129
    umsg_getLocale_58 @4130
    umsg_open_58 @4131
    umsg_parse_58 @4132
    umsg_setLocale_58 @4133
    umsg_toPattern_58 @4134
    umsg_vformat_58 @4135
    umsg_vparse_58 @4136
    unum_applyPattern_58 @4137
    unum_clone_58 @4138
    unum_close_58 @4139
    unum_countAvailable_58 @4140
    unum_formatDecimal_58 @4141
    unum_formatDoubleCurrency_58 @4142
    unum_formatDouble_58 @4143
    unum_formatInt64_58 @4144
    unum_formatUFormattable_58 @4145
    unum_format_58 @4146
    unum_getAttribute_58 @4147
    unum_getAvailable_58 @4148
    unum_getContext_58 @4149
    unum_getDoubleAttribute_58 @4150
    unum_getLocaleByType_58 @4151
    unum_getSymbol_58 @4152
    unum_getTextAttribute_58 @4153
    unum_open_58 @4154
    unum_parseDecimal_58 @4155
    unum_parseDoubleCurrency_58 @4156
    unum_parseDouble_58 @4157
    unum_parseInt64_58 @4158
    unum_parseToUFormattable_58 @4159
    unum_parse_58 @4160
    unum_setAttribute_58 @4161
    unum_setContext_58 @4162
    unum_setDoubleAttribute_58 @4163
    unum_setSymbol_58 @4164
    unum_setTextAttribute_58 @4165
    unum_toPattern_58 @4166
    unumsys_close_58 @4167
    unumsys_getDescription_58 @4168
    unumsys_getName_58 @4169
    unumsys_getRadix_58 @4170
    unumsys_isAlgorithmic_58 @4171
    unumsys_openAvailableNames_58 @4172
    unumsys_openByName_58 @4173
    unumsys_open_58 @4174
    uplrules_close_58 @4175
    uplrules_openForType_58 @4176
    uplrules_open_58 @4177
    uplrules_select_58 @4178
    uprv_decContextClearStatus_58 @4179
    uprv_decContextDefault_58 @4180
    uprv_decContextGetRounding_58 @4181
    uprv_decContextGetStatus_58 @4182
    uprv_decContextRestoreStatus_58 @4183
    uprv_decContextSaveStatus_58 @4184
    uprv_decContextSetRounding_58 @4185
    uprv_decContextSetStatusFromStringQuiet_58 @4186
    uprv_decContextSetStatusFromString_58 @4187
    uprv_decContextSetStatusQuiet_58 @4188
    uprv_decContextSetStatus_58 @4189
    uprv_decContextStatusToString_58 @4190
    uprv_decContextTestSavedStatus_58 @4191
    uprv_decContextTestStatus_58 @4192
    uprv_decContextZeroStatus_58 @4193
    uprv_decNumberAbs_58 @4194
    uprv_decNumberAdd_58 @4195
    uprv_decNumberAnd_58 @4196
    uprv_decNumberClassToString_58 @4197
    uprv_decNumberCompareSignal_58 @4198
    uprv_decNumberCompareTotalMag_58 @4199
    uprv_decNumberCompareTotal_58 @4200
    uprv_decNumberCompare_58 @4201
    uprv_decNumberCopyAbs_58 @4202
    uprv_decNumberCopyNegate_58 @4203
    uprv_decNumberCopySign_58 @4204
    uprv_decNumberCopy_58 @4205
    uprv_decNumberDivideInteger_58 @4206
    uprv_decNumberDivide_58 @4207
    uprv_decNumberExp_58 @4208
    uprv_decNumberFMA_58 @4209
    uprv_decNumberFromInt32_58 @4210
    uprv_decNumberFromString_58 @4211
    uprv_decNumberFromUInt32_58 @4212
    uprv_decNumberGetBCD_58 @4213
    uprv_decNumberInvert_58 @4214
    uprv_decNumberIsNormal_58 @4215
    uprv_decNumberIsSubnormal_58 @4216
    uprv_decNumberLn_58 @4217
    uprv_decNumberLog10_58 @4218
    uprv_decNumberLogB_58 @4219
    uprv_decNumberMaxMag_58 @4220
    uprv_decNumberMax_58 @4221
    uprv_decNumberMinMag_58 @4222
    uprv_decNumberMin_58 @4223
    uprv_decNumberMinus_58 @4224
    uprv_decNumberMultiply_58 @4225
    uprv_decNumberNextMinus_58 @4226
    uprv_decNumberNextPlus_58 @4227
    uprv_decNumberNextToward_58 @4228
    uprv_decNumberNormalize_58 @4229
    uprv_decNumberOr_58 @4230
    uprv_decNumberPlus_58 @4231
    uprv_decNumberPower_58 @4232
    uprv_decNumberQuantize_58 @4233
    uprv_decNumberReduce_58 @4234
    uprv_decNumberRemainderNear_58 @4235
    uprv_decNumberRemainder_58 @4236
    uprv_decNumberRescale_58 @4237
    uprv_decNumberRotate_58 @4238
    uprv_decNumberSameQuantum_58 @4239
    uprv_decNumberScaleB_58 @4240
    uprv_decNumberSetBCD_58 @4241
    uprv_decNumberShift_58 @4242
    uprv_decNumberSquareRoot_58 @4243
    uprv_decNumberSubtract_58 @4244
    uprv_decNumberToEngString_58 @4245
    uprv_decNumberToInt32_58 @4246
    uprv_decNumberToIntegralExact_58 @4247
    uprv_decNumberToIntegralValue_58 @4248
    uprv_decNumberToString_58 @4249
    uprv_decNumberToUInt32_58 @4250
    uprv_decNumberTrim_58 @4251
    uprv_decNumberVersion_58 @4252
    uprv_decNumberXor_58 @4253
    uprv_decNumberZero_58 @4254
    uprv_deleteConditionalCE32_58 @4255
    uprv_getWindowsTimeZoneInfo @4256
    uprv_isInvariantUnicodeString @4257
    uregex_appendReplacementUText_58 @4258
    uregex_appendReplacement_58 @4259
    uregex_appendTailUText_58 @4260
    uregex_appendTail_58 @4261
    uregex_clone_58 @4262
    uregex_close_58 @4263
    uregex_end64_58 @4264
    uregex_end_58 @4265
    uregex_find64_58 @4266
    uregex_findNext_58 @4267
    uregex_find_58 @4268
    uregex_flags_58 @4269
    uregex_getFindProgressCallback_58 @4270
    uregex_getMatchCallback_58 @4271
    uregex_getStackLimit_58 @4272
    uregex_getText_58 @4273
    uregex_getTimeLimit_58 @4274
    uregex_getUText_58 @4275
    uregex_groupCount_58 @4276
    uregex_groupNumberFromCName_58 @4277
    uregex_groupNumberFromName_58 @4278
    uregex_groupUText_58 @4279
    uregex_group_58 @4280
    uregex_hasAnchoringBounds_58 @4281
    uregex_hasTransparentBounds_58 @4282
    uregex_hitEnd_58 @4283
    uregex_lookingAt64_58 @4284
    uregex_lookingAt_58 @4285
    uregex_matches64_58 @4286
    uregex_matches_58 @4287
    uregex_openC_58 @4288
    uregex_openUText_58 @4289
    uregex_open_58 @4290
    uregex_patternUText_58 @4291
    uregex_pattern_58 @4292
    uregex_refreshUText_58 @4293
    uregex_regionEnd64_58 @4294
    uregex_regionEnd_58 @4295
    uregex_regionStart64_58 @4296
    uregex_regionStart_58 @4297
    uregex_replaceAllUText_58 @4298
    uregex_replaceAll_58 @4299
    uregex_replaceFirstUText_58 @4300
    uregex_replaceFirst_58 @4301
    uregex_requireEnd_58 @4302
    uregex_reset64_58 @4303
    uregex_reset_58 @4304
    uregex_setFindProgressCallback_58 @4305
    uregex_setMatchCallback_58 @4306
    uregex_setRegion64_58 @4307
    uregex_setRegionAndStart_58 @4308
    uregex_setRegion_58 @4309
    uregex_setStackLimit_58 @4310
    uregex_setText_58 @4311
    uregex_setTimeLimit_58 @4312
    uregex_setUText_58 @4313
    uregex_splitUText_58 @4314
    uregex_split_58 @4315
    uregex_start64_58 @4316
    uregex_start_58 @4317
    uregex_useAnchoringBounds_58 @4318
    uregex_useTransparentBounds_58 @4319
    uregion_areEqual_58 @4320
    uregion_contains_58 @4321
    uregion_getAvailable_58 @4322
    uregion_getContainedRegionsOfType_58 @4323
    uregion_getContainedRegions_58 @4324
    uregion_getContainingRegionOfType_58 @4325
    uregion_getContainingRegion_58 @4326
    uregion_getNumericCode_58 @4327
    uregion_getPreferredValues_58 @4328
    uregion_getRegionCode_58 @4329
    uregion_getRegionFromCode_58 @4330
    uregion_getRegionFromNumericCode_58 @4331
    uregion_getType_58 @4332
    ureldatefmt_close_58 @4333
    ureldatefmt_combineDateAndTime_58 @4334
    ureldatefmt_formatNumeric_58 @4335
    ureldatefmt_format_58 @4336
    ureldatefmt_open_58 @4337
    usearch_close_58 @4338
    usearch_first_58 @4339
    usearch_following_58 @4340
    usearch_getAttribute_58 @4341
    usearch_getBreakIterator_58 @4342
    usearch_getCollator_58 @4343
    usearch_getMatchedLength_58 @4344
    usearch_getMatchedStart_58 @4345
    usearch_getMatchedText_58 @4346
    usearch_getOffset_58 @4347
    usearch_getPattern_58 @4348
    usearch_getText_58 @4349
    usearch_last_58 @4350
    usearch_next_58 @4351
    usearch_openFromCollator_58 @4352
    usearch_open_58 @4353
    usearch_preceding_58 @4354
    usearch_previous_58 @4355
    usearch_reset_58 @4356
    usearch_searchBackwards_58 @4357
    usearch_search_58 @4358
    usearch_setAttribute_58 @4359
    usearch_setBreakIterator_58 @4360
    usearch_setCollator_58 @4361
    usearch_setOffset_58 @4362
    usearch_setPattern_58 @4363
    usearch_setText_58 @4364
    uspoof_areConfusableUTF8_58 @4365
    uspoof_areConfusableUnicodeString_58 @4366
    uspoof_areConfusable_58 @4367
    uspoof_check2UTF8_58 @4368
    uspoof_check2UnicodeString_58 @4369
    uspoof_check2_58 @4370
    uspoof_checkUTF8_58 @4371
    uspoof_checkUnicodeString_58 @4372
    uspoof_check_58 @4373
    uspoof_clone_58 @4374
    uspoof_closeCheckResult_58 @4375
    uspoof_close_58 @4376
    uspoof_getAllowedChars_58 @4377
    uspoof_getAllowedLocales_58 @4378
    uspoof_getAllowedUnicodeSet_58 @4379
    uspoof_getCheckResultChecks_58 @4380
    uspoof_getCheckResultNumerics_58 @4381
    uspoof_getCheckResultRestrictionLevel_58 @4382
    uspoof_getChecks_58 @4383
    uspoof_getInclusionSet_58 @4384
    uspoof_getInclusionUnicodeSet_58 @4385
    uspoof_getRecommendedSet_58 @4386
    uspoof_getRecommendedUnicodeSet_58 @4387
    uspoof_getRestrictionLevel_58 @4388
    uspoof_getSkeletonUTF8_58 @4389
    uspoof_getSkeleton_58 @4390
    uspoof_openCheckResult_58 @4391
    uspoof_openFromSerialized_58 @4392
    uspoof_openFromSource_58 @4393
    uspoof_open_58 @4394
    uspoof_serialize_58 @4395
    uspoof_setAllowedChars_58 @4396
    uspoof_setAllowedLocales_58 @4397
    uspoof_setAllowedUnicodeSet_58 @4398
    uspoof_setChecks_58 @4399
    uspoof_setRestrictionLevel_58 @4400
    uspoof_swap_58 @4401
    utmscale_fromInt64_58 @4402
    utmscale_getTimeScaleValue_58 @4403
    utmscale_toInt64_58 @4404
    utrans_clone_58 @4405
    utrans_close_58 @4406
    utrans_countAvailableIDs_58 @4407
    utrans_getAvailableID_58 @4408
    utrans_getID_58 @4409
    utrans_getSourceSet_58 @4410
    utrans_getUnicodeID_58 @4411
    utrans_openIDs_58 @4412
    utrans_openInverse_58 @4413
    utrans_openU_58 @4414
    utrans_open_58 @4415
    utrans_register_58 @4416
    utrans_setFilter_58 @4417
    utrans_stripRules_58 @4418
    utrans_toRules_58 @4419
    utrans_transIncrementalUChars_58 @4420
    utrans_transIncremental_58 @4421
    utrans_transUChars_58 @4422
    utrans_trans_58 @4423
    utrans_unregisterID_58 @4424
    utrans_unregister_58 @4425
    vzone_clone_58 @4426
    vzone_close_58 @4427
    vzone_countTransitionRules_58 @4428
    vzone_equals_58 @4429
    vzone_getDynamicClassID_58 @4430
    vzone_getLastModified_58 @4431
    vzone_getNextTransition_58 @4432
    vzone_getOffset2_58 @4433
    vzone_getOffset3_58 @4434
    vzone_getOffset_58 @4435
    vzone_getPreviousTransition_58 @4436
    vzone_getRawOffset_58 @4437
    vzone_getStaticClassID_58 @4438
    vzone_getTZURL_58 @4439
    vzone_hasSameRules_58 @4440
    vzone_inDaylightTime_58 @4441
    vzone_openData_58 @4442
    vzone_openID_58 @4443
    vzone_setLastModified_58 @4444
    vzone_setRawOffset_58 @4445
    vzone_setTZURL_58 @4446
    vzone_useDaylightTime_58 @4447
    vzone_writeFromStart_58 @4448
    vzone_writeSimple_58 @4449
    vzone_write_58 @4450
    zrule_close_58 @4451
    zrule_equals_58 @4452
    zrule_getDSTSavings_58 @4453
    zrule_getName_58 @4454
    zrule_getRawOffset_58 @4455
    zrule_isEquivalentTo_58 @4456
    ztrans_adoptFrom_58 @4457
    ztrans_adoptTo_58 @4458
    ztrans_clone_58 @4459
    ztrans_close_58 @4460
    ztrans_equals_58 @4461
    ztrans_getDynamicClassID_58 @4462
    ztrans_getFrom_58 @4463
    ztrans_getStaticClassID_58 @4464
    ztrans_getTime_58 @4465
    ztrans_getTo_58 @4466
    ztrans_openEmpty_58 @4467
    ztrans_open_58 @4468
    ztrans_setFrom_58 @4469
    ztrans_setTime_58 @4470
    ztrans_setTo_58 @4471
