LIBRARY icutu58
EXPORTS
    ??0IcuToolErrorCode@icu_58@@QEAA@AEBV01@@Z @1
    ??0IcuToolErrorCode@icu_58@@QEAA@PEBD@Z @2
    ??0Package@icu_58@@QEAA@XZ @3
    ??0PreparsedUCD@icu_58@@QEAA@AEBV01@@Z @4
    ??0PreparsedUCD@icu_58@@QEAA@PEBDAEAW4UErrorCode@@@Z @5
    ??0PropertyNames@icu_58@@QEAA@AEBV01@@Z @6
    ??0PropertyNames@icu_58@@QEAA@XZ @7
    ??0UXMLElement@icu_58@@AEAA@PEBVUXMLParser@1@PEBVUnicodeString@1@AEAW4UErrorCode@@@Z @8
    ??0UXMLParser@icu_58@@AEAA@AEAW4UErrorCode@@@Z @9
    ??0UniProps@icu_58@@QEAA@AEBU01@@Z @10
    ??0UniProps@icu_58@@QEAA@XZ @11
    ??1IcuToolErrorCode@icu_58@@UEAA@XZ @12
    ??1Package@icu_58@@QEAA@XZ @13
    ??1PreparsedUCD@icu_58@@QEAA@XZ @14
    ??1PropertyNames@icu_58@@UEAA@XZ @15
    ??1UXMLElement@icu_58@@UEAA@XZ @16
    ??1UXMLParser@icu_58@@UEAA@XZ @17
    ??1UniProps@icu_58@@QEAA@XZ @18
    ??4CollationInfo@icu_58@@QEAAAEAV01@$$QEAV01@@Z @19
    ??4CollationInfo@icu_58@@QEAAAEAV01@AEBV01@@Z @20
    ??4IcuToolErrorCode@icu_58@@QEAAAEAV01@AEBV01@@Z @21
    ??4Package@icu_58@@QEAAAEAV01@AEBV01@@Z @22
    ??4PreparsedUCD@icu_58@@QEAAAEAV01@AEBV01@@Z @23
    ??4PropertyNames@icu_58@@QEAAAEAV01@AEBV01@@Z @24
    ??4UniProps@icu_58@@QEAAAEAU01@AEBU01@@Z @25
    ??_7IcuToolErrorCode@icu_58@@6B@ @26
    ??_7PropertyNames@icu_58@@6B@ @27
    ??_7UXMLElement@icu_58@@6B@ @28
    ??_7UXMLParser@icu_58@@6B@ @29
    ?addFile@Package@icu_58@@QEAAXPEBD0@Z @30
    ?addItem@Package@icu_58@@QEAAXPEBD@Z @31
    ?addItem@Package@icu_58@@QEAAXPEBDPEAEHCD@Z @32
    ?addItems@Package@icu_58@@QEAAXAEBV12@@Z @33
    ?allocString@Package@icu_58@@AEAAPEADCH@Z @34
    ?appendText@UXMLElement@icu_58@@AEBAXAEAVUnicodeString@2@C@Z @35
    ?checkDependencies@Package@icu_58@@QEAACXZ @36
    ?checkDependency@Package@icu_58@@CAXPEAXPEBD1@Z @37
    ?countAttributes@UXMLElement@icu_58@@QEBAHXZ @38
    ?countChildren@UXMLElement@icu_58@@QEBAHXZ @39
    ?createElement@UXMLParser@icu_58@@AEAAPEAVUXMLElement@2@AEAVRegexMatcher@2@AEAW4UErrorCode@@@Z @40
    ?createParser@UXMLParser@icu_58@@SAPEAV12@AEAW4UErrorCode@@@Z @41
    ?ensureItemCapacity@Package@icu_58@@AEAAXXZ @42
    ?enumDependencies@Package@icu_58@@AEAAXPEAUItem@2@PEAXP6AX1PEBD2@Z@Z @43
    ?enumDependencies@Package@icu_58@@QEAAXPEAXP6AX0PEBD1@Z@Z @44
    ?error@UXMLParser@icu_58@@AEAAXPEBDAEAW4UErrorCode@@@Z @45
    ?extractItem@Package@icu_58@@QEAAXPEBD0HD@Z @46
    ?extractItem@Package@icu_58@@QEAAXPEBDHD@Z @47
    ?extractItems@Package@icu_58@@QEAAXPEBD0D@Z @48
    ?extractItems@Package@icu_58@@QEAAXPEBDAEBV12@D@Z @49
    ?findItem@Package@icu_58@@QEBAHPEBDH@Z @50
    ?findItems@Package@icu_58@@QEAAXPEBD@Z @51
    ?findName@UXMLParser@icu_58@@QEBAPEBVUnicodeString@2@AEBV32@@Z @52
    ?findNextItem@Package@icu_58@@QEAAHXZ @53
    ?firstField@PreparsedUCD@icu_58@@AEAAPEBDXZ @54
    ?getAttribute@UXMLElement@icu_58@@QEBAPEBVUnicodeString@2@AEBV32@@Z @55
    ?getAttribute@UXMLElement@icu_58@@QEBAPEBVUnicodeString@2@HAEAV32@0@Z @56
    ?getChild@UXMLElement@icu_58@@QEBAPEBVUObject@2@HAEAW4UXMLNodeType@@@Z @57
    ?getChildElement@UXMLElement@icu_58@@QEBAPEBV12@AEBVUnicodeString@2@@Z @58
    ?getDataLength@CollationInfo@icu_58@@CAHQEBHH@Z @59
    ?getDynamicClassID@UXMLElement@icu_58@@UEBAPEAXXZ @60
    ?getDynamicClassID@UXMLParser@icu_58@@UEBAPEAXXZ @61
    ?getInType@Package@icu_58@@QEAADXZ @62
    ?getIntProp@UniProps@icu_58@@QEBAHH@Z @63
    ?getItem@Package@icu_58@@QEBAPEBUItem@2@H@Z @64
    ?getItemCount@Package@icu_58@@QEBAHXZ @65
    ?getLineNumber@PreparsedUCD@icu_58@@QEBAHXZ @66
    ?getPropertyEnum@PropertyNames@icu_58@@UEBAHPEBD@Z @67
    ?getPropertyValueEnum@PropertyNames@icu_58@@UEBAHHPEBD@Z @68
    ?getProps@PreparsedUCD@icu_58@@QEAAPEBUUniProps@2@AEAVUnicodeSet@2@AEAW4UErrorCode@@@Z @69
    ?getRangeForAlgNames@PreparsedUCD@icu_58@@QEAACAEAH0AEAW4UErrorCode@@@Z @70
    ?getStaticClassID@UXMLElement@icu_58@@SAPEAXXZ @71
    ?getStaticClassID@UXMLParser@icu_58@@SAPEAXXZ @72
    ?getTagName@UXMLElement@icu_58@@QEBAAEBVUnicodeString@2@XZ @73
    ?getText@UXMLElement@icu_58@@QEBA?AVUnicodeString@2@C@Z @74
    ?getUnicodeVersion@PreparsedUCD@icu_58@@QEBAAEAY03$$CBEXZ @75
    ?handleFailure@IcuToolErrorCode@icu_58@@MEBAXXZ @76
    ?intern@UXMLParser@icu_58@@AEAAPEBVUnicodeString@2@AEBV32@AEAW4UErrorCode@@@Z @77
    ?isLineBufferAvailable@PreparsedUCD@icu_58@@AEAACH@Z @78
    ?kNumLineBuffers@PreparsedUCD@icu_58@@0HB @79
    ?lineHasPropertyValues@PreparsedUCD@icu_58@@QEBACXZ @80
    ?nextChildElement@UXMLElement@icu_58@@QEBAPEBV12@AEAH@Z @81
    ?nextField@PreparsedUCD@icu_58@@QEAAPEBDXZ @82
    ?parse@UXMLParser@icu_58@@QEAAPEAVUXMLElement@2@AEBVUnicodeString@2@AEAW4UErrorCode@@@Z @83
    ?parseCodePoint@PreparsedUCD@icu_58@@AEAAHPEBDAEAW4UErrorCode@@@Z @84
    ?parseCodePointRange@PreparsedUCD@icu_58@@AEAACPEBDAEAH1AEAW4UErrorCode@@@Z @85
    ?parseFile@UXMLParser@icu_58@@QEAAPEAVUXMLElement@2@PEBDAEAW4UErrorCode@@@Z @86
    ?parseMisc@UXMLParser@icu_58@@AEAAXAEAW4UErrorCode@@@Z @87
    ?parseProperty@PreparsedUCD@icu_58@@AEAACAEAUUniProps@2@PEBDAEAVUnicodeSet@2@AEAW4UErrorCode@@@Z @88
    ?parseScriptExtensions@PreparsedUCD@icu_58@@AEAAXPEBDAEAVUnicodeSet@2@AEAW4UErrorCode@@@Z @89
    ?parseString@PreparsedUCD@icu_58@@AEAAXPEBDAEAVUnicodeString@2@AEAW4UErrorCode@@@Z @90
    ?printReorderRanges@CollationInfo@icu_58@@SAXAEBUCollationData@2@PEBHH@Z @91
    ?printSizes@CollationInfo@icu_58@@SAXHQEBH@Z @92
    ?readLine@PreparsedUCD@icu_58@@QEAA?AW4LineType@12@AEAW4UErrorCode@@@Z @93
    ?readPackage@Package@icu_58@@QEAAXPEBD@Z @94
    ?removeItem@Package@icu_58@@QEAAXH@Z @95
    ?removeItems@Package@icu_58@@QEAAXAEBV12@@Z @96
    ?removeItems@Package@icu_58@@QEAAXPEBD@Z @97
    ?replaceCharRefs@UXMLParser@icu_58@@AEAAXAEAVUnicodeString@2@AEAW4UErrorCode@@@Z @98
    ?scanContent@UXMLParser@icu_58@@AEAA?AVUnicodeString@2@AEAW4UErrorCode@@@Z @99
    ?setAutoPrefix@Package@icu_58@@QEAAXXZ @100
    ?setAutoPrefixWithType@Package@icu_58@@QEAAXXZ @101
    ?setItemCapacity@Package@icu_58@@AEAAXH@Z @102
    ?setMatchMode@Package@icu_58@@QEAAXI@Z @103
    ?setPrefix@Package@icu_58@@QEAAXPEBD@Z @104
    ?setPropertyNames@PreparsedUCD@icu_58@@QEAAXPEBVPropertyNames@2@@Z @105
    ?sortItems@Package@icu_58@@AEAAXXZ @106
    ?udbg_enumString@@YAAEBVUnicodeString@icu_58@@W4UDebugEnumType@@H@Z @107
    ?writePackage@Package@icu_58@@QEAAXPEBDD0@Z @108
    T_FileStream_close @109
    T_FileStream_eof @110
    T_FileStream_error @111
    T_FileStream_file_exists @112
    T_FileStream_getc @113
    T_FileStream_open @114
    T_FileStream_peek @115
    T_FileStream_putc @116
    T_FileStream_read @117
    T_FileStream_readLine @118
    T_FileStream_remove @119
    T_FileStream_rewind @120
    T_FileStream_size @121
    T_FileStream_stderr @122
    T_FileStream_stdin @123
    T_FileStream_stdout @124
    T_FileStream_ungetc @125
    T_FileStream_write @126
    T_FileStream_writeLine @127
    checkAssemblyHeaderName @128
    createCommonDataFile @129
    findBasename @130
    findDirname @131
    getCurrentYear @132
    getLongPathname @133
    isFileModTimeLater @134
    paramCldrVersion @135
    paramConverterDefault @136
    paramEmpty @137
    paramIcudataPath @138
    paramInteger @139
    paramLocaleDefault @140
    paramLocaleDefaultBcp47 @141
    paramPlatform @142
    paramStatic @143
    paramTimezoneDefault @144
    paramTimezoneVersion @145
    parseFlagsFile @146
    printAssemblyHeadersToStdErr @147
    readList @148
    swapFileSepChar @149
    u_parseArgs @150
    u_parseCodePointRange @151
    u_parseCodePointRangeAnyTerminator @152
    u_parseCodePoints @153
    u_parseDelimitedFile @154
    u_parseString @155
    u_parseUTF8 @156
    u_rtrim @157
    u_skipWhitespace @158
    ucbuf_autodetect @159
    ucbuf_autodetect_fs @160
    ucbuf_close @161
    ucbuf_getBuffer @162
    ucbuf_getc @163
    ucbuf_getc32 @164
    ucbuf_getcx32 @165
    ucbuf_open @166
    ucbuf_readline @167
    ucbuf_resolveFileName @168
    ucbuf_rewind @169
    ucbuf_size @170
    ucbuf_ungetc @171
    ucm_addMapping @172
    ucm_addMappingAuto @173
    ucm_addMappingFromLine @174
    ucm_addState @175
    ucm_checkBaseExt @176
    ucm_checkValidity @177
    ucm_close @178
    ucm_closeTable @179
    ucm_countChars @180
    ucm_findFallback @181
    ucm_mappingType @182
    ucm_mergeTables @183
    ucm_moveMappings @184
    ucm_open @185
    ucm_openTable @186
    ucm_optimizeStates @187
    ucm_parseBytes @188
    ucm_parseHeaderLine @189
    ucm_parseMappingLine @190
    ucm_printMapping @191
    ucm_printTable @192
    ucm_processStates @193
    ucm_readTable @194
    ucm_resetTable @195
    ucm_separateMappings @196
    ucm_sortTable @197
    udata_create @198
    udata_createDummy @199
    udata_finish @200
    udata_swap @201
    udata_write16 @202
    udata_write32 @203
    udata_write8 @204
    udata_writeBlock @205
    udata_writePadding @206
    udata_writeString @207
    udata_writeUString @208
    udbg_enumArrayValue @209
    udbg_enumByName @210
    udbg_enumByString @211
    udbg_enumCount @212
    udbg_enumExpectedCount @213
    udbg_enumName @214
    udbg_escape @215
    udbg_getPlatform @216
    udbg_getSystemParameterNameByIndex @217
    udbg_getSystemParameterValueByIndex @218
    udbg_knownIssueURLFrom @219
    udbg_knownIssue_close @220
    udbg_knownIssue_open @221
    udbg_knownIssue_openU @222
    udbg_knownIssue_print @223
    udbg_stod @224
    udbg_stoi @225
    udbg_writeIcuInfo @226
    uprv_fileExists @227
    uprv_isInvariantUnicodeString @228
    uprv_makeDenseRanges @229
    uprv_mkdir @230
    usrc_create @231
    usrc_createTextData @232
    usrc_writeArray @233
    usrc_writeArrayOfMostlyInvChars @234
    usrc_writeUTrie2Arrays @235
    usrc_writeUTrie2Struct @236
    utm_alloc @237
    utm_allocN @238
    utm_close @239
    utm_countItems @240
    utm_getStart @241
    utm_open @242
    writeAssemblyCode @243
    writeCCode @244
    writeObjectCode @245
    writePackageDatFile @246
