LIBRARY icuuc58
EXPORTS
    ??0?$MaybeStackArray@D$0CI@@icu_58@@AEAA@AEBV01@@Z @1
    ??0?$MaybeStackArray@D$0CI@@icu_58@@QEAA@XZ @2
    ??0Appendable@icu_58@@QEAA@AEBV01@@Z @3
    ??0Appendable@icu_58@@QEAA@XZ @4
    ??0BreakIterator@icu_58@@IEAA@AEBV01@@Z @5
    ??0BreakIterator@icu_58@@IEAA@AEBVLocale@1@0@Z @6
    ??0BreakIterator@icu_58@@IEAA@XZ @7
    ??0ByteSink@icu_58@@QEAA@XZ @8
    ??0BytesDictionaryMatcher@icu_58@@QEAA@AEBV01@@Z @9
    ??0BytesDictionaryMatcher@icu_58@@QEAA@PEBDHPEAUUDataMemory@@@Z @10
    ??0BytesTrie@icu_58@@AEAA@PEAXPEBX@Z @11
    ??0BytesTrie@icu_58@@QEAA@AEBV01@@Z @12
    ??0BytesTrie@icu_58@@QEAA@PEBX@Z @13
    ??0BytesTrieBuilder@icu_58@@QEAA@AEAW4UErrorCode@@@Z @14
    ??0CStr@icu_58@@QEAA@AEBVUnicodeString@1@@Z @15
    ??0CacheKeyBase@icu_58@@QEAA@AEBV01@@Z @16
    ??0CacheKeyBase@icu_58@@QEAA@XZ @17
    ??0CanonicalIterator@icu_58@@QEAA@AEBVUnicodeString@1@AEAW4UErrorCode@@@Z @18
    ??0CharString@icu_58@@QEAA@AEBV01@AEAW4UErrorCode@@@Z @19
    ??0CharString@icu_58@@QEAA@PEBDHAEAW4UErrorCode@@@Z @20
    ??0CharString@icu_58@@QEAA@VStringPiece@1@AEAW4UErrorCode@@@Z @21
    ??0CharString@icu_58@@QEAA@XZ @22
    ??0CharacterIterator@icu_58@@IEAA@AEBV01@@Z @23
    ??0CharacterIterator@icu_58@@IEAA@H@Z @24
    ??0CharacterIterator@icu_58@@IEAA@HH@Z @25
    ??0CharacterIterator@icu_58@@IEAA@HHHH@Z @26
    ??0CharacterIterator@icu_58@@IEAA@XZ @27
    ??0CheckedArrayByteSink@icu_58@@QEAA@PEADH@Z @28
    ??0DateInterval@icu_58@@QEAA@AEBV01@@Z @29
    ??0DateInterval@icu_58@@QEAA@NN@Z @30
    ??0DictionaryMatcher@icu_58@@QEAA@AEBV01@@Z @31
    ??0DictionaryMatcher@icu_58@@QEAA@XZ @32
    ??0ErrorCode@icu_58@@QEAA@AEBV01@@Z @33
    ??0ErrorCode@icu_58@@QEAA@XZ @34
    ??0EventListener@icu_58@@QEAA@AEBV01@@Z @35
    ??0EventListener@icu_58@@QEAA@XZ @36
    ??0FilteredBreakIteratorBuilder@icu_58@@IEAA@XZ @37
    ??0FilteredBreakIteratorBuilder@icu_58@@QEAA@AEBV01@@Z @38
    ??0FilteredNormalizer2@icu_58@@QEAA@AEBV01@@Z @39
    ??0FilteredNormalizer2@icu_58@@QEAA@AEBVNormalizer2@1@AEBVUnicodeSet@1@@Z @40
    ??0ForwardCharacterIterator@icu_58@@IEAA@AEBV01@@Z @41
    ??0ForwardCharacterIterator@icu_58@@IEAA@XZ @42
    ??0FullCaseFoldingIterator@icu_58@@QEAA@XZ @43
    ??0Hashtable@icu_58@@QEAA@AEAW4UErrorCode@@@Z @44
    ??0Hashtable@icu_58@@QEAA@CAEAW4UErrorCode@@@Z @45
    ??0Hashtable@icu_58@@QEAA@P6ACTUElement@@0@Z1AEAW4UErrorCode@@@Z @46
    ??0Hashtable@icu_58@@QEAA@XZ @47
    ??0ICULocaleService@icu_58@@QEAA@AEBV01@@Z @48
    ??0ICULocaleService@icu_58@@QEAA@AEBVUnicodeString@1@@Z @49
    ??0ICULocaleService@icu_58@@QEAA@XZ @50
    ??0ICUNotifier@icu_58@@QEAA@AEBV01@@Z @51
    ??0ICUNotifier@icu_58@@QEAA@XZ @52
    ??0ICUResourceBundleFactory@icu_58@@QEAA@AEBV01@@Z @53
    ??0ICUResourceBundleFactory@icu_58@@QEAA@AEBVUnicodeString@1@@Z @54
    ??0ICUResourceBundleFactory@icu_58@@QEAA@XZ @55
    ??0ICUService@icu_58@@QEAA@AEBV01@@Z @56
    ??0ICUService@icu_58@@QEAA@AEBVUnicodeString@1@@Z @57
    ??0ICUService@icu_58@@QEAA@XZ @58
    ??0ICUServiceFactory@icu_58@@QEAA@AEBV01@@Z @59
    ??0ICUServiceFactory@icu_58@@QEAA@XZ @60
    ??0ICUServiceKey@icu_58@@QEAA@AEBV01@@Z @61
    ??0ICUServiceKey@icu_58@@QEAA@AEBVUnicodeString@1@@Z @62
    ??0IDNA@icu_58@@QEAA@AEBV01@@Z @63
    ??0IDNA@icu_58@@QEAA@XZ @64
    ??0IDNAInfo@icu_58@@QEAA@XZ @65
    ??0Iterator@BytesTrie@icu_58@@QEAA@AEBV12@HAEAW4UErrorCode@@@Z @66
    ??0Iterator@BytesTrie@icu_58@@QEAA@PEBXHAEAW4UErrorCode@@@Z @67
    ??0Iterator@UCharsTrie@icu_58@@QEAA@AEBV012@@Z @68
    ??0Iterator@UCharsTrie@icu_58@@QEAA@AEBV12@HAEAW4UErrorCode@@@Z @69
    ??0Iterator@UCharsTrie@icu_58@@QEAA@PEB_WHAEAW4UErrorCode@@@Z @70
    ??0ListFormatter@icu_58@@QEAA@AEBUListFormatData@1@AEAW4UErrorCode@@@Z @71
    ??0ListFormatter@icu_58@@QEAA@AEBV01@@Z @72
    ??0ListFormatter@icu_58@@QEAA@PEBUListFormatInternal@1@@Z @73
    ??0Locale@icu_58@@AEAA@W4ELocaleType@01@@Z @74
    ??0Locale@icu_58@@QEAA@AEBV01@@Z @75
    ??0Locale@icu_58@@QEAA@PEBD000@Z @76
    ??0Locale@icu_58@@QEAA@XZ @77
    ??0LocaleBased@icu_58@@QEAA@PEAD0@Z @78
    ??0LocaleBased@icu_58@@QEAA@PEBD0@Z @79
    ??0LocaleDisplayNames@icu_58@@QEAA@AEBV01@@Z @80
    ??0LocaleDisplayNames@icu_58@@QEAA@XZ @81
    ??0LocaleKey@icu_58@@IEAA@AEBVUnicodeString@1@0PEBV21@H@Z @82
    ??0LocaleKey@icu_58@@QEAA@AEBV01@@Z @83
    ??0LocaleKeyFactory@icu_58@@IEAA@H@Z @84
    ??0LocaleKeyFactory@icu_58@@IEAA@HAEBVUnicodeString@1@@Z @85
    ??0LocaleKeyFactory@icu_58@@QEAA@AEBV01@@Z @86
    ??0MessagePattern@icu_58@@QEAA@AEAW4UErrorCode@@@Z @87
    ??0MessagePattern@icu_58@@QEAA@AEBV01@@Z @88
    ??0MessagePattern@icu_58@@QEAA@AEBVUnicodeString@1@PEAUUParseError@@AEAW4UErrorCode@@@Z @89
    ??0MessagePattern@icu_58@@QEAA@W4UMessagePatternApostropheMode@@AEAW4UErrorCode@@@Z @90
    ??0Mutex@icu_58@@QEAA@PEAUUMutex@@@Z @91
    ??0Normalizer2@icu_58@@QEAA@AEBV01@@Z @92
    ??0Normalizer2@icu_58@@QEAA@XZ @93
    ??0Normalizer2Impl@icu_58@@QEAA@AEBV01@@Z @94
    ??0Normalizer2Impl@icu_58@@QEAA@XZ @95
    ??0Normalizer@icu_58@@QEAA@AEBV01@@Z @96
    ??0Normalizer@icu_58@@QEAA@AEBVCharacterIterator@1@W4UNormalizationMode@@@Z @97
    ??0Normalizer@icu_58@@QEAA@AEBVUnicodeString@1@W4UNormalizationMode@@@Z @98
    ??0Normalizer@icu_58@@QEAA@PEB_WHW4UNormalizationMode@@@Z @99
    ??0ParsePosition@icu_58@@QEAA@AEBV01@@Z @100
    ??0ParsePosition@icu_58@@QEAA@H@Z @101
    ??0ParsePosition@icu_58@@QEAA@XZ @102
    ??0ReorderingBuffer@icu_58@@QEAA@AEBVNormalizer2Impl@1@AEAVUnicodeString@1@@Z @103
    ??0Replaceable@icu_58@@IEAA@XZ @104
    ??0Replaceable@icu_58@@QEAA@AEBV01@@Z @105
    ??0ResourceArray@icu_58@@QEAA@PEBGPEBIH@Z @106
    ??0ResourceArray@icu_58@@QEAA@XZ @107
    ??0ResourceBundle@icu_58@@QEAA@AEAW4UErrorCode@@@Z @108
    ??0ResourceBundle@icu_58@@QEAA@AEBV01@@Z @109
    ??0ResourceBundle@icu_58@@QEAA@AEBVUnicodeString@1@AEAW4UErrorCode@@@Z @110
    ??0ResourceBundle@icu_58@@QEAA@AEBVUnicodeString@1@AEBVLocale@1@AEAW4UErrorCode@@@Z @111
    ??0ResourceBundle@icu_58@@QEAA@PEAUUResourceBundle@@AEAW4UErrorCode@@@Z @112
    ??0ResourceBundle@icu_58@@QEAA@PEBDAEBVLocale@1@AEAW4UErrorCode@@@Z @113
    ??0ResourceSink@icu_58@@QEAA@XZ @114
    ??0ResourceTable@icu_58@@QEAA@PEBGPEBH0PEBIH@Z @115
    ??0ResourceTable@icu_58@@QEAA@XZ @116
    ??0ResourceValue@icu_58@@IEAA@XZ @117
    ??0RuleBasedBreakIterator@icu_58@@AEAA@PEAURBBIDataHeader@1@AEAW4UErrorCode@@@Z @118
    ??0RuleBasedBreakIterator@icu_58@@QEAA@AEBV01@@Z @119
    ??0RuleBasedBreakIterator@icu_58@@QEAA@AEBVUnicodeString@1@AEAUUParseError@@AEAW4UErrorCode@@@Z @120
    ??0RuleBasedBreakIterator@icu_58@@QEAA@PEAUUDataMemory@@AEAW4UErrorCode@@@Z @121
    ??0RuleBasedBreakIterator@icu_58@@QEAA@PEBEIAEAW4UErrorCode@@@Z @122
    ??0RuleBasedBreakIterator@icu_58@@QEAA@XZ @123
    ??0ServiceListener@icu_58@@QEAA@AEBV01@@Z @124
    ??0ServiceListener@icu_58@@QEAA@XZ @125
    ??0SharedObject@icu_58@@QEAA@AEBV01@@Z @126
    ??0SharedObject@icu_58@@QEAA@XZ @127
    ??0SimpleFactory@icu_58@@QEAA@AEBV01@@Z @128
    ??0SimpleFactory@icu_58@@QEAA@PEAVUObject@1@AEBVUnicodeString@1@C@Z @129
    ??0SimpleFilteredBreakIteratorBuilder@icu_58@@QEAA@AEAW4UErrorCode@@@Z @130
    ??0SimpleFilteredBreakIteratorBuilder@icu_58@@QEAA@AEBVLocale@1@AEAW4UErrorCode@@@Z @131
    ??0SimpleFormatter@icu_58@@QEAA@AEBV01@@Z @132
    ??0SimpleFormatter@icu_58@@QEAA@AEBVUnicodeString@1@AEAW4UErrorCode@@@Z @133
    ??0SimpleFormatter@icu_58@@QEAA@AEBVUnicodeString@1@HHAEAW4UErrorCode@@@Z @134
    ??0SimpleFormatter@icu_58@@QEAA@XZ @135
    ??0SimpleLocaleKeyFactory@icu_58@@QEAA@AEBV01@@Z @136
    ??0SimpleLocaleKeyFactory@icu_58@@QEAA@PEAVUObject@1@AEBVLocale@1@HH@Z @137
    ??0SimpleLocaleKeyFactory@icu_58@@QEAA@PEAVUObject@1@AEBVUnicodeString@1@HH@Z @138
    ??0StringCharacterIterator@icu_58@@IEAA@XZ @139
    ??0StringCharacterIterator@icu_58@@QEAA@AEBV01@@Z @140
    ??0StringCharacterIterator@icu_58@@QEAA@AEBVUnicodeString@1@@Z @141
    ??0StringCharacterIterator@icu_58@@QEAA@AEBVUnicodeString@1@H@Z @142
    ??0StringCharacterIterator@icu_58@@QEAA@AEBVUnicodeString@1@HHH@Z @143
    ??0StringEnumeration@icu_58@@IEAA@XZ @144
    ??0StringEnumeration@icu_58@@QEAA@AEBV01@@Z @145
    ??0StringPair@icu_58@@AEAA@AEBVUnicodeString@1@0@Z @146
    ??0StringPair@icu_58@@QEAA@$$QEAV01@@Z @147
    ??0StringPair@icu_58@@QEAA@AEBV01@@Z @148
    ??0StringPiece@icu_58@@QEAA@AEBV01@H@Z @149
    ??0StringPiece@icu_58@@QEAA@AEBV01@HH@Z @150
    ??0StringPiece@icu_58@@QEAA@AEBV?$basic_string@DU?$char_traits@D@std@@V?$allocator@D@2@@std@@@Z @151
    ??0StringPiece@icu_58@@QEAA@PEBD@Z @152
    ??0StringPiece@icu_58@@QEAA@PEBDH@Z @153
    ??0StringPiece@icu_58@@QEAA@XZ @154
    ??0StringTrieBuilder@icu_58@@IEAA@XZ @155
    ??0StringTrieBuilder@icu_58@@QEAA@AEBV01@@Z @156
    ??0SymbolTable@icu_58@@QEAA@AEBV01@@Z @157
    ??0SymbolTable@icu_58@@QEAA@XZ @158
    ??0UCharCharacterIterator@icu_58@@IEAA@XZ @159
    ??0UCharCharacterIterator@icu_58@@QEAA@AEBV01@@Z @160
    ??0UCharCharacterIterator@icu_58@@QEAA@PEB_WH@Z @161
    ??0UCharCharacterIterator@icu_58@@QEAA@PEB_WHH@Z @162
    ??0UCharCharacterIterator@icu_58@@QEAA@PEB_WHHHH@Z @163
    ??0UCharsDictionaryMatcher@icu_58@@QEAA@AEBV01@@Z @164
    ??0UCharsDictionaryMatcher@icu_58@@QEAA@PEB_WPEAUUDataMemory@@@Z @165
    ??0UCharsTrie@icu_58@@AEAA@PEA_WPEB_W@Z @166
    ??0UCharsTrie@icu_58@@QEAA@AEBV01@@Z @167
    ??0UCharsTrie@icu_58@@QEAA@PEB_W@Z @168
    ??0UCharsTrieBuilder@icu_58@@QEAA@AEAW4UErrorCode@@@Z @169
    ??0UObject@icu_58@@QEAA@AEBV01@@Z @170
    ??0UObject@icu_58@@QEAA@XZ @171
    ??0UStack@icu_58@@QEAA@AEAW4UErrorCode@@@Z @172
    ??0UStack@icu_58@@QEAA@HAEAW4UErrorCode@@@Z @173
    ??0UStack@icu_58@@QEAA@P6AXPEAX@ZP6ACTUElement@@2@ZAEAW4UErrorCode@@@Z @174
    ??0UStack@icu_58@@QEAA@P6AXPEAX@ZP6ACTUElement@@2@ZHAEAW4UErrorCode@@@Z @175
    ??0UStringEnumeration@icu_58@@QEAA@AEBV01@@Z @176
    ??0UStringEnumeration@icu_58@@QEAA@PEAUUEnumeration@@@Z @177
    ??0UStringSet@icu_58@@QEAA@AEAW4UErrorCode@@@Z @178
    ??0UVector32@icu_58@@QEAA@AEAW4UErrorCode@@@Z @179
    ??0UVector32@icu_58@@QEAA@HAEAW4UErrorCode@@@Z @180
    ??0UVector64@icu_58@@QEAA@AEAW4UErrorCode@@@Z @181
    ??0UVector64@icu_58@@QEAA@HAEAW4UErrorCode@@@Z @182
    ??0UVector@icu_58@@QEAA@AEAW4UErrorCode@@@Z @183
    ??0UVector@icu_58@@QEAA@HAEAW4UErrorCode@@@Z @184
    ??0UVector@icu_58@@QEAA@P6AXPEAX@ZP6ACTUElement@@2@ZAEAW4UErrorCode@@@Z @185
    ??0UVector@icu_58@@QEAA@P6AXPEAX@ZP6ACTUElement@@2@ZHAEAW4UErrorCode@@@Z @186
    ??0UnicodeFilter@icu_58@@QEAA@AEBV01@@Z @187
    ??0UnicodeFilter@icu_58@@QEAA@XZ @188
    ??0UnicodeFunctor@icu_58@@QEAA@AEBV01@@Z @189
    ??0UnicodeFunctor@icu_58@@QEAA@XZ @190
    ??0UnicodeMatcher@icu_58@@QEAA@AEBV01@@Z @191
    ??0UnicodeMatcher@icu_58@@QEAA@XZ @192
    ??0UnicodeSet@icu_58@@AEAA@AEBV01@C@Z @193
    ??0UnicodeSet@icu_58@@QEAA@AEBV01@@Z @194
    ??0UnicodeSet@icu_58@@QEAA@AEBVUnicodeString@1@AEAVParsePosition@1@IPEBVSymbolTable@1@AEAW4UErrorCode@@@Z @195
    ??0UnicodeSet@icu_58@@QEAA@AEBVUnicodeString@1@AEAW4UErrorCode@@@Z @196
    ??0UnicodeSet@icu_58@@QEAA@AEBVUnicodeString@1@IPEBVSymbolTable@1@AEAW4UErrorCode@@@Z @197
    ??0UnicodeSet@icu_58@@QEAA@HH@Z @198
    ??0UnicodeSet@icu_58@@QEAA@QEBGHW4ESerialization@01@AEAW4UErrorCode@@@Z @199
    ??0UnicodeSet@icu_58@@QEAA@XZ @200
    ??0UnicodeSetIterator@icu_58@@QEAA@AEBVUnicodeSet@1@@Z @201
    ??0UnicodeSetIterator@icu_58@@QEAA@XZ @202
    ??0UnicodeString@icu_58@@QEAA@$$QEAV01@@Z @203
    ??0UnicodeString@icu_58@@QEAA@AEBV01@@Z @204
    ??0UnicodeString@icu_58@@QEAA@AEBV01@H@Z @205
    ??0UnicodeString@icu_58@@QEAA@AEBV01@HH@Z @206
    ??0UnicodeString@icu_58@@QEAA@CPEB_WH@Z @207
    ??0UnicodeString@icu_58@@QEAA@H@Z @208
    ??0UnicodeString@icu_58@@QEAA@HHH@Z @209
    ??0UnicodeString@icu_58@@QEAA@PEA_WHH@Z @210
    ??0UnicodeString@icu_58@@QEAA@PEBD0@Z @211
    ??0UnicodeString@icu_58@@QEAA@PEBD@Z @212
    ??0UnicodeString@icu_58@@QEAA@PEBDH0@Z @213
    ??0UnicodeString@icu_58@@QEAA@PEBDH@Z @214
    ??0UnicodeString@icu_58@@QEAA@PEBDHPEAUUConverter@@AEAW4UErrorCode@@@Z @215
    ??0UnicodeString@icu_58@@QEAA@PEBDHW4EInvariant@01@@Z @216
    ??0UnicodeString@icu_58@@QEAA@PEB_W@Z @217
    ??0UnicodeString@icu_58@@QEAA@PEB_WH@Z @218
    ??0UnicodeString@icu_58@@QEAA@XZ @219
    ??0UnicodeString@icu_58@@QEAA@_W@Z @220
    ??0UnicodeStringAppendable@icu_58@@QEAA@AEAVUnicodeString@1@@Z @221
    ??0UnicodeStringAppendable@icu_58@@QEAA@AEBV01@@Z @222
    ??0UnifiedCache@icu_58@@QEAA@AEAW4UErrorCode@@@Z @223
    ??0UnifiedCacheBase@icu_58@@QEAA@XZ @224
    ??1?$MaybeStackArray@D$0CI@@icu_58@@QEAA@XZ @225
    ??1Appendable@icu_58@@UEAA@XZ @226
    ??1BreakIterator@icu_58@@UEAA@XZ @227
    ??1ByteSink@icu_58@@UEAA@XZ @228
    ??1BytesDictionaryMatcher@icu_58@@UEAA@XZ @229
    ??1BytesTrie@icu_58@@QEAA@XZ @230
    ??1BytesTrieBuilder@icu_58@@UEAA@XZ @231
    ??1CStr@icu_58@@QEAA@XZ @232
    ??1CacheKeyBase@icu_58@@UEAA@XZ @233
    ??1CanonicalIterator@icu_58@@UEAA@XZ @234
    ??1CharString@icu_58@@QEAA@XZ @235
    ??1CharacterIterator@icu_58@@UEAA@XZ @236
    ??1CheckedArrayByteSink@icu_58@@UEAA@XZ @237
    ??1DateInterval@icu_58@@UEAA@XZ @238
    ??1DictionaryMatcher@icu_58@@UEAA@XZ @239
    ??1ErrorCode@icu_58@@UEAA@XZ @240
    ??1EventListener@icu_58@@UEAA@XZ @241
    ??1FilteredBreakIteratorBuilder@icu_58@@UEAA@XZ @242
    ??1FilteredNormalizer2@icu_58@@UEAA@XZ @243
    ??1ForwardCharacterIterator@icu_58@@UEAA@XZ @244
    ??1Hashtable@icu_58@@QEAA@XZ @245
    ??1ICULocaleService@icu_58@@UEAA@XZ @246
    ??1ICUNotifier@icu_58@@UEAA@XZ @247
    ??1ICUResourceBundleFactory@icu_58@@UEAA@XZ @248
    ??1ICUService@icu_58@@UEAA@XZ @249
    ??1ICUServiceFactory@icu_58@@UEAA@XZ @250
    ??1ICUServiceKey@icu_58@@UEAA@XZ @251
    ??1IDNA@icu_58@@UEAA@XZ @252
    ??1Iterator@BytesTrie@icu_58@@QEAA@XZ @253
    ??1Iterator@UCharsTrie@icu_58@@QEAA@XZ @254
    ??1ListFormatter@icu_58@@UEAA@XZ @255
    ??1Locale@icu_58@@UEAA@XZ @256
    ??1LocaleDisplayNames@icu_58@@UEAA@XZ @257
    ??1LocaleKey@icu_58@@UEAA@XZ @258
    ??1LocaleKeyFactory@icu_58@@UEAA@XZ @259
    ??1MessagePattern@icu_58@@UEAA@XZ @260
    ??1Mutex@icu_58@@QEAA@XZ @261
    ??1Normalizer2@icu_58@@UEAA@XZ @262
    ??1Normalizer2Impl@icu_58@@UEAA@XZ @263
    ??1Normalizer@icu_58@@UEAA@XZ @264
    ??1ParsePosition@icu_58@@UEAA@XZ @265
    ??1ReorderingBuffer@icu_58@@QEAA@XZ @266
    ??1Replaceable@icu_58@@UEAA@XZ @267
    ??1ResourceBundle@icu_58@@UEAA@XZ @268
    ??1ResourceSink@icu_58@@UEAA@XZ @269
    ??1ResourceValue@icu_58@@UEAA@XZ @270
    ??1RuleBasedBreakIterator@icu_58@@UEAA@XZ @271
    ??1ServiceListener@icu_58@@UEAA@XZ @272
    ??1SharedObject@icu_58@@UEAA@XZ @273
    ??1SimpleFactory@icu_58@@UEAA@XZ @274
    ??1SimpleFilteredBreakIteratorBuilder@icu_58@@UEAA@XZ @275
    ??1SimpleFormatter@icu_58@@QEAA@XZ @276
    ??1SimpleLocaleKeyFactory@icu_58@@UEAA@XZ @277
    ??1StringCharacterIterator@icu_58@@UEAA@XZ @278
    ??1StringEnumeration@icu_58@@UEAA@XZ @279
    ??1StringPair@icu_58@@QEAA@XZ @280
    ??1StringTrieBuilder@icu_58@@MEAA@XZ @281
    ??1SymbolTable@icu_58@@UEAA@XZ @282
    ??1UCharCharacterIterator@icu_58@@UEAA@XZ @283
    ??1UCharsDictionaryMatcher@icu_58@@UEAA@XZ @284
    ??1UCharsTrie@icu_58@@QEAA@XZ @285
    ??1UCharsTrieBuilder@icu_58@@UEAA@XZ @286
    ??1UObject@icu_58@@UEAA@XZ @287
    ??1UStack@icu_58@@UEAA@XZ @288
    ??1UStringEnumeration@icu_58@@UEAA@XZ @289
    ??1UStringSet@icu_58@@UEAA@XZ @290
    ??1UVector32@icu_58@@UEAA@XZ @291
    ??1UVector64@icu_58@@UEAA@XZ @292
    ??1UVector@icu_58@@UEAA@XZ @293
    ??1UnicodeFilter@icu_58@@UEAA@XZ @294
    ??1UnicodeFunctor@icu_58@@UEAA@XZ @295
    ??1UnicodeMatcher@icu_58@@UEAA@XZ @296
    ??1UnicodeSet@icu_58@@UEAA@XZ @297
    ??1UnicodeSetIterator@icu_58@@UEAA@XZ @298
    ??1UnicodeString@icu_58@@UEAA@XZ @299
    ??1UnicodeStringAppendable@icu_58@@UEAA@XZ @300
    ??1UnifiedCache@icu_58@@UEAA@XZ @301
    ??1UnifiedCacheBase@icu_58@@UEAA@XZ @302
    ??2UMemory@icu_58@@SAPEAX_K@Z @303
    ??2UMemory@icu_58@@SAPEAX_KPEAX@Z @304
    ??2UMemory@icu_58@@SAPEAX_KPEBDH@Z @305
    ??3UMemory@icu_58@@SAXPEAX0@Z @306
    ??3UMemory@icu_58@@SAXPEAX@Z @307
    ??3UMemory@icu_58@@SAXPEAXPEBDH@Z @308
    ??4?$MaybeStackArray@D$0CI@@icu_58@@AEAAXAEBV01@@Z @309
    ??4Appendable@icu_58@@QEAAAEAV01@AEBV01@@Z @310
    ??4BytesDictionaryMatcher@icu_58@@QEAAAEAV01@AEBV01@@Z @311
    ??4CacheKeyBase@icu_58@@QEAAAEAV01@AEBV01@@Z @312
    ??4CharacterIterator@icu_58@@IEAAAEAV01@AEBV01@@Z @313
    ??4DateInterval@icu_58@@QEAAAEAV01@AEBV01@@Z @314
    ??4DictionaryData@icu_58@@QEAAAEAV01@$$QEAV01@@Z @315
    ??4DictionaryData@icu_58@@QEAAAEAV01@AEBV01@@Z @316
    ??4DictionaryMatcher@icu_58@@QEAAAEAV01@AEBV01@@Z @317
    ??4ErrorCode@icu_58@@QEAAAEAV01@AEBV01@@Z @318
    ??4EventListener@icu_58@@QEAAAEAV01@AEBV01@@Z @319
    ??4FilteredBreakIteratorBuilder@icu_58@@QEAAAEAV01@AEBV01@@Z @320
    ??4ForwardCharacterIterator@icu_58@@IEAAAEAV01@AEBV01@@Z @321
    ??4Hangul@icu_58@@QEAAAEAV01@$$QEAV01@@Z @322
    ??4Hangul@icu_58@@QEAAAEAV01@AEBV01@@Z @323
    ??4ICUNotifier@icu_58@@QEAAAEAV01@AEBV01@@Z @324
    ??4ICUServiceFactory@icu_58@@QEAAAEAV01@AEBV01@@Z @325
    ??4ICU_Utility@icu_58@@QEAAAEAV01@$$QEAV01@@Z @326
    ??4ICU_Utility@icu_58@@QEAAAEAV01@AEBV01@@Z @327
    ??4IDNA@icu_58@@QEAAAEAV01@AEBV01@@Z @328
    ??4Iterator@BytesTrie@icu_58@@QEAAAEAV012@AEBV012@@Z @329
    ??4Iterator@UCharsTrie@icu_58@@QEAAAEAV012@AEBV012@@Z @330
    ??4ListFormatter@icu_58@@QEAAAEAV01@AEBV01@@Z @331
    ??4Locale@icu_58@@QEAAAEAV01@AEBV01@@Z @332
    ??4LocaleBased@icu_58@@QEAAAEAV01@$$QEAV01@@Z @333
    ??4LocaleBased@icu_58@@QEAAAEAV01@AEBV01@@Z @334
    ??4LocaleDisplayNames@icu_58@@QEAAAEAV01@AEBV01@@Z @335
    ??4LocaleUtility@icu_58@@QEAAAEAV01@$$QEAV01@@Z @336
    ??4LocaleUtility@icu_58@@QEAAAEAV01@AEBV01@@Z @337
    ??4MessageImpl@icu_58@@QEAAAEAV01@$$QEAV01@@Z @338
    ??4MessageImpl@icu_58@@QEAAAEAV01@AEBV01@@Z @339
    ??4MessagePattern@icu_58@@QEAAAEAV01@AEBV01@@Z @340
    ??4Normalizer2@icu_58@@QEAAAEAV01@AEBV01@@Z @341
    ??4Normalizer2Factory@icu_58@@QEAAAEAV01@$$QEAV01@@Z @342
    ??4Normalizer2Factory@icu_58@@QEAAAEAV01@AEBV01@@Z @343
    ??4Normalizer2Impl@icu_58@@QEAAAEAV01@AEBV01@@Z @344
    ??4ParsePosition@icu_58@@QEAAAEAV01@AEBV01@@Z @345
    ??4PatternProps@icu_58@@QEAAAEAV01@$$QEAV01@@Z @346
    ??4PatternProps@icu_58@@QEAAAEAV01@AEBV01@@Z @347
    ??4PluralMapBase@icu_58@@QEAAAEAV01@$$QEAV01@@Z @348
    ??4PluralMapBase@icu_58@@QEAAAEAV01@AEBV01@@Z @349
    ??4Replaceable@icu_58@@QEAAAEAV01@AEBV01@@Z @350
    ??4ResourceArray@icu_58@@QEAAAEAV01@$$QEAV01@@Z @351
    ??4ResourceArray@icu_58@@QEAAAEAV01@AEBV01@@Z @352
    ??4ResourceBundle@icu_58@@QEAAAEAV01@AEBV01@@Z @353
    ??4ResourceTable@icu_58@@QEAAAEAV01@$$QEAV01@@Z @354
    ??4ResourceTable@icu_58@@QEAAAEAV01@AEBV01@@Z @355
    ??4RuleBasedBreakIterator@icu_58@@QEAAAEAV01@AEBV01@@Z @356
    ??4ServiceListener@icu_58@@QEAAAEAV01@AEBV01@@Z @357
    ??4SharedObject@icu_58@@QEAAAEAV01@AEBV01@@Z @358
    ??4SimpleFormatter@icu_58@@QEAAAEAV01@AEBV01@@Z @359
    ??4StringCharacterIterator@icu_58@@QEAAAEAV01@AEBV01@@Z @360
    ??4StringEnumeration@icu_58@@QEAAAEAV01@AEBV01@@Z @361
    ??4StringPiece@icu_58@@QEAAAEAV01@$$QEAV01@@Z @362
    ??4StringPiece@icu_58@@QEAAAEAV01@AEBV01@@Z @363
    ??4StringTrieBuilder@icu_58@@QEAAAEAV01@AEBV01@@Z @364
    ??4SymbolTable@icu_58@@QEAAAEAV01@AEBV01@@Z @365
    ??4UCharCharacterIterator@icu_58@@QEAAAEAV01@AEBV01@@Z @366
    ??4UCharsDictionaryMatcher@icu_58@@QEAAAEAV01@AEBV01@@Z @367
    ??4UMemory@icu_58@@QEAAAEAV01@$$QEAV01@@Z @368
    ??4UMemory@icu_58@@QEAAAEAV01@AEBV01@@Z @369
    ??4UObject@icu_58@@QEAAAEAV01@AEBV01@@Z @370
    ??4UStringEnumeration@icu_58@@QEAAAEAV01@AEBV01@@Z @371
    ??4UnicodeFilter@icu_58@@QEAAAEAV01@AEBV01@@Z @372
    ??4UnicodeFunctor@icu_58@@QEAAAEAV01@AEBV01@@Z @373
    ??4UnicodeMatcher@icu_58@@QEAAAEAV01@AEBV01@@Z @374
    ??4UnicodeSet@icu_58@@QEAAAEAV01@AEBV01@@Z @375
    ??4UnicodeString@icu_58@@QEAAAEAV01@$$QEAV01@@Z @376
    ??4UnicodeString@icu_58@@QEAAAEAV01@AEBV01@@Z @377
    ??4UnicodeString@icu_58@@QEAAAEAV01@H@Z @378
    ??4UnicodeString@icu_58@@QEAAAEAV01@_W@Z @379
    ??8?$MaybeStackArray@D$0CI@@icu_58@@AEAA_NAEBV01@@Z @380
    ??8DateInterval@icu_58@@UEBACAEBV01@@Z @381
    ??8Locale@icu_58@@QEBACAEBV01@@Z @382
    ??8MessagePattern@icu_58@@QEBACAEBV01@@Z @383
    ??8Normalizer@icu_58@@QEBACAEBV01@@Z @384
    ??8ParsePosition@icu_58@@QEBACAEBV01@@Z @385
    ??8RuleBasedBreakIterator@icu_58@@UEBACAEBVBreakIterator@1@@Z @386
    ??8StringCharacterIterator@icu_58@@UEBACAEBVForwardCharacterIterator@1@@Z @387
    ??8StringEnumeration@icu_58@@UEBACAEBV01@@Z @388
    ??8UCharCharacterIterator@icu_58@@UEBACAEBVForwardCharacterIterator@1@@Z @389
    ??8UVector32@icu_58@@QEAACAEBV01@@Z @390
    ??8UVector64@icu_58@@QEAACAEBV01@@Z @391
    ??8UVector@icu_58@@QEAACAEBV01@@Z @392
    ??8UnicodeSet@icu_58@@UEBACAEBV01@@Z @393
    ??8UnicodeString@icu_58@@QEBACAEBV01@@Z @394
    ??8icu_58@@YACAEBVStringPiece@0@0@Z @395
    ??9?$MaybeStackArray@D$0CI@@icu_58@@AEAA_NAEBV01@@Z @396
    ??9BreakIterator@icu_58@@QEBACAEBV01@@Z @397
    ??9CacheKeyBase@icu_58@@QEBACAEBV01@@Z @398
    ??9DateInterval@icu_58@@QEBACAEBV01@@Z @399
    ??9ForwardCharacterIterator@icu_58@@QEBACAEBV01@@Z @400
    ??9Locale@icu_58@@QEBACAEBV01@@Z @401
    ??9MessagePattern@icu_58@@QEBACAEBV01@@Z @402
    ??9Normalizer@icu_58@@QEBACAEBV01@@Z @403
    ??9ParsePosition@icu_58@@QEBACAEBV01@@Z @404
    ??9RuleBasedBreakIterator@icu_58@@QEBACAEBVBreakIterator@1@@Z @405
    ??9StringEnumeration@icu_58@@UEBACAEBV01@@Z @406
    ??9UVector32@icu_58@@QEAACAEBV01@@Z @407
    ??9UVector64@icu_58@@QEAACAEBV01@@Z @408
    ??9UVector@icu_58@@QEAACAEBV01@@Z @409
    ??9UnicodeSet@icu_58@@QEBACAEBV01@@Z @410
    ??9UnicodeString@icu_58@@QEBACAEBV01@@Z @411
    ??A?$MaybeStackArray@D$0CI@@icu_58@@QEAAAEAD_J@Z @412
    ??A?$MaybeStackArray@D$0CI@@icu_58@@QEBAAEBD_J@Z @413
    ??ACharString@icu_58@@QEBADH@Z @414
    ??AUVector@icu_58@@QEBAPEAXH@Z @415
    ??AUnicodeString@icu_58@@QEBA_WH@Z @416
    ??BErrorCode@icu_58@@QEAAAEAW4UErrorCode@@XZ @417
    ??BErrorCode@icu_58@@QEAAPEAW4UErrorCode@@XZ @418
    ??Hicu_58@@YA?AVUnicodeString@0@AEBV10@0@Z @419
    ??MUnicodeString@icu_58@@QEBACAEBV01@@Z @420
    ??NUnicodeString@icu_58@@QEBACAEBV01@@Z @421
    ??OUnicodeString@icu_58@@QEBACAEBV01@@Z @422
    ??PUnicodeString@icu_58@@QEBACAEBV01@@Z @423
    ??RCStr@icu_58@@QEBAPEBDXZ @424
    ??YUnicodeString@icu_58@@QEAAAEAV01@AEBV01@@Z @425
    ??YUnicodeString@icu_58@@QEAAAEAV01@H@Z @426
    ??YUnicodeString@icu_58@@QEAAAEAV01@_W@Z @427
    ??_7Appendable@icu_58@@6B@ @428
    ??_7BreakIterator@icu_58@@6B@ @429
    ??_7ByteSink@icu_58@@6B@ @430
    ??_7BytesDictionaryMatcher@icu_58@@6B@ @431
    ??_7BytesTrieBuilder@icu_58@@6B@ @432
    ??_7CacheKeyBase@icu_58@@6B@ @433
    ??_7CanonicalIterator@icu_58@@6B@ @434
    ??_7CharacterIterator@icu_58@@6B@ @435
    ??_7CheckedArrayByteSink@icu_58@@6B@ @436
    ??_7DateInterval@icu_58@@6B@ @437
    ??_7DictionaryMatcher@icu_58@@6B@ @438
    ??_7ErrorCode@icu_58@@6B@ @439
    ??_7EventListener@icu_58@@6B@ @440
    ??_7FilteredBreakIteratorBuilder@icu_58@@6B@ @441
    ??_7FilteredNormalizer2@icu_58@@6B@ @442
    ??_7ForwardCharacterIterator@icu_58@@6B@ @443
    ??_7ICULocaleService@icu_58@@6B@ @444
    ??_7ICUNotifier@icu_58@@6B@ @445
    ??_7ICUResourceBundleFactory@icu_58@@6B@ @446
    ??_7ICUService@icu_58@@6B@ @447
    ??_7ICUServiceFactory@icu_58@@6B@ @448
    ??_7ICUServiceKey@icu_58@@6B@ @449
    ??_7IDNA@icu_58@@6B@ @450
    ??_7ListFormatter@icu_58@@6B@ @451
    ??_7Locale@icu_58@@6B@ @452
    ??_7LocaleDisplayNames@icu_58@@6B@ @453
    ??_7LocaleKey@icu_58@@6B@ @454
    ??_7LocaleKeyFactory@icu_58@@6B@ @455
    ??_7MessagePattern@icu_58@@6B@ @456
    ??_7Normalizer2@icu_58@@6B@ @457
    ??_7Normalizer2Impl@icu_58@@6B@ @458
    ??_7Normalizer@icu_58@@6B@ @459
    ??_7ParsePosition@icu_58@@6B@ @460
    ??_7Replaceable@icu_58@@6B@ @461
    ??_7ResourceBundle@icu_58@@6B@ @462
    ??_7ResourceSink@icu_58@@6B@ @463
    ??_7ResourceValue@icu_58@@6B@ @464
    ??_7RuleBasedBreakIterator@icu_58@@6B@ @465
    ??_7ServiceListener@icu_58@@6B@ @466
    ??_7SharedObject@icu_58@@6B@ @467
    ??_7SimpleFactory@icu_58@@6B@ @468
    ??_7SimpleFilteredBreakIteratorBuilder@icu_58@@6B@ @469
    ??_7SimpleLocaleKeyFactory@icu_58@@6B@ @470
    ??_7StringCharacterIterator@icu_58@@6B@ @471
    ??_7StringEnumeration@icu_58@@6B@ @472
    ??_7StringTrieBuilder@icu_58@@6B@ @473
    ??_7SymbolTable@icu_58@@6B@ @474
    ??_7UCharCharacterIterator@icu_58@@6B@ @475
    ??_7UCharsDictionaryMatcher@icu_58@@6B@ @476
    ??_7UCharsTrieBuilder@icu_58@@6B@ @477
    ??_7UObject@icu_58@@6B@ @478
    ??_7UStack@icu_58@@6B@ @479
    ??_7UStringEnumeration@icu_58@@6B@ @480
    ??_7UStringSet@icu_58@@6B@ @481
    ??_7UVector32@icu_58@@6B@ @482
    ??_7UVector64@icu_58@@6B@ @483
    ??_7UVector@icu_58@@6B@ @484
    ??_7UnicodeFilter@icu_58@@6BUnicodeFunctor@1@@ @485
    ??_7UnicodeFilter@icu_58@@6BUnicodeMatcher@1@@ @486
    ??_7UnicodeFunctor@icu_58@@6B@ @487
    ??_7UnicodeMatcher@icu_58@@6B@ @488
    ??_7UnicodeSet@icu_58@@6BUnicodeFunctor@1@@ @489
    ??_7UnicodeSet@icu_58@@6BUnicodeMatcher@1@@ @490
    ??_7UnicodeSetIterator@icu_58@@6B@ @491
    ??_7UnicodeString@icu_58@@6B@ @492
    ??_7UnicodeStringAppendable@icu_58@@6B@ @493
    ??_7UnifiedCache@icu_58@@6B@ @494
    ??_7UnifiedCacheBase@icu_58@@6B@ @495
    ??_FMutex@icu_58@@QEAAXXZ @496
    ??_UUMemory@icu_58@@SAPEAX_K@Z @497
    ??_VUMemory@icu_58@@SAXPEAX@Z @498
    ?Append@CheckedArrayByteSink@icu_58@@UEAAXPEBDH@Z @499
    ?Flush@ByteSink@icu_58@@UEAAXXZ @500
    ?GetAppendBuffer@ByteSink@icu_58@@UEAAPEADHHPEADHPEAH@Z @501
    ?GetAppendBuffer@CheckedArrayByteSink@icu_58@@UEAAPEADHHPEADHPEAH@Z @502
    ?NumberOfBytesAppended@CheckedArrayByteSink@icu_58@@QEBAHXZ @503
    ?NumberOfBytesWritten@CheckedArrayByteSink@icu_58@@QEBAHXZ @504
    ?Overflowed@CheckedArrayByteSink@icu_58@@QEBACXZ @505
    ?PREFIX_DELIMITER@ICUServiceKey@icu_58@@1_WB @506
    ?Reset@CheckedArrayByteSink@icu_58@@UEAAAEAV12@XZ @507
    ?TRANSFORM_NONE@DictionaryData@icu_58@@2HB @508
    ?TRANSFORM_OFFSET_MASK@DictionaryData@icu_58@@2HB @509
    ?TRANSFORM_TYPE_MASK@DictionaryData@icu_58@@2HB @510
    ?TRANSFORM_TYPE_OFFSET@DictionaryData@icu_58@@2HB @511
    ?TRIE_HAS_VALUES@DictionaryData@icu_58@@2HB @512
    ?TRIE_TYPE_BYTES@DictionaryData@icu_58@@2HB @513
    ?TRIE_TYPE_MASK@DictionaryData@icu_58@@2HB @514
    ?TRIE_TYPE_UCHARS@DictionaryData@icu_58@@2HB @515
    ?_add@UnicodeSet@icu_58@@AEAAXAEBVUnicodeString@2@@Z @516
    ?_appendToPat@UnicodeSet@icu_58@@CAXAEAVUnicodeString@2@AEBV32@C@Z @517
    ?_appendToPat@UnicodeSet@icu_58@@CAXAEAVUnicodeString@2@HC@Z @518
    ?_computeCountOfItemsToEvict@UnifiedCache@icu_58@@AEBAHXZ @519
    ?_fetch@UnifiedCache@icu_58@@CAXPEBUUHashElement@@AEAPEBVSharedObject@2@AEAW4UErrorCode@@@Z @520
    ?_flush@UnifiedCache@icu_58@@AEBACC@Z @521
    ?_generatePattern@UnicodeSet@icu_58@@AEBAAEAVUnicodeString@2@AEAV32@C@Z @522
    ?_get@UnifiedCache@icu_58@@AEBAXAEBVCacheKeyBase@2@AEAPEBVSharedObject@2@PEBXAEAW4UErrorCode@@@Z @523
    ?_inProgress@UnifiedCache@icu_58@@CACPEBUUHashElement@@@Z @524
    ?_inProgress@UnifiedCache@icu_58@@CACPEBVSharedObject@2@W4UErrorCode@@@Z @525
    ?_init@UVector32@icu_58@@AEAAXHAEAW4UErrorCode@@@Z @526
    ?_init@UVector64@icu_58@@AEAAXHAEAW4UErrorCode@@@Z @527
    ?_init@UVector@icu_58@@AEAAXHAEAW4UErrorCode@@@Z @528
    ?_isEvictable@UnifiedCache@icu_58@@CACPEBUUHashElement@@@Z @529
    ?_nextElement@UnifiedCache@icu_58@@AEBAPEBUUHashElement@@XZ @530
    ?_poll@UnifiedCache@icu_58@@AEBACAEBVCacheKeyBase@2@AEAPEBVSharedObject@2@AEAW4UErrorCode@@@Z @531
    ?_put@UnifiedCache@icu_58@@AEBAXPEBUUHashElement@@PEBVSharedObject@2@W4UErrorCode@@@Z @532
    ?_putIfAbsentAndGet@UnifiedCache@icu_58@@AEBAXAEBVCacheKeyBase@2@AEAPEBVSharedObject@2@AEAW4UErrorCode@@@Z @533
    ?_putNew@UnifiedCache@icu_58@@AEBAXAEBVCacheKeyBase@2@PEBVSharedObject@2@W4UErrorCode@@AEAW45@@Z @534
    ?_registerMaster@UnifiedCache@icu_58@@AEBAXPEBVCacheKeyBase@2@PEBVSharedObject@2@@Z @535
    ?_runEvictionSlice@UnifiedCache@icu_58@@AEBAXXZ @536
    ?_toPattern@UnicodeSet@icu_58@@AEBAAEAVUnicodeString@2@AEAV32@C@Z @537
    ?acceptsListener@ICUService@icu_58@@MEBACAEBVEventListener@2@@Z @538
    ?add@BytesTrieBuilder@icu_58@@QEAAAEAV12@VStringPiece@2@HAEAW4UErrorCode@@@Z @539
    ?add@UCharsTrieBuilder@icu_58@@QEAAAEAV12@AEBVUnicodeString@2@HAEAW4UErrorCode@@@Z @540
    ?add@UStringSet@icu_58@@QEAACAEBVUnicodeString@2@AEAW4UErrorCode@@@Z @541
    ?add@UnicodeSet@icu_58@@AEAAXPEBHHC@Z @542
    ?add@UnicodeSet@icu_58@@QEAAAEAV12@AEBVUnicodeString@2@@Z @543
    ?add@UnicodeSet@icu_58@@QEAAAEAV12@H@Z @544
    ?add@UnicodeSet@icu_58@@UEAAAEAV12@HH@Z @545
    ?addAll@UnicodeSet@icu_58@@QEAAAEAV12@AEBVUnicodeString@2@@Z @546
    ?addAll@UnicodeSet@icu_58@@UEAAAEAV12@AEBV12@@Z @547
    ?addArgDoublePart@MessagePattern@icu_58@@AEAAXNHHAEAW4UErrorCode@@@Z @548
    ?addCanonIterPropertyStarts@Normalizer2Impl@icu_58@@QEBAXPEBUUSetAdder@@AEAW4UErrorCode@@@Z @549
    ?addComposites@Normalizer2Impl@icu_58@@AEBAXPEBGAEAVUnicodeSet@2@@Z @550
    ?addElement@UVector32@icu_58@@QEAAXHAEAW4UErrorCode@@@Z @551
    ?addElement@UVector64@icu_58@@QEAAX_JAEAW4UErrorCode@@@Z @552
    ?addElement@UVector@icu_58@@QEAAXHAEAW4UErrorCode@@@Z @553
    ?addElement@UVector@icu_58@@QEAAXPEAXAEAW4UErrorCode@@@Z @554
    ?addLcccChars@Normalizer2Impl@icu_58@@QEBAXAEAVUnicodeSet@2@@Z @555
    ?addLimitPart@MessagePattern@icu_58@@AEAAXHW4UMessagePatternPartType@@HHHAEAW4UErrorCode@@@Z @556
    ?addListener@ICUNotifier@icu_58@@UEAAXPEBVEventListener@2@AEAW4UErrorCode@@@Z @557
    ?addMatchSetTo@UnicodeSet@icu_58@@UEBAXAEAV12@@Z @558
    ?addPart@MessagePattern@icu_58@@AEAAXW4UMessagePatternPartType@@HHHAEAW4UErrorCode@@@Z @559
    ?addPropertyStarts@Normalizer2Impl@icu_58@@QEBAXPEBUUSetAdder@@AEAW4UErrorCode@@@Z @560
    ?addRef@SharedObject@icu_58@@AEBAXC@Z @561
    ?addRef@SharedObject@icu_58@@QEBAXXZ @562
    ?addRef@UnicodeString@icu_58@@AEAAXXZ @563
    ?addRefWhileHoldingCacheLock@SharedObject@icu_58@@QEBAXXZ @564
    ?addSoftRef@SharedObject@icu_58@@QEBAXXZ @565
    ?adopt@UStringSet@icu_58@@QEAACPEAVUnicodeString@2@AEAW4UErrorCode@@@Z @566
    ?adoptText@RuleBasedBreakIterator@icu_58@@UEAAXPEAVCharacterIterator@2@@Z @567
    ?aliasInstead@?$MaybeStackArray@D$0CI@@icu_58@@QEAAXPEADH@Z @568
    ?allocate@UnicodeString@icu_58@@AEAACH@Z @569
    ?allocateStrings@UnicodeSet@icu_58@@AEAACAEAW4UErrorCode@@@Z @570
    ?append@BytesTrie@icu_58@@CAXAEAVByteSink@2@H@Z @571
    ?append@CharString@icu_58@@QEAAAEAV12@AEBV12@AEAW4UErrorCode@@@Z @572
    ?append@CharString@icu_58@@QEAAAEAV12@DAEAW4UErrorCode@@@Z @573
    ?append@CharString@icu_58@@QEAAAEAV12@PEBDHAEAW4UErrorCode@@@Z @574
    ?append@CharString@icu_58@@QEAAAEAV12@VStringPiece@2@AEAW4UErrorCode@@@Z @575
    ?append@FilteredNormalizer2@icu_58@@UEBAAEAVUnicodeString@2@AEAV32@AEBV32@AEAW4UErrorCode@@@Z @576
    ?append@ReorderingBuffer@icu_58@@QEAACHEAEAW4UErrorCode@@@Z @577
    ?append@ReorderingBuffer@icu_58@@QEAACPEB_WHEEAEAW4UErrorCode@@@Z @578
    ?append@UnicodeString@icu_58@@QEAAAEAV12@AEBV12@@Z @579
    ?append@UnicodeString@icu_58@@QEAAAEAV12@AEBV12@HH@Z @580
    ?append@UnicodeString@icu_58@@QEAAAEAV12@H@Z @581
    ?append@UnicodeString@icu_58@@QEAAAEAV12@PEB_WH@Z @582
    ?append@UnicodeString@icu_58@@QEAAAEAV12@PEB_WHH@Z @583
    ?append@UnicodeString@icu_58@@QEAAAEAV12@_W@Z @584
    ?appendBMP@ReorderingBuffer@icu_58@@QEAAC_WEAEAW4UErrorCode@@@Z @585
    ?appendCodePoint@Appendable@icu_58@@UEAACH@Z @586
    ?appendCodePoint@UnicodeStringAppendable@icu_58@@UEAACH@Z @587
    ?appendCodeUnit@UnicodeStringAppendable@icu_58@@UEAAC_W@Z @588
    ?appendInvariantChars@CharString@icu_58@@QEAAAEAV12@AEBVUnicodeString@2@AEAW4UErrorCode@@@Z @589
    ?appendNumber@ICU_Utility@icu_58@@SAAEAVUnicodeString@2@AEAV32@HHH@Z @590
    ?appendPathPart@CharString@icu_58@@QEAAAEAV12@VStringPiece@2@AEAW4UErrorCode@@@Z @591
    ?appendReducedApostrophes@MessageImpl@icu_58@@SAXAEBVUnicodeString@2@HHAEAV32@@Z @592
    ?appendString@Appendable@icu_58@@UEAACPEB_WH@Z @593
    ?appendString@UnicodeStringAppendable@icu_58@@UEAACPEB_WH@Z @594
    ?appendSubMessageWithoutSkipSyntax@MessageImpl@icu_58@@SAAEAVUnicodeString@2@AEBVMessagePattern@2@HAEAV32@@Z @595
    ?appendSupplementary@ReorderingBuffer@icu_58@@AEAACHEAEAW4UErrorCode@@@Z @596
    ?appendToRule@ICU_Utility@icu_58@@SAXAEAVUnicodeString@2@AEBV32@CC0@Z @597
    ?appendToRule@ICU_Utility@icu_58@@SAXAEAVUnicodeString@2@HCC0@Z @598
    ?appendToRule@ICU_Utility@icu_58@@SAXAEAVUnicodeString@2@PEBVUnicodeMatcher@2@C0@Z @599
    ?appendZeroCC@ReorderingBuffer@icu_58@@QEAACHAEAW4UErrorCode@@@Z @600
    ?appendZeroCC@ReorderingBuffer@icu_58@@QEAACPEB_W0AEAW4UErrorCode@@@Z @601
    ?applyFilter@UnicodeSet@icu_58@@AEAAXP6ACHPEAX@Z0HAEAW4UErrorCode@@@Z @602
    ?applyIntPropertyValue@UnicodeSet@icu_58@@QEAAAEAV12@W4UProperty@@HAEAW4UErrorCode@@@Z @603
    ?applyPattern@SimpleFormatter@icu_58@@QEAACAEBVUnicodeString@2@AEAW4UErrorCode@@@Z @604
    ?applyPattern@UnicodeSet@icu_58@@AEAAXAEAVRuleCharacterIterator@2@PEBVSymbolTable@2@AEAVUnicodeString@2@IP812@EAAAEAV12@H@ZAEAW4UErrorCode@@@Z @605
    ?applyPattern@UnicodeSet@icu_58@@QEAAAEAV12@AEBVUnicodeString@2@AEAVParsePosition@2@IPEBVSymbolTable@2@AEAW4UErrorCode@@@Z @606
    ?applyPattern@UnicodeSet@icu_58@@QEAAAEAV12@AEBVUnicodeString@2@AEAW4UErrorCode@@@Z @607
    ?applyPattern@UnicodeSet@icu_58@@QEAAAEAV12@AEBVUnicodeString@2@IPEBVSymbolTable@2@AEAW4UErrorCode@@@Z @608
    ?applyPatternIgnoreSpace@UnicodeSet@icu_58@@AEAAXAEBVUnicodeString@2@AEAVParsePosition@2@PEBVSymbolTable@2@AEAW4UErrorCode@@@Z @609
    ?applyPatternMinMaxArguments@SimpleFormatter@icu_58@@QEAACAEBVUnicodeString@2@HHAEAW4UErrorCode@@@Z @610
    ?applyPropertyAlias@UnicodeSet@icu_58@@QEAAAEAV12@AEBVUnicodeString@2@0AEAW4UErrorCode@@@Z @611
    ?applyPropertyPattern@UnicodeSet@icu_58@@AEAAAEAV12@AEBVUnicodeString@2@AEAVParsePosition@2@AEAW4UErrorCode@@@Z @612
    ?applyPropertyPattern@UnicodeSet@icu_58@@AEAAXAEAVRuleCharacterIterator@2@AEAVUnicodeString@2@AEAW4UErrorCode@@@Z @613
    ?assertSuccess@ErrorCode@icu_58@@QEBAXXZ @614
    ?assign@UVector32@icu_58@@QEAAXAEBV12@AEAW4UErrorCode@@@Z @615
    ?assign@UVector64@icu_58@@QEAAXAEBV12@AEAW4UErrorCode@@@Z @616
    ?assign@UVector@icu_58@@QEAAXAEBV12@P6AXPEATUElement@@1@ZAEAW4UErrorCode@@@Z @617
    ?autoEvictedCount@UnifiedCache@icu_58@@QEBA_JXZ @618
    ?autoQuoteApostropheDeep@MessagePattern@icu_58@@QEBA?AVUnicodeString@2@XZ @619
    ?branchNext@BytesTrie@icu_58@@AEAA?AW4UStringTrieResult@@PEBEHH@Z @620
    ?branchNext@Iterator@BytesTrie@icu_58@@AEAAPEBEPEBEHAEAW4UErrorCode@@@Z @621
    ?branchNext@Iterator@UCharsTrie@icu_58@@AEAAPEB_WPEB_WHAEAW4UErrorCode@@@Z @622
    ?branchNext@UCharsTrie@icu_58@@AEAA?AW4UStringTrieResult@@PEB_WHH@Z @623
    ?build@BytesTrieBuilder@icu_58@@QEAAPEAVBytesTrie@2@W4UStringTrieBuildOption@@AEAW4UErrorCode@@@Z @624
    ?build@SimpleFilteredBreakIteratorBuilder@icu_58@@UEAAPEAVBreakIterator@2@PEAV32@AEAW4UErrorCode@@@Z @625
    ?build@StringTrieBuilder@icu_58@@IEAAXW4UStringTrieBuildOption@@HAEAW4UErrorCode@@@Z @626
    ?build@UCharsTrieBuilder@icu_58@@QEAAPEAVUCharsTrie@2@W4UStringTrieBuildOption@@AEAW4UErrorCode@@@Z @627
    ?buildBytes@BytesTrieBuilder@icu_58@@AEAAXW4UStringTrieBuildOption@@AEAW4UErrorCode@@@Z @628
    ?buildInstance@BreakIterator@icu_58@@CAPEAV12@AEBVLocale@2@PEBDHAEAW4UErrorCode@@@Z @629
    ?buildStringPiece@BytesTrieBuilder@icu_58@@QEAA?AVStringPiece@2@W4UStringTrieBuildOption@@AEAW4UErrorCode@@@Z @630
    ?buildUChars@UCharsTrieBuilder@icu_58@@AEAAXW4UStringTrieBuildOption@@AEAW4UErrorCode@@@Z @631
    ?buildUnicodeString@UCharsTrieBuilder@icu_58@@QEAAAEAVUnicodeString@2@W4UStringTrieBuildOption@@AEAV32@AEAW4UErrorCode@@@Z @632
    ?canonicalID@ICUServiceKey@icu_58@@UEBAAEAVUnicodeString@2@AEAV32@@Z @633
    ?canonicalID@LocaleKey@icu_58@@UEBAAEAVUnicodeString@2@AEAV32@@Z @634
    ?canonicalLocale@LocaleKey@icu_58@@UEBAAEAVLocale@2@AEAV32@@Z @635
    ?canonicalLocaleString@LocaleUtility@icu_58@@SAAEAVUnicodeString@2@PEBV32@AEAV32@@Z @636
    ?caseCompare@UnicodeString@icu_58@@QEBACAEBV12@I@Z @637
    ?caseCompare@UnicodeString@icu_58@@QEBACHHAEBV12@HHI@Z @638
    ?caseCompare@UnicodeString@icu_58@@QEBACHHAEBV12@I@Z @639
    ?caseCompare@UnicodeString@icu_58@@QEBACHHPEB_WHHI@Z @640
    ?caseCompare@UnicodeString@icu_58@@QEBACHHPEB_WI@Z @641
    ?caseCompare@UnicodeString@icu_58@@QEBACPEB_WHI@Z @642
    ?caseCompareBetween@UnicodeString@icu_58@@QEBACHHAEBV12@HHI@Z @643
    ?caseMap@UnicodeString@icu_58@@AEAAAEAV12@PEBUUCaseMap@@P6AH0PEA_WHPEB_WHPEAW4UErrorCode@@@Z@Z @644
    ?char32At@Replaceable@icu_58@@QEBAHH@Z @645
    ?char32At@UnicodeString@icu_58@@QEBAHH@Z @646
    ?charAt@Replaceable@icu_58@@QEBA_WH@Z @647
    ?charAt@UnicodeSet@icu_58@@QEBAHH@Z @648
    ?charAt@UnicodeString@icu_58@@QEBA_WH@Z @649
    ?checkDictionary@RuleBasedBreakIterator@icu_58@@AEAAHHHC@Z @650
    ?cleanPieces@CanonicalIterator@icu_58@@AEAAXXZ @651
    ?clear@BytesTrieBuilder@icu_58@@QEAAAEAV12@XZ @652
    ?clear@CharString@icu_58@@QEAAAEAV12@XZ @653
    ?clear@MessagePattern@icu_58@@QEAAXXZ @654
    ?clear@StringPiece@icu_58@@QEAAXXZ @655
    ?clear@UCharsTrieBuilder@icu_58@@QEAAAEAV12@XZ @656
    ?clear@UnicodeSet@icu_58@@UEAAAEAV12@XZ @657
    ?clearBuffer@Normalizer@icu_58@@AEAAXXZ @658
    ?clearCaches@ICUService@icu_58@@MEAAXXZ @659
    ?clearPatternAndSetApostropheMode@MessagePattern@icu_58@@QEAAXW4UMessagePatternApostropheMode@@@Z @660
    ?clearPtr@UnifiedCache@icu_58@@CAXAEAPEBVSharedObject@2@@Z @661
    ?clearServiceCache@ICUService@icu_58@@IEAAXXZ @662
    ?clone@DateInterval@icu_58@@UEBAPEAV12@XZ @663
    ?clone@Locale@icu_58@@QEBAPEAV12@XZ @664
    ?clone@Normalizer@icu_58@@QEBAPEAV12@XZ @665
    ?clone@ParsePosition@icu_58@@QEBAPEAV12@XZ @666
    ?clone@Replaceable@icu_58@@UEBAPEAV12@XZ @667
    ?clone@ResourceBundle@icu_58@@QEBAPEAV12@XZ @668
    ?clone@RuleBasedBreakIterator@icu_58@@UEBAPEAVBreakIterator@2@XZ @669
    ?clone@StringCharacterIterator@icu_58@@UEBAPEAVCharacterIterator@2@XZ @670
    ?clone@StringEnumeration@icu_58@@UEBAPEAV12@XZ @671
    ?clone@UCharCharacterIterator@icu_58@@UEBAPEAVCharacterIterator@2@XZ @672
    ?clone@UnicodeSet@icu_58@@UEBAPEAVUnicodeFunctor@2@XZ @673
    ?clone@UnicodeString@icu_58@@UEBAPEAVReplaceable@2@XZ @674
    ?cloneArrayIfNeeded@UnicodeString@icu_58@@AEAACHHCPEAPEAHC@Z @675
    ?cloneAsThawed@UnicodeSet@icu_58@@QEBAPEAVUnicodeFunctor@2@XZ @676
    ?closeOver@UnicodeSet@icu_58@@QEAAAEAV12@H@Z @677
    ?combine@Normalizer2Impl@icu_58@@CAHPEBGH@Z @678
    ?compact@UnicodeSet@icu_58@@UEAAAEAV12@XZ @679
    ?compare@Normalizer@icu_58@@SAHAEBVUnicodeString@2@0IAEAW4UErrorCode@@@Z @680
    ?compare@UnicodeString@icu_58@@QEBACAEBV12@@Z @681
    ?compare@UnicodeString@icu_58@@QEBACHHAEBV12@@Z @682
    ?compare@UnicodeString@icu_58@@QEBACHHAEBV12@HH@Z @683
    ?compare@UnicodeString@icu_58@@QEBACHHPEB_W@Z @684
    ?compare@UnicodeString@icu_58@@QEBACHHPEB_WHH@Z @685
    ?compare@UnicodeString@icu_58@@QEBACPEB_WH@Z @686
    ?compareBetween@UnicodeString@icu_58@@QEBACHHAEBV12@HH@Z @687
    ?compareCodePointOrder@UnicodeString@icu_58@@QEBACAEBV12@@Z @688
    ?compareCodePointOrder@UnicodeString@icu_58@@QEBACHHAEBV12@@Z @689
    ?compareCodePointOrder@UnicodeString@icu_58@@QEBACHHAEBV12@HH@Z @690
    ?compareCodePointOrder@UnicodeString@icu_58@@QEBACHHPEB_W@Z @691
    ?compareCodePointOrder@UnicodeString@icu_58@@QEBACHHPEB_WHH@Z @692
    ?compareCodePointOrder@UnicodeString@icu_58@@QEBACPEB_WH@Z @693
    ?compareCodePointOrderBetween@UnicodeString@icu_58@@QEBACHHAEBV12@HH@Z @694
    ?complement@UnicodeSet@icu_58@@QEAAAEAV12@AEBVUnicodeString@2@@Z @695
    ?complement@UnicodeSet@icu_58@@QEAAAEAV12@H@Z @696
    ?complement@UnicodeSet@icu_58@@UEAAAEAV12@HH@Z @697
    ?complement@UnicodeSet@icu_58@@UEAAAEAV12@XZ @698
    ?complementAll@UnicodeSet@icu_58@@QEAAAEAV12@AEBVUnicodeString@2@@Z @699
    ?complementAll@UnicodeSet@icu_58@@UEAAAEAV12@AEBV12@@Z @700
    ?compose@Normalizer2Impl@icu_58@@QEBACPEB_W0CCAEAVReorderingBuffer@2@AEAW4UErrorCode@@@Z @701
    ?compose@Normalizer@icu_58@@SAXAEBVUnicodeString@2@CHAEAV32@AEAW4UErrorCode@@@Z @702
    ?composeAndAppend@Normalizer2Impl@icu_58@@QEBAXPEB_W0CCAEAVUnicodeString@2@AEAVReorderingBuffer@2@AEAW4UErrorCode@@@Z @703
    ?composePair@FilteredNormalizer2@icu_58@@UEBAHHH@Z @704
    ?composePair@Normalizer2@icu_58@@UEBAHHH@Z @705
    ?composePair@Normalizer2Impl@icu_58@@QEBAHHH@Z @706
    ?composeQuickCheck@Normalizer2Impl@icu_58@@QEBAPEB_WPEB_W0CPEAW4UNormalizationCheckResult@@@Z @707
    ?concatenate@Normalizer@icu_58@@SAAEAVUnicodeString@2@AEBV32@0AEAV32@W4UNormalizationMode@@HAEAW4UErrorCode@@@Z @708
    ?constructForLocale@ResourceBundle@icu_58@@AEAAXAEBVUnicodeString@2@AEBVLocale@2@AEAW4UErrorCode@@@Z @709
    ?contains@UStringSet@icu_58@@QEAACAEBVUnicodeString@2@@Z @710
    ?contains@UVector32@icu_58@@QEBACH@Z @711
    ?contains@UVector@icu_58@@QEBACH@Z @712
    ?contains@UVector@icu_58@@QEBACPEAX@Z @713
    ?contains@UnicodeSet@icu_58@@QEBACAEBVUnicodeString@2@@Z @714
    ?contains@UnicodeSet@icu_58@@UEBACH@Z @715
    ?contains@UnicodeSet@icu_58@@UEBACHH@Z @716
    ?containsAll@UVector32@icu_58@@QEBACAEBV12@@Z @717
    ?containsAll@UVector@icu_58@@QEBACAEBV12@@Z @718
    ?containsAll@UnicodeSet@icu_58@@QEBACAEBVUnicodeString@2@@Z @719
    ?containsAll@UnicodeSet@icu_58@@UEBACAEBV12@@Z @720
    ?containsNone@UVector32@icu_58@@QEBACAEBV12@@Z @721
    ?containsNone@UVector@icu_58@@QEBACAEBV12@@Z @722
    ?containsNone@UnicodeSet@icu_58@@QEBACAEBV12@@Z @723
    ?containsNone@UnicodeSet@icu_58@@QEBACAEBVUnicodeString@2@@Z @724
    ?containsNone@UnicodeSet@icu_58@@QEBACHH@Z @725
    ?containsSome@UnicodeSet@icu_58@@QEBACAEBV12@@Z @726
    ?containsSome@UnicodeSet@icu_58@@QEBACAEBVUnicodeString@2@@Z @727
    ?containsSome@UnicodeSet@icu_58@@QEBACHH@Z @728
    ?copy@UnicodeString@icu_58@@UEAAXHHH@Z @729
    ?copyFieldsFrom@UnicodeString@icu_58@@AEAAXAEAV12@C@Z @730
    ?copyFrom@CharString@icu_58@@QEAAAEAV12@AEBV12@AEAW4UErrorCode@@@Z @731
    ?copyFrom@UnicodeString@icu_58@@AEAAAEAV12@AEBV12@C@Z @732
    ?copyLowPrefixFromNulTerminated@Normalizer2Impl@icu_58@@AEBAPEB_WPEB_WHPEAVReorderingBuffer@2@AEAW4UErrorCode@@@Z @733
    ?copyPtr@UnifiedCache@icu_58@@CAXPEBVSharedObject@2@AEAPEBV32@@Z @734
    ?copyReorderableSuffixTo@ReorderingBuffer@icu_58@@QEBAXAEAVUnicodeString@2@@Z @735
    ?copyStorage@MessagePattern@icu_58@@AEAACAEBV12@AEAW4UErrorCode@@@Z @736
    ?count@Hashtable@icu_58@@QEBAHXZ @737
    ?count@UStringEnumeration@icu_58@@UEBAHAEAW4UErrorCode@@@Z @738
    ?countChar32@UnicodeString@icu_58@@QEBAHHH@Z @739
    ?countElementUnits@BytesTrieBuilder@icu_58@@EEBAHHHH@Z @740
    ?countElementUnits@UCharsTrieBuilder@icu_58@@EEBAHHHH@Z @741
    ?countFactories@ICUService@icu_58@@IEBAHXZ @742
    ?countParts@MessagePattern@icu_58@@QEBAHXZ @743
    ?create@LocaleKeyFactory@icu_58@@UEBAPEAVUObject@2@AEBVICUServiceKey@2@PEBVICUService@2@AEAW4UErrorCode@@@Z @744
    ?create@SimpleFactory@icu_58@@UEBAPEAVUObject@2@AEBVICUServiceKey@2@PEBVICUService@2@AEAW4UErrorCode@@@Z @745
    ?create@SimpleLocaleKeyFactory@icu_58@@UEBAPEAVUObject@2@AEBVICUServiceKey@2@PEBVICUService@2@AEAW4UErrorCode@@@Z @746
    ?create@StringPair@icu_58@@SAPEAV12@AEBVUnicodeString@2@0AEAW4UErrorCode@@@Z @747
    ?createBufferClone@RuleBasedBreakIterator@icu_58@@UEAAPEAVBreakIterator@2@PEAXAEAHAEAW4UErrorCode@@@Z @748
    ?createCanonical@Locale@icu_58@@SA?AV12@PEBD@Z @749
    ?createCharacterInstance@BreakIterator@icu_58@@SAPEAV12@AEBVLocale@2@AEAW4UErrorCode@@@Z @750
    ?createCompactBuilder@StringTrieBuilder@icu_58@@IEAAXHAEAW4UErrorCode@@@Z @751
    ?createFrom@UnicodeSet@icu_58@@SAPEAV12@AEBVUnicodeString@2@@Z @752
    ?createFromAll@UnicodeSet@icu_58@@SAPEAV12@AEBVUnicodeString@2@@Z @753
    ?createFromName@Locale@icu_58@@SA?AV12@PEBD@Z @754
    ?createInstance@BreakIterator@icu_58@@CAPEAV12@AEBVLocale@2@HAEAW4UErrorCode@@@Z @755
    ?createInstance@FilteredBreakIteratorBuilder@icu_58@@SAPEAV12@AEAW4UErrorCode@@@Z @756
    ?createInstance@FilteredBreakIteratorBuilder@icu_58@@SAPEAV12@AEBVLocale@2@AEAW4UErrorCode@@@Z @757
    ?createInstance@ListFormatter@icu_58@@SAPEAV12@AEAW4UErrorCode@@@Z @758
    ?createInstance@ListFormatter@icu_58@@SAPEAV12@AEBVLocale@2@AEAW4UErrorCode@@@Z @759
    ?createInstance@ListFormatter@icu_58@@SAPEAV12@AEBVLocale@2@PEBDAEAW4UErrorCode@@@Z @760
    ?createInstance@LocaleDisplayNames@icu_58@@SAPEAV12@AEBVLocale@2@@Z @761
    ?createInstance@LocaleDisplayNames@icu_58@@SAPEAV12@AEBVLocale@2@PEAW4UDisplayContext@@H@Z @762
    ?createInstance@LocaleDisplayNames@icu_58@@SAPEAV12@AEBVLocale@2@W4UDialectHandling@@@Z @763
    ?createKey@ICULocaleService@icu_58@@MEBAPEAVICUServiceKey@2@PEBVUnicodeString@2@AEAW4UErrorCode@@@Z @764
    ?createKey@ICULocaleService@icu_58@@MEBAPEAVICUServiceKey@2@PEBVUnicodeString@2@HAEAW4UErrorCode@@@Z @765
    ?createKey@ICUService@icu_58@@UEBAPEAVICUServiceKey@2@PEBVUnicodeString@2@AEAW4UErrorCode@@@Z @766
    ?createKeywords@Locale@icu_58@@QEBAPEAVStringEnumeration@2@AEAW4UErrorCode@@@Z @767
    ?createLineInstance@BreakIterator@icu_58@@SAPEAV12@AEBVLocale@2@AEAW4UErrorCode@@@Z @768
    ?createLinearMatchNode@BytesTrieBuilder@icu_58@@EEBAPEAVNode@StringTrieBuilder@2@HHHPEAV342@@Z @769
    ?createLinearMatchNode@UCharsTrieBuilder@icu_58@@EEBAPEAVNode@StringTrieBuilder@2@HHHPEAV342@@Z @770
    ?createSentenceInstance@BreakIterator@icu_58@@SAPEAV12@AEBVLocale@2@AEAW4UErrorCode@@@Z @771
    ?createSimpleFactory@ICUService@icu_58@@MEAAPEAVICUServiceFactory@2@PEAVUObject@2@AEBVUnicodeString@2@CAEAW4UErrorCode@@@Z @772
    ?createTitleInstance@BreakIterator@icu_58@@SAPEAV12@AEBVLocale@2@AEAW4UErrorCode@@@Z @773
    ?createUTS46Instance@IDNA@icu_58@@SAPEAV12@IAEAW4UErrorCode@@@Z @774
    ?createWithCanonicalFallback@LocaleKey@icu_58@@SAPEAV12@PEBVUnicodeString@2@0AEAW4UErrorCode@@@Z @775
    ?createWithCanonicalFallback@LocaleKey@icu_58@@SAPEAV12@PEBVUnicodeString@2@0HAEAW4UErrorCode@@@Z @776
    ?createWordInstance@BreakIterator@icu_58@@SAPEAV12@AEBVLocale@2@AEAW4UErrorCode@@@Z @777
    ?current32@UCharCharacterIterator@icu_58@@UEBAHXZ @778
    ?current@BytesTrie@icu_58@@QEBA?AW4UStringTrieResult@@XZ @779
    ?current@Normalizer@icu_58@@QEAAHXZ @780
    ?current@RuleBasedBreakIterator@icu_58@@UEBAHXZ @781
    ?current@UCharCharacterIterator@icu_58@@UEBA_WXZ @782
    ?current@UCharsTrie@icu_58@@QEBA?AW4UStringTrieResult@@XZ @783
    ?currentDescriptor@ICUServiceKey@icu_58@@UEBAAEAVUnicodeString@2@AEAV32@@Z @784
    ?currentDescriptor@LocaleKey@icu_58@@UEBAAEAVUnicodeString@2@AEAV32@@Z @785
    ?currentID@ICUServiceKey@icu_58@@UEBAAEAVUnicodeString@2@AEAV32@@Z @786
    ?currentID@LocaleKey@icu_58@@UEBAAEAVUnicodeString@2@AEAV32@@Z @787
    ?currentLocale@LocaleKey@icu_58@@UEBAAEAVLocale@2@AEAV32@@Z @788
    ?data@CharString@icu_58@@QEAAPEADXZ @789
    ?data@CharString@icu_58@@QEBAPEBDXZ @790
    ?data@StringPiece@icu_58@@QEBAPEBDXZ @791
    ?decompose@Hangul@icu_58@@SAHHQEA_W@Z @792
    ?decompose@Normalizer2Impl@icu_58@@AEBACHGAEAVReorderingBuffer@2@AEAW4UErrorCode@@@Z @793
    ?decompose@Normalizer2Impl@icu_58@@QEBAAEAVUnicodeString@2@AEBV32@AEAV32@AEAW4UErrorCode@@@Z @794
    ?decompose@Normalizer2Impl@icu_58@@QEBAPEB_WPEB_W0PEAVReorderingBuffer@2@AEAW4UErrorCode@@@Z @795
    ?decompose@Normalizer2Impl@icu_58@@QEBAXPEB_W0AEAVUnicodeString@2@HAEAW4UErrorCode@@@Z @796
    ?decompose@Normalizer@icu_58@@SAXAEBVUnicodeString@2@CHAEAV32@AEAW4UErrorCode@@@Z @797
    ?decomposeAndAppend@Normalizer2Impl@icu_58@@QEBAXPEB_W0CAEAVUnicodeString@2@AEAVReorderingBuffer@2@AEAW4UErrorCode@@@Z @798
    ?decomposeShort@Normalizer2Impl@icu_58@@AEBACPEB_W0AEAVReorderingBuffer@2@AEAW4UErrorCode@@@Z @799
    ?decrementItemsInUse@UnifiedCache@icu_58@@UEBAXXZ @800
    ?decrementItemsInUseWithLockingAndEviction@UnifiedCache@icu_58@@UEBAXXZ @801
    ?deleteCompactBuilder@StringTrieBuilder@icu_58@@IEAAXXZ @802
    ?deleteIfZeroRefCount@SharedObject@icu_58@@QEBAXXZ @803
    ?doAppend@UnicodeString@icu_58@@AEAAAEAV12@AEBV12@HH@Z @804
    ?doAppend@UnicodeString@icu_58@@AEAAAEAV12@PEB_WHH@Z @805
    ?doCaseCompare@UnicodeString@icu_58@@AEBACHHAEBV12@HHI@Z @806
    ?doCaseCompare@UnicodeString@icu_58@@AEBACHHPEB_WHHI@Z @807
    ?doCharAt@UnicodeString@icu_58@@AEBA_WH@Z @808
    ?doCodepageCreate@UnicodeString@icu_58@@AEAAXPEBDH0@Z @809
    ?doCodepageCreate@UnicodeString@icu_58@@AEAAXPEBDHPEAUUConverter@@AEAW4UErrorCode@@@Z @810
    ?doCompare@UnicodeString@icu_58@@AEBACHHAEBV12@HH@Z @811
    ?doCompare@UnicodeString@icu_58@@AEBACHHPEB_WHH@Z @812
    ?doCompareCodePointOrder@UnicodeString@icu_58@@AEBACHHAEBV12@HH@Z @813
    ?doCompareCodePointOrder@UnicodeString@icu_58@@AEBACHHPEB_WHH@Z @814
    ?doEquals@UnicodeString@icu_58@@AEBACAEBV12@H@Z @815
    ?doExtract@UnicodeString@icu_58@@AEBAHHHPEADHPEAUUConverter@@AEAW4UErrorCode@@@Z @816
    ?doExtract@UnicodeString@icu_58@@AEBAXHHAEAV12@@Z @817
    ?doExtract@UnicodeString@icu_58@@AEBAXHHPEA_WH@Z @818
    ?doHashCode@UnicodeString@icu_58@@AEBAHXZ @819
    ?doIndexOf@UnicodeString@icu_58@@AEBAHHHH@Z @820
    ?doIndexOf@UnicodeString@icu_58@@AEBAH_WHH@Z @821
    ?doLastIndexOf@UnicodeString@icu_58@@AEBAHHHH@Z @822
    ?doLastIndexOf@UnicodeString@icu_58@@AEBAH_WHH@Z @823
    ?doReplace@UnicodeString@icu_58@@AEAAAEAV12@HHAEBV12@HH@Z @824
    ?doReplace@UnicodeString@icu_58@@AEAAAEAV12@HHPEB_WHH@Z @825
    ?doReverse@UnicodeString@icu_58@@AEAAAEAV12@HH@Z @826
    ?elementAt@UVector@icu_58@@QEBAPEAXH@Z @827
    ?elementAti@UVector32@icu_58@@QEBAHH@Z @828
    ?elementAti@UVector64@icu_58@@QEBA_JH@Z @829
    ?elementAti@UVector@icu_58@@QEBAHH@Z @830
    ?empty@StringPiece@icu_58@@QEBACXZ @831
    ?empty@UStack@icu_58@@QEBACXZ @832
    ?empty@UVector32@icu_58@@QEBACXZ @833
    ?endIndex@CharacterIterator@icu_58@@QEBAHXZ @834
    ?endIndex@Normalizer@icu_58@@QEBAHXZ @835
    ?endsWith@UnicodeString@icu_58@@QEBACAEBV12@@Z @836
    ?endsWith@UnicodeString@icu_58@@QEBACAEBV12@HH@Z @837
    ?endsWith@UnicodeString@icu_58@@QEBACPEB_WH@Z @838
    ?endsWith@UnicodeString@icu_58@@QEBACPEB_WHH@Z @839
    ?ensureBufferCapacity@UnicodeSet@icu_58@@AEAAXHAEAW4UErrorCode@@@Z @840
    ?ensureCanonIterData@Normalizer2Impl@icu_58@@QEBACAEAW4UErrorCode@@@Z @841
    ?ensureCapacity@BytesTrieBuilder@icu_58@@AEAACH@Z @842
    ?ensureCapacity@CharString@icu_58@@AEAACHHAEAW4UErrorCode@@@Z @843
    ?ensureCapacity@UCharsTrieBuilder@icu_58@@AEAACH@Z @844
    ?ensureCapacity@UVector32@icu_58@@QEAACHAEAW4UErrorCode@@@Z @845
    ?ensureCapacity@UVector64@icu_58@@QEAACHAEAW4UErrorCode@@@Z @846
    ?ensureCapacity@UVector@icu_58@@QEAACHAEAW4UErrorCode@@@Z @847
    ?ensureCapacity@UnicodeSet@icu_58@@AEAAXHAEAW4UErrorCode@@@Z @848
    ?ensureCharsCapacity@StringEnumeration@icu_58@@IEAAXHAEAW4UErrorCode@@@Z @849
    ?ensureEndsWithFileSeparator@CharString@icu_58@@QEAAAEAV12@AEAW4UErrorCode@@@Z @850
    ?equalNodes@StringTrieBuilder@icu_58@@SACPEBX0@Z @851
    ?equals@Hashtable@icu_58@@QEBACAEBV12@@Z @852
    ?equals@ReorderingBuffer@icu_58@@QEBACPEB_W0@Z @853
    ?equals@UVector32@icu_58@@QEBACAEBV12@@Z @854
    ?equals@UVector@icu_58@@QEBACAEBV12@@Z @855
    ?errorName@ErrorCode@icu_58@@QEBAPEBDXZ @856
    ?escapeUnprintable@ICU_Utility@icu_58@@SACAEAVUnicodeString@2@H@Z @857
    ?exclusiveOr@UnicodeSet@icu_58@@AEAAXPEBHHC@Z @858
    ?expandCapacity@UVector32@icu_58@@QEAACHAEAW4UErrorCode@@@Z @859
    ?expandCapacity@UVector64@icu_58@@QEAACHAEAW4UErrorCode@@@Z @860
    ?extract@CanonicalIterator@icu_58@@AEAAPEAVHashtable@2@PEAV32@HPEB_WHHAEAW4UErrorCode@@@Z @861
    ?extract@UnicodeString@icu_58@@QEBAHHHPEADHW4EInvariant@12@@Z @862
    ?extract@UnicodeString@icu_58@@QEBAHHHPEADI@Z @863
    ?extract@UnicodeString@icu_58@@QEBAHHHPEADIPEBD@Z @864
    ?extract@UnicodeString@icu_58@@QEBAHHHPEADPEBD@Z @865
    ?extract@UnicodeString@icu_58@@QEBAHPEADHPEAUUConverter@@AEAW4UErrorCode@@@Z @866
    ?extract@UnicodeString@icu_58@@QEBAHPEA_WHAEAW4UErrorCode@@@Z @867
    ?extract@UnicodeString@icu_58@@QEBAXHHAEAV12@@Z @868
    ?extract@UnicodeString@icu_58@@QEBAXHHPEA_WH@Z @869
    ?extractBetween@UnicodeString@icu_58@@QEBAXHHPEA_WH@Z @870
    ?extractBetween@UnicodeString@icu_58@@UEBAXHHAEAV12@@Z @871
    ?fallback@ICUServiceKey@icu_58@@UEAACXZ @872
    ?fallback@LocaleKey@icu_58@@UEAACXZ @873
    ?fastCopyFrom@UnicodeString@icu_58@@QEAAAEAV12@AEBV12@@Z @874
    ?find@Hashtable@icu_58@@QEBAPEBUUHashElement@@AEBVUnicodeString@2@@Z @875
    ?findAndReplace@UnicodeString@icu_58@@QEAAAEAV12@AEBV12@0@Z @876
    ?findAndReplace@UnicodeString@icu_58@@QEAAAEAV12@HHAEBV12@0@Z @877
    ?findAndReplace@UnicodeString@icu_58@@QEAAAEAV12@HHAEBV12@HH0HH@Z @878
    ?findCodePoint@UnicodeSet@icu_58@@AEBAHH@Z @879
    ?findNextCompBoundary@Normalizer2Impl@icu_58@@AEBAPEB_WPEB_W0@Z @880
    ?findNextFCDBoundary@Normalizer2Impl@icu_58@@AEBAPEB_WPEB_W0@Z @881
    ?findPreviousCompBoundary@Normalizer2Impl@icu_58@@AEBAPEB_WPEB_W0@Z @882
    ?findPreviousFCDBoundary@Normalizer2Impl@icu_58@@AEBAPEB_WPEB_W0@Z @883
    ?findUniqueValue@BytesTrie@icu_58@@CACPEBECAEAH@Z @884
    ?findUniqueValue@UCharsTrie@icu_58@@CACPEB_WCAEAH@Z @885
    ?findUniqueValueFromBranch@BytesTrie@icu_58@@CAPEBEPEBEHCAEAH@Z @886
    ?findUniqueValueFromBranch@UCharsTrie@icu_58@@CAPEB_WPEB_WHCAEAH@Z @887
    ?first32@UCharCharacterIterator@icu_58@@UEAAHXZ @888
    ?first32PostInc@CharacterIterator@icu_58@@UEAAHXZ @889
    ?first32PostInc@UCharCharacterIterator@icu_58@@UEAAHXZ @890
    ?first@BytesTrie@icu_58@@QEAA?AW4UStringTrieResult@@H@Z @891
    ?first@Normalizer@icu_58@@QEAAHXZ @892
    ?first@RuleBasedBreakIterator@icu_58@@UEAAHXZ @893
    ?first@UCharCharacterIterator@icu_58@@UEAA_WXZ @894
    ?first@UCharsTrie@icu_58@@QEAA?AW4UStringTrieResult@@H@Z @895
    ?firstElement@UVector@icu_58@@QEBAPEAXXZ @896
    ?firstForCodePoint@UCharsTrie@icu_58@@QEAA?AW4UStringTrieResult@@H@Z @897
    ?firstPostInc@CharacterIterator@icu_58@@UEAA_WXZ @898
    ?firstPostInc@UCharCharacterIterator@icu_58@@UEAA_WXZ @899
    ?flush@UnifiedCache@icu_58@@QEBAXXZ @900
    ?foldCase@UnicodeString@icu_58@@QEAAAEAV12@I@Z @901
    ?following@RuleBasedBreakIterator@icu_58@@UEAAHH@Z @902
    ?format@ListFormatter@icu_58@@QEBAAEAVUnicodeString@2@QEBV32@HAEAV32@AEAW4UErrorCode@@@Z @903
    ?format@ListFormatter@icu_58@@QEBAAEAVUnicodeString@2@QEBV32@HAEAV32@HAEAHAEAW4UErrorCode@@@Z @904
    ?format@SimpleFormatter@icu_58@@CAAEAVUnicodeString@2@PEB_WHPEBQEBV32@AEAV32@PEBV32@CPEAHHAEAW4UErrorCode@@@Z @905
    ?format@SimpleFormatter@icu_58@@QEBAAEAVUnicodeString@2@AEBV32@00AEAV32@AEAW4UErrorCode@@@Z @906
    ?format@SimpleFormatter@icu_58@@QEBAAEAVUnicodeString@2@AEBV32@0AEAV32@AEAW4UErrorCode@@@Z @907
    ?format@SimpleFormatter@icu_58@@QEBAAEAVUnicodeString@2@AEBV32@AEAV32@AEAW4UErrorCode@@@Z @908
    ?formatAndAppend@SimpleFormatter@icu_58@@QEBAAEAVUnicodeString@2@PEBQEBV32@HAEAV32@PEAHHAEAW4UErrorCode@@@Z @909
    ?formatAndReplace@SimpleFormatter@icu_58@@QEBAAEAVUnicodeString@2@PEBQEBV32@HAEAV32@PEAHHAEAW4UErrorCode@@@Z @910
    ?freeze@UnicodeSet@icu_58@@QEAAPEAVUnicodeFunctor@2@XZ @911
    ?fromUEnumeration@UStringEnumeration@icu_58@@SAPEAV12@PEAUUEnumeration@@AEAW4UErrorCode@@@Z @912
    ?fromUSet@UnicodeSet@icu_58@@SAPEAV12@PEAUUSet@@@Z @913
    ?fromUSet@UnicodeSet@icu_58@@SAPEBV12@PEBUUSet@@@Z @914
    ?fromUTF32@UnicodeString@icu_58@@SA?AV12@PEBHH@Z @915
    ?fromUTF8@UnicodeString@icu_58@@SA?AV12@VStringPiece@2@@Z @916
    ?get@ErrorCode@icu_58@@QEBA?AW4UErrorCode@@XZ @917
    ?get@Hashtable@icu_58@@QEBAPEAXAEBVUnicodeString@2@@Z @918
    ?get@ICULocaleService@icu_58@@QEBAPEAVUObject@2@AEBVLocale@2@AEAW4UErrorCode@@@Z @919
    ?get@ICULocaleService@icu_58@@QEBAPEAVUObject@2@AEBVLocale@2@HAEAW4UErrorCode@@@Z @920
    ?get@ICULocaleService@icu_58@@QEBAPEAVUObject@2@AEBVLocale@2@HPEAV42@AEAW4UErrorCode@@@Z @921
    ?get@ICULocaleService@icu_58@@QEBAPEAVUObject@2@AEBVLocale@2@PEAV42@AEAW4UErrorCode@@@Z @922
    ?get@ICUService@icu_58@@QEBAPEAVUObject@2@AEBVUnicodeString@2@AEAW4UErrorCode@@@Z @923
    ?get@ICUService@icu_58@@QEBAPEAVUObject@2@AEBVUnicodeString@2@PEAV42@AEAW4UErrorCode@@@Z @924
    ?get@ResourceBundle@icu_58@@QEBA?AV12@HAEAW4UErrorCode@@@Z @925
    ?get@ResourceBundle@icu_58@@QEBA?AV12@PEBDAEAW4UErrorCode@@@Z @926
    ?getAlias@?$MaybeStackArray@D$0CI@@icu_58@@QEBAPEADXZ @927
    ?getAliasUnicodeString@ResourceValue@icu_58@@QEBA?AVUnicodeString@2@AEAW4UErrorCode@@@Z @928
    ?getApostropheMode@MessagePattern@icu_58@@QEBA?AW4UMessagePatternApostropheMode@@XZ @929
    ?getAppendBuffer@Appendable@icu_58@@UEAAPEA_WHHPEA_WHPEAH@Z @930
    ?getAppendBuffer@CharString@icu_58@@QEAAPEADHHAEAHAEAW4UErrorCode@@@Z @931
    ?getAppendBuffer@UnicodeStringAppendable@icu_58@@UEAAPEA_WHHPEA_WHPEAH@Z @932
    ?getArgumentLimit@SimpleFormatter@icu_58@@CAHPEB_WH@Z @933
    ?getArgumentLimit@SimpleFormatter@icu_58@@QEBAHXZ @934
    ?getArrayLimit@?$MaybeStackArray@D$0CI@@icu_58@@QEBAPEADXZ @935
    ?getArrayStart@UnicodeString@icu_58@@AEAAPEA_WXZ @936
    ?getArrayStart@UnicodeString@icu_58@@AEBAPEB_WXZ @937
    ?getAvailableLocaleNames@LocaleUtility@icu_58@@SAPEBVHashtable@2@AEBVUnicodeString@2@@Z @938
    ?getAvailableLocales@BreakIterator@icu_58@@SAPEAVStringEnumeration@2@XZ @939
    ?getAvailableLocales@BreakIterator@icu_58@@SAPEBVLocale@2@AEAH@Z @940
    ?getAvailableLocales@ICULocaleService@icu_58@@UEBAPEAVStringEnumeration@2@XZ @941
    ?getAvailableLocales@Locale@icu_58@@SAPEBV12@AEAH@Z @942
    ?getBaseName@Locale@icu_58@@QEBAPEBDXZ @943
    ?getBinary@ResourceBundle@icu_58@@QEBAPEBEAEAHAEAW4UErrorCode@@@Z @944
    ?getBinaryRules@RuleBasedBreakIterator@icu_58@@UEAAPEBEAEAI@Z @945
    ?getBuffer@UVector32@icu_58@@QEBAPEAHXZ @946
    ?getBuffer@UVector64@icu_58@@QEBAPEA_JXZ @947
    ?getBuffer@UnicodeString@icu_58@@QEAAPEA_WH@Z @948
    ?getBuffer@UnicodeString@icu_58@@QEBAPEB_WXZ @949
    ?getCC@Normalizer2Impl@icu_58@@QEBAEG@Z @950
    ?getCCFromNoNo@Normalizer2Impl@icu_58@@AEBAEG@Z @951
    ?getCCFromYesOrMaybe@Normalizer2Impl@icu_58@@SAEG@Z @952
    ?getCanada@Locale@icu_58@@SAAEBV12@XZ @953
    ?getCanadaFrench@Locale@icu_58@@SAAEBV12@XZ @954
    ?getCanonStartSet@Normalizer2Impl@icu_58@@AEBAAEBVUnicodeSet@2@H@Z @955
    ?getCanonStartSet@Normalizer2Impl@icu_58@@QEBACHAEAVUnicodeSet@2@@Z @956
    ?getCanonValue@Normalizer2Impl@icu_58@@AEBAHH@Z @957
    ?getCapacity@?$MaybeStackArray@D$0CI@@icu_58@@QEBAHXZ @958
    ?getCapacity@UnicodeString@icu_58@@QEBAHXZ @959
    ?getCategoryName@PluralMapBase@icu_58@@SAPEBDW4Category@12@@Z @960
    ?getChar32At@UnicodeString@icu_58@@MEBAHH@Z @961
    ?getChar32Limit@UnicodeString@icu_58@@QEBAHH@Z @962
    ?getChar32Start@UnicodeString@icu_58@@QEBAHH@Z @963
    ?getCharAt@UnicodeString@icu_58@@MEBA_WH@Z @964
    ?getChina@Locale@icu_58@@SAAEBV12@XZ @965
    ?getChinese@Locale@icu_58@@SAAEBV12@XZ @966
    ?getCodepoint@UnicodeSetIterator@icu_58@@QEBAHXZ @967
    ?getCodepointEnd@UnicodeSetIterator@icu_58@@QEBAHXZ @968
    ?getCombiningClass@FilteredNormalizer2@icu_58@@UEBAEH@Z @969
    ?getCombiningClass@Normalizer2@icu_58@@UEBAEH@Z @970
    ?getCompQuickCheck@Normalizer2Impl@icu_58@@QEBA?AW4UNormalizationCheckResult@@G@Z @971
    ?getCompositionsList@Normalizer2Impl@icu_58@@AEBAPEBGG@Z @972
    ?getCompositionsListForComposite@Normalizer2Impl@icu_58@@AEBAPEBGG@Z @973
    ?getCompositionsListForDecompYes@Normalizer2Impl@icu_58@@AEBAPEBGG@Z @974
    ?getCountry@Locale@icu_58@@QEBAPEBDXZ @975
    ?getDecomposition@FilteredNormalizer2@icu_58@@UEBACHAEAVUnicodeString@2@@Z @976
    ?getDecomposition@Normalizer2Impl@icu_58@@QEBAPEB_WHQEA_WAEAH@Z @977
    ?getDefault@Locale@icu_58@@SAAEBV12@XZ @978
    ?getDisplayCountry@Locale@icu_58@@QEBAAEAVUnicodeString@2@AEAV32@@Z @979
    ?getDisplayCountry@Locale@icu_58@@QEBAAEAVUnicodeString@2@AEBV12@AEAV32@@Z @980
    ?getDisplayLanguage@Locale@icu_58@@QEBAAEAVUnicodeString@2@AEAV32@@Z @981
    ?getDisplayLanguage@Locale@icu_58@@QEBAAEAVUnicodeString@2@AEBV12@AEAV32@@Z @982
    ?getDisplayName@BreakIterator@icu_58@@SAAEAVUnicodeString@2@AEBVLocale@2@0AEAV32@@Z @983
    ?getDisplayName@BreakIterator@icu_58@@SAAEAVUnicodeString@2@AEBVLocale@2@AEAV32@@Z @984
    ?getDisplayName@ICUService@icu_58@@QEBAAEAVUnicodeString@2@AEBV32@AEAV32@@Z @985
    ?getDisplayName@ICUService@icu_58@@QEBAAEAVUnicodeString@2@AEBV32@AEAV32@AEBVLocale@2@@Z @986
    ?getDisplayName@Locale@icu_58@@QEBAAEAVUnicodeString@2@AEAV32@@Z @987
    ?getDisplayName@Locale@icu_58@@QEBAAEAVUnicodeString@2@AEBV12@AEAV32@@Z @988
    ?getDisplayName@LocaleKeyFactory@icu_58@@UEBAAEAVUnicodeString@2@AEBV32@AEBVLocale@2@AEAV32@@Z @989
    ?getDisplayName@SimpleFactory@icu_58@@UEBAAEAVUnicodeString@2@AEBV32@AEBVLocale@2@AEAV32@@Z @990
    ?getDisplayNames@ICUService@icu_58@@QEBAAEAVUVector@2@AEAV32@AEAW4UErrorCode@@@Z @991
    ?getDisplayNames@ICUService@icu_58@@QEBAAEAVUVector@2@AEAV32@AEBVLocale@2@AEAW4UErrorCode@@@Z @992
    ?getDisplayNames@ICUService@icu_58@@QEBAAEAVUVector@2@AEAV32@AEBVLocale@2@PEBVUnicodeString@2@AEAW4UErrorCode@@@Z @993
    ?getDisplayScript@Locale@icu_58@@QEBAAEAVUnicodeString@2@AEAV32@@Z @994
    ?getDisplayScript@Locale@icu_58@@QEBAAEAVUnicodeString@2@AEBV12@AEAV32@@Z @995
    ?getDisplayVariant@Locale@icu_58@@QEBAAEAVUnicodeString@2@AEAV32@@Z @996
    ?getDisplayVariant@Locale@icu_58@@QEBAAEAVUnicodeString@2@AEBV12@AEAV32@@Z @997
    ?getDynamicClassID@CanonicalIterator@icu_58@@UEBAPEAXXZ @998
    ?getDynamicClassID@DateInterval@icu_58@@UEBAPEAXXZ @999
    ?getDynamicClassID@EventListener@icu_58@@UEBAPEAXXZ @1000
    ?getDynamicClassID@ICUResourceBundleFactory@icu_58@@UEBAPEAXXZ @1001
    ?getDynamicClassID@ICUServiceKey@icu_58@@UEBAPEAXXZ @1002
    ?getDynamicClassID@Locale@icu_58@@UEBAPEAXXZ @1003
    ?getDynamicClassID@LocaleKey@icu_58@@UEBAPEAXXZ @1004
    ?getDynamicClassID@LocaleKeyFactory@icu_58@@UEBAPEAXXZ @1005
    ?getDynamicClassID@Normalizer@icu_58@@UEBAPEAXXZ @1006
    ?getDynamicClassID@ParsePosition@icu_58@@UEBAPEAXXZ @1007
    ?getDynamicClassID@ResourceBundle@icu_58@@UEBAPEAXXZ @1008
    ?getDynamicClassID@RuleBasedBreakIterator@icu_58@@UEBAPEAXXZ @1009
    ?getDynamicClassID@ServiceListener@icu_58@@UEBAPEAXXZ @1010
    ?getDynamicClassID@SimpleFactory@icu_58@@UEBAPEAXXZ @1011
    ?getDynamicClassID@SimpleLocaleKeyFactory@icu_58@@UEBAPEAXXZ @1012
    ?getDynamicClassID@StringCharacterIterator@icu_58@@UEBAPEAXXZ @1013
    ?getDynamicClassID@UCharCharacterIterator@icu_58@@UEBAPEAXXZ @1014
    ?getDynamicClassID@UObject@icu_58@@UEBAPEAXXZ @1015
    ?getDynamicClassID@UStack@icu_58@@UEBAPEAXXZ @1016
    ?getDynamicClassID@UStringEnumeration@icu_58@@UEBAPEAXXZ @1017
    ?getDynamicClassID@UVector32@icu_58@@UEBAPEAXXZ @1018
    ?getDynamicClassID@UVector64@icu_58@@UEBAPEAXXZ @1019
    ?getDynamicClassID@UVector@icu_58@@UEBAPEAXXZ @1020
    ?getDynamicClassID@UnicodeSet@icu_58@@UEBAPEAXXZ @1021
    ?getDynamicClassID@UnicodeSetIterator@icu_58@@UEBAPEAXXZ @1022
    ?getDynamicClassID@UnicodeString@icu_58@@UEBAPEAXXZ @1023
    ?getElementStringLength@BytesTrieBuilder@icu_58@@EEBAHH@Z @1024
    ?getElementStringLength@UCharsTrieBuilder@icu_58@@EEBAHH@Z @1025
    ?getElementUnit@BytesTrieBuilder@icu_58@@EEBA_WHH@Z @1026
    ?getElementUnit@UCharsTrieBuilder@icu_58@@EEBA_WHH@Z @1027
    ?getElementValue@BytesTrieBuilder@icu_58@@EEBAHH@Z @1028
    ?getElementValue@UCharsTrieBuilder@icu_58@@EEBAHH@Z @1029
    ?getEnglish@Locale@icu_58@@SAAEBV12@XZ @1030
    ?getEquivalents2@CanonicalIterator@icu_58@@AEAAPEAVHashtable@2@PEAV32@PEB_WHAEAW4UErrorCode@@@Z @1031
    ?getEquivalents@CanonicalIterator@icu_58@@AEAAPEAVUnicodeString@2@AEBV32@AEAHAEAW4UErrorCode@@@Z @1032
    ?getErrorIndex@ParsePosition@icu_58@@QEBAHXZ @1033
    ?getErrors@IDNAInfo@icu_58@@QEBAIXZ @1034
    ?getFCCInstance@Normalizer2Factory@icu_58@@SAPEBVNormalizer2@2@AEAW4UErrorCode@@@Z @1035
    ?getFCD16@Normalizer2Impl@icu_58@@QEBAGH@Z @1036
    ?getFCD16FromBelow180@Normalizer2Impl@icu_58@@QEBAGH@Z @1037
    ?getFCD16FromNormData@Normalizer2Impl@icu_58@@QEBAGH@Z @1038
    ?getFCDInstance@Normalizer2Factory@icu_58@@SAPEBVNormalizer2@2@AEAW4UErrorCode@@@Z @1039
    ?getFrance@Locale@icu_58@@SAAEBV12@XZ @1040
    ?getFrench@Locale@icu_58@@SAAEBV12@XZ @1041
    ?getFromDate@DateInterval@icu_58@@QEBANXZ @1042
    ?getGerman@Locale@icu_58@@SAAEBV12@XZ @1043
    ?getGermany@Locale@icu_58@@SAAEBV12@XZ @1044
    ?getHardRefCount@SharedObject@icu_58@@QEBAHXZ @1045
    ?getID@ICUServiceKey@icu_58@@UEBAAEBVUnicodeString@2@XZ @1046
    ?getISO3Country@Locale@icu_58@@QEBAPEBDXZ @1047
    ?getISO3Language@Locale@icu_58@@QEBAPEBDXZ @1048
    ?getISOCountries@Locale@icu_58@@SAPEBQEBDXZ @1049
    ?getISOLanguages@Locale@icu_58@@SAPEBQEBDXZ @1050
    ?getImpl@Normalizer2Factory@icu_58@@SAPEBVNormalizer2Impl@2@PEBVNormalizer2@2@@Z @1051
    ?getInclusions@UnicodeSet@icu_58@@CAPEBV12@HAEAW4UErrorCode@@@Z @1052
    ?getIndex@CharacterIterator@icu_58@@QEBAHXZ @1053
    ?getIndex@Normalizer@icu_58@@QEBAHXZ @1054
    ?getIndex@ParsePosition@icu_58@@QEBAHXZ @1055
    ?getInstance@Normalizer2@icu_58@@SAPEBV12@PEBD0W4UNormalization2Mode@@AEAW4UErrorCode@@@Z @1056
    ?getInstance@Normalizer2Factory@icu_58@@SAPEBVNormalizer2@2@W4UNormalizationMode@@AEAW4UErrorCode@@@Z @1057
    ?getInstance@UnifiedCache@icu_58@@SAPEAV12@AEAW4UErrorCode@@@Z @1058
    ?getInt@ResourceBundle@icu_58@@QEBAHAEAW4UErrorCode@@@Z @1059
    ?getIntVector@ResourceBundle@icu_58@@QEBAPEBHAEAHAEAW4UErrorCode@@@Z @1060
    ?getItalian@Locale@icu_58@@SAAEBV12@XZ @1061
    ?getItaly@Locale@icu_58@@SAAEBV12@XZ @1062
    ?getJapan@Locale@icu_58@@SAAEBV12@XZ @1063
    ?getJapanese@Locale@icu_58@@SAAEBV12@XZ @1064
    ?getKey@ICUService@icu_58@@QEBAPEAVUObject@2@AEAVICUServiceKey@2@AEAW4UErrorCode@@@Z @1065
    ?getKey@ICUService@icu_58@@QEBAPEAVUObject@2@AEAVICUServiceKey@2@PEAVUnicodeString@2@PEBVICUServiceFactory@2@AEAW4UErrorCode@@@Z @1066
    ?getKey@ICUService@icu_58@@UEBAPEAVUObject@2@AEAVICUServiceKey@2@PEAVUnicodeString@2@AEAW4UErrorCode@@@Z @1067
    ?getKey@ResourceBundle@icu_58@@QEBAPEBDXZ @1068
    ?getKeyAndValue@ResourceTable@icu_58@@QEBACHAEAPEBDAEAVResourceValue@2@@Z @1069
    ?getKeywordValue@Locale@icu_58@@QEBAHPEBDPEADHAEAW4UErrorCode@@@Z @1070
    ?getKorea@Locale@icu_58@@SAAEBV12@XZ @1071
    ?getKorean@Locale@icu_58@@SAAEBV12@XZ @1072
    ?getLCID@Locale@icu_58@@QEBAIXZ @1073
    ?getLanguage@Locale@icu_58@@QEBAPEBDXZ @1074
    ?getLanguageBreakEngine@RuleBasedBreakIterator@icu_58@@AEAAPEBVLanguageBreakEngine@2@H@Z @1075
    ?getLastCC@ReorderingBuffer@icu_58@@QEBAEXZ @1076
    ?getLength@CharacterIterator@icu_58@@QEBAHXZ @1077
    ?getLength@UnicodeString@icu_58@@MEBAHXZ @1078
    ?getLimit@ReorderingBuffer@icu_58@@QEAAPEA_WXZ @1079
    ?getLimitOfLinearMatch@BytesTrieBuilder@icu_58@@EEBAHHHH@Z @1080
    ?getLimitOfLinearMatch@UCharsTrieBuilder@icu_58@@EEBAHHHH@Z @1081
    ?getLimitPartIndex@MessagePattern@icu_58@@QEBAHH@Z @1082
    ?getListFormatInternal@ListFormatter@icu_58@@CAPEBUListFormatInternal@2@AEBVLocale@2@PEBDAEAW4UErrorCode@@@Z @1083
    ?getLocale@BreakIterator@icu_58@@QEBA?AVLocale@2@W4ULocDataLocaleType@@AEAW4UErrorCode@@@Z @1084
    ?getLocale@Locale@icu_58@@CAAEBV12@H@Z @1085
    ?getLocale@LocaleBased@icu_58@@QEBA?AVLocale@2@W4ULocDataLocaleType@@AEAW4UErrorCode@@@Z @1086
    ?getLocale@ResourceBundle@icu_58@@QEBA?BVLocale@2@W4ULocDataLocaleType@@AEAW4UErrorCode@@@Z @1087
    ?getLocale@ResourceBundle@icu_58@@QEBAAEBVLocale@2@XZ @1088
    ?getLocaleCache@Locale@icu_58@@CAPEAV12@XZ @1089
    ?getLocaleID@BreakIterator@icu_58@@QEBAPEBDW4ULocDataLocaleType@@AEAW4UErrorCode@@@Z @1090
    ?getLocaleID@LocaleBased@icu_58@@QEBAPEBDW4ULocDataLocaleType@@AEAW4UErrorCode@@@Z @1091
    ?getMapping@Normalizer2Impl@icu_58@@AEBAPEBGG@Z @1092
    ?getMaxBranchLinearSubNodeLength@BytesTrieBuilder@icu_58@@EEBAHXZ @1093
    ?getMaxBranchLinearSubNodeLength@UCharsTrieBuilder@icu_58@@EEBAHXZ @1094
    ?getMaxLinearMatchLength@BytesTrieBuilder@icu_58@@EEBAHXZ @1095
    ?getMaxLinearMatchLength@UCharsTrieBuilder@icu_58@@EEBAHXZ @1096
    ?getMinLinearMatch@BytesTrieBuilder@icu_58@@EEBAHXZ @1097
    ?getMinLinearMatch@UCharsTrieBuilder@icu_58@@EEBAHXZ @1098
    ?getNFCImpl@Normalizer2Factory@icu_58@@SAPEBVNormalizer2Impl@2@AEAW4UErrorCode@@@Z @1099
    ?getNFCInstance@Normalizer2@icu_58@@SAPEBV12@AEAW4UErrorCode@@@Z @1100
    ?getNFDInstance@Normalizer2@icu_58@@SAPEBV12@AEAW4UErrorCode@@@Z @1101
    ?getNFKCCasefoldInstance@Normalizer2@icu_58@@SAPEBV12@AEAW4UErrorCode@@@Z @1102
    ?getNFKCImpl@Normalizer2Factory@icu_58@@SAPEBVNormalizer2Impl@2@AEAW4UErrorCode@@@Z @1103
    ?getNFKCInstance@Normalizer2@icu_58@@SAPEBV12@AEAW4UErrorCode@@@Z @1104
    ?getNFKC_CFImpl@Normalizer2Factory@icu_58@@SAPEBVNormalizer2Impl@2@AEAW4UErrorCode@@@Z @1105
    ?getNFKDInstance@Normalizer2@icu_58@@SAPEBV12@AEAW4UErrorCode@@@Z @1106
    ?getName@ICUService@icu_58@@QEBAAEAVUnicodeString@2@AEAV32@@Z @1107
    ?getName@Locale@icu_58@@QEBAPEBDXZ @1108
    ?getName@ResourceBundle@icu_58@@QEBAPEBDXZ @1109
    ?getNext@ResourceBundle@icu_58@@QEAA?AV12@AEAW4UErrorCode@@@Z @1110
    ?getNextBranchBytes@BytesTrie@icu_58@@CAXPEBEHAEAVByteSink@2@@Z @1111
    ?getNextBranchUChars@UCharsTrie@icu_58@@CAXPEB_WHAEAVAppendable@2@@Z @1112
    ?getNextBytes@BytesTrie@icu_58@@QEBAHAEAVByteSink@2@@Z @1113
    ?getNextString@ResourceBundle@icu_58@@QEAA?AVUnicodeString@2@AEAW4UErrorCode@@@Z @1114
    ?getNextString@ResourceBundle@icu_58@@QEAA?AVUnicodeString@2@PEAPEBDAEAW4UErrorCode@@@Z @1115
    ?getNextUChars@UCharsTrie@icu_58@@QEBAHAEAVAppendable@2@@Z @1116
    ?getNoopInstance@Normalizer2Factory@icu_58@@SAPEBVNormalizer2@2@AEAW4UErrorCode@@@Z @1117
    ?getNorm16@Normalizer2Impl@icu_58@@QEBAGH@Z @1118
    ?getNormTrie@Normalizer2Impl@icu_58@@QEBAPEBUUTrie2@@XZ @1119
    ?getNumericValue@MessagePattern@icu_58@@QEBANAEBVPart@12@@Z @1120
    ?getOption@Normalizer@icu_58@@QEBACH@Z @1121
    ?getPRC@Locale@icu_58@@SAAEBV12@XZ @1122
    ?getPart@MessagePattern@icu_58@@QEBAAEBVPart@12@H@Z @1123
    ?getPartType@MessagePattern@icu_58@@QEBA?AW4UMessagePatternPartType@@H@Z @1124
    ?getPatternIndex@MessagePattern@icu_58@@QEBAHH@Z @1125
    ?getPatternString@MessagePattern@icu_58@@QEBAAEBVUnicodeString@2@XZ @1126
    ?getPluralOffset@MessagePattern@icu_58@@QEBANH@Z @1127
    ?getRangeCount@UnicodeSet@icu_58@@UEBAHXZ @1128
    ?getRangeEnd@UnicodeSet@icu_58@@UEBAHH@Z @1129
    ?getRangeStart@UnicodeSet@icu_58@@UEBAHH@Z @1130
    ?getRawDecomposition@FilteredNormalizer2@icu_58@@UEBACHAEAVUnicodeString@2@@Z @1131
    ?getRawDecomposition@Hangul@icu_58@@SAXHQEA_W@Z @1132
    ?getRawDecomposition@Normalizer2@icu_58@@UEBACHAEAVUnicodeString@2@@Z @1133
    ?getRawDecomposition@Normalizer2Impl@icu_58@@QEBAPEB_WHQEA_WAEAH@Z @1134
    ?getRefCount@SharedObject@icu_58@@QEBAHXZ @1135
    ?getRoot@Locale@icu_58@@SAAEBV12@XZ @1136
    ?getRuleStatus@BreakIterator@icu_58@@UEBAHXZ @1137
    ?getRuleStatus@RuleBasedBreakIterator@icu_58@@UEBAHXZ @1138
    ?getRuleStatusVec@BreakIterator@icu_58@@UEAAHPEAHHAEAW4UErrorCode@@@Z @1139
    ?getRuleStatusVec@RuleBasedBreakIterator@icu_58@@UEAAHPEAHHAEAW4UErrorCode@@@Z @1140
    ?getRules@RuleBasedBreakIterator@icu_58@@UEBAAEBVUnicodeString@2@XZ @1141
    ?getScript@Locale@icu_58@@QEBAPEBDXZ @1142
    ?getShortLength@UnicodeString@icu_58@@AEBAHXZ @1143
    ?getSimplifiedChinese@Locale@icu_58@@SAAEBV12@XZ @1144
    ?getSingleCP@UnicodeSet@icu_58@@CAHAEBVUnicodeString@2@@Z @1145
    ?getSize@ResourceArray@icu_58@@QEBAHXZ @1146
    ?getSize@ResourceBundle@icu_58@@QEBAHXZ @1147
    ?getSize@ResourceTable@icu_58@@QEBAHXZ @1148
    ?getSoftRefCount@SharedObject@icu_58@@QEBAHXZ @1149
    ?getSource@CanonicalIterator@icu_58@@QEAA?AVUnicodeString@2@XZ @1150
    ?getStart@ReorderingBuffer@icu_58@@QEAAPEA_WXZ @1151
    ?getStaticClassID@CanonicalIterator@icu_58@@SAPEAXXZ @1152
    ?getStaticClassID@DateInterval@icu_58@@SAPEAXXZ @1153
    ?getStaticClassID@EventListener@icu_58@@SAPEAXXZ @1154
    ?getStaticClassID@ICUResourceBundleFactory@icu_58@@SAPEAXXZ @1155
    ?getStaticClassID@ICUServiceKey@icu_58@@SAPEAXXZ @1156
    ?getStaticClassID@Locale@icu_58@@SAPEAXXZ @1157
    ?getStaticClassID@LocaleKey@icu_58@@SAPEAXXZ @1158
    ?getStaticClassID@LocaleKeyFactory@icu_58@@SAPEAXXZ @1159
    ?getStaticClassID@Normalizer@icu_58@@SAPEAXXZ @1160
    ?getStaticClassID@ParsePosition@icu_58@@SAPEAXXZ @1161
    ?getStaticClassID@ResourceBundle@icu_58@@SAPEAXXZ @1162
    ?getStaticClassID@RuleBasedBreakIterator@icu_58@@SAPEAXXZ @1163
    ?getStaticClassID@ServiceListener@icu_58@@SAPEAXXZ @1164
    ?getStaticClassID@SimpleFactory@icu_58@@SAPEAXXZ @1165
    ?getStaticClassID@SimpleLocaleKeyFactory@icu_58@@SAPEAXXZ @1166
    ?getStaticClassID@StringCharacterIterator@icu_58@@SAPEAXXZ @1167
    ?getStaticClassID@UCharCharacterIterator@icu_58@@SAPEAXXZ @1168
    ?getStaticClassID@UStack@icu_58@@SAPEAXXZ @1169
    ?getStaticClassID@UStringEnumeration@icu_58@@SAPEAXXZ @1170
    ?getStaticClassID@UVector32@icu_58@@SAPEAXXZ @1171
    ?getStaticClassID@UVector64@icu_58@@SAPEAXXZ @1172
    ?getStaticClassID@UVector@icu_58@@SAPEAXXZ @1173
    ?getStaticClassID@UnicodeFilter@icu_58@@SAPEAXXZ @1174
    ?getStaticClassID@UnicodeFunctor@icu_58@@SAPEAXXZ @1175
    ?getStaticClassID@UnicodeSet@icu_58@@SAPEAXXZ @1176
    ?getStaticClassID@UnicodeSetIterator@icu_58@@SAPEAXXZ @1177
    ?getStaticClassID@UnicodeString@icu_58@@SAPEAXXZ @1178
    ?getString@Iterator@BytesTrie@icu_58@@QEBA?AVStringPiece@3@XZ @1179
    ?getString@Iterator@UCharsTrie@icu_58@@QEBAAEBVUnicodeString@3@XZ @1180
    ?getString@ResourceBundle@icu_58@@QEBA?AVUnicodeString@2@AEAW4UErrorCode@@@Z @1181
    ?getString@UnicodeSet@icu_58@@AEBAPEBVUnicodeString@2@H@Z @1182
    ?getString@UnicodeSetIterator@icu_58@@QEAAAEBVUnicodeString@2@XZ @1183
    ?getStringAt@UStringSet@icu_58@@QEBAPEBVUnicodeString@2@H@Z @1184
    ?getStringCount@UnicodeSet@icu_58@@AEBAHXZ @1185
    ?getStringEx@ResourceBundle@icu_58@@QEBA?AVUnicodeString@2@HAEAW4UErrorCode@@@Z @1186
    ?getStringEx@ResourceBundle@icu_58@@QEBA?AVUnicodeString@2@PEBDAEAW4UErrorCode@@@Z @1187
    ?getSubstring@MessagePattern@icu_58@@QEBA?AVUnicodeString@2@AEBVPart@12@@Z @1188
    ?getSupportedIDs@ICUResourceBundleFactory@icu_58@@MEBAPEBVHashtable@2@AEAW4UErrorCode@@@Z @1189
    ?getSupportedIDs@LocaleKeyFactory@icu_58@@MEBAPEBVHashtable@2@AEAW4UErrorCode@@@Z @1190
    ?getTaiwan@Locale@icu_58@@SAAEBV12@XZ @1191
    ?getTerminatedBuffer@UnicodeString@icu_58@@QEAAPEB_WXZ @1192
    ?getText@Normalizer@icu_58@@QEAAXAEAVUnicodeString@2@@Z @1193
    ?getText@RuleBasedBreakIterator@icu_58@@UEBAAEAVCharacterIterator@2@XZ @1194
    ?getText@StringCharacterIterator@icu_58@@UEAAXAEAVUnicodeString@2@@Z @1195
    ?getText@UCharCharacterIterator@icu_58@@UEAAXAEAVUnicodeString@2@@Z @1196
    ?getTextWithNoArguments@SimpleFormatter@icu_58@@CA?AVUnicodeString@2@PEB_WH@Z @1197
    ?getTextWithNoArguments@SimpleFormatter@icu_58@@QEBA?AVUnicodeString@2@XZ @1198
    ?getTimestamp@ICUService@icu_58@@IEBAHXZ @1199
    ?getToDate@DateInterval@icu_58@@QEBANXZ @1200
    ?getTraditionalChinese@Locale@icu_58@@SAAEBV12@XZ @1201
    ?getTrailCCFromCompYesAndZeroCC@Normalizer2Impl@icu_58@@AEBAEPEB_W0@Z @1202
    ?getType@BytesDictionaryMatcher@icu_58@@UEBAHXZ @1203
    ?getType@ResourceBundle@icu_58@@QEBA?AW4UResType@@XZ @1204
    ?getType@UCharsDictionaryMatcher@icu_58@@UEBAHXZ @1205
    ?getUInt@ResourceBundle@icu_58@@QEBAIAEAW4UErrorCode@@@Z @1206
    ?getUK@Locale@icu_58@@SAAEBV12@XZ @1207
    ?getUMode@Normalizer@icu_58@@QEBA?AW4UNormalizationMode@@XZ @1208
    ?getUS@Locale@icu_58@@SAAEBV12@XZ @1209
    ?getUText@RuleBasedBreakIterator@icu_58@@UEBAPEAUUText@@PEAU3@AEAW4UErrorCode@@@Z @1210
    ?getUnicodeString@ResourceValue@icu_58@@QEBA?AVUnicodeString@2@AEAW4UErrorCode@@@Z @1211
    ?getValue@BytesTrie@icu_58@@QEBAHXZ @1212
    ?getValue@Iterator@BytesTrie@icu_58@@QEBAHXZ @1213
    ?getValue@Iterator@UCharsTrie@icu_58@@QEBAHXZ @1214
    ?getValue@ResourceArray@icu_58@@QEBACHAEAVResourceValue@2@@Z @1215
    ?getValue@UCharsTrie@icu_58@@QEBAHXZ @1216
    ?getVariant@Locale@icu_58@@QEBAPEBDXZ @1217
    ?getVersion@ResourceBundle@icu_58@@QEBAXQEAE@Z @1218
    ?getVersionNumber@ResourceBundle@icu_58@@QEBAPEBDXZ @1219
    ?getVisibleIDMap@ICUService@icu_58@@IEBAPEBVHashtable@2@AEAW4UErrorCode@@@Z @1220
    ?getVisibleIDs@ICUService@icu_58@@QEBAAEAVUVector@2@AEAV32@AEAW4UErrorCode@@@Z @1221
    ?getVisibleIDs@ICUService@icu_58@@QEBAAEAVUVector@2@AEAV32@PEBVUnicodeString@2@AEAW4UErrorCode@@@Z @1222
    ?getWithFallback@ResourceBundle@icu_58@@QEAA?AV12@PEBDAEAW4UErrorCode@@@Z @1223
    ?geti@Hashtable@icu_58@@QEBAHAEBVUnicodeString@2@@Z @1224
    ?handleCreate@ICUResourceBundleFactory@icu_58@@MEBAPEAVUObject@2@AEBVLocale@2@HPEBVICUService@2@AEAW4UErrorCode@@@Z @1225
    ?handleCreate@LocaleKeyFactory@icu_58@@MEBAPEAVUObject@2@AEBVLocale@2@HPEBVICUService@2@AEAW4UErrorCode@@@Z @1226
    ?handleDefault@ICUService@icu_58@@MEBAPEAVUObject@2@AEBVICUServiceKey@2@PEAVUnicodeString@2@AEAW4UErrorCode@@@Z @1227
    ?handleFailure@ErrorCode@icu_58@@MEBAXXZ @1228
    ?handleNext@RuleBasedBreakIterator@icu_58@@AEAAHPEBURBBIStateTable@2@@Z @1229
    ?handlePrevious@RuleBasedBreakIterator@icu_58@@AEAAHPEBURBBIStateTable@2@@Z @1230
    ?handleReplaceBetween@UnicodeString@icu_58@@UEAAXHHAEBV12@@Z @1231
    ?handlesKey@LocaleKeyFactory@icu_58@@MEBACAEBVICUServiceKey@2@AEAW4UErrorCode@@@Z @1232
    ?hasBoundaryAfter@FilteredNormalizer2@icu_58@@UEBACH@Z @1233
    ?hasBoundaryBefore@FilteredNormalizer2@icu_58@@UEBACH@Z @1234
    ?hasCompBoundaryAfter@Normalizer2Impl@icu_58@@QEBACHCC@Z @1235
    ?hasCompBoundaryBefore@Normalizer2Impl@icu_58@@AEBACHG@Z @1236
    ?hasCompBoundaryBefore@Normalizer2Impl@icu_58@@QEBACH@Z @1237
    ?hasDecompBoundary@Normalizer2Impl@icu_58@@QEBACHC@Z @1238
    ?hasErrors@IDNAInfo@icu_58@@QEBACXZ @1239
    ?hasFCDBoundaryAfter@Normalizer2Impl@icu_58@@QEBACH@Z @1240
    ?hasFCDBoundaryBefore@Normalizer2Impl@icu_58@@QEBACH@Z @1241
    ?hasHardReferences@SharedObject@icu_58@@QEBACXZ @1242
    ?hasMetaData@Replaceable@icu_58@@UEBACXZ @1243
    ?hasMetaData@UnicodeString@icu_58@@UEBACXZ @1244
    ?hasMoreChar32Than@UnicodeString@icu_58@@QEBACHHH@Z @1245
    ?hasNamedArguments@MessagePattern@icu_58@@QEBACXZ @1246
    ?hasNext@Iterator@BytesTrie@icu_58@@QEBACXZ @1247
    ?hasNext@Iterator@UCharsTrie@icu_58@@QEBACXZ @1248
    ?hasNext@ResourceBundle@icu_58@@QEBACXZ @1249
    ?hasNext@UCharCharacterIterator@icu_58@@UEAACXZ @1250
    ?hasNumberedArguments@MessagePattern@icu_58@@QEBACXZ @1251
    ?hasPrevious@UCharCharacterIterator@icu_58@@UEAACXZ @1252
    ?hasShortLength@UnicodeString@icu_58@@AEBACXZ @1253
    ?hasUniqueValue@BytesTrie@icu_58@@QEBACAEAH@Z @1254
    ?hasUniqueValue@UCharsTrie@icu_58@@QEBACAEAH@Z @1255
    ?hashCode@Locale@icu_58@@QEBAHXZ @1256
    ?hashCode@MessagePattern@icu_58@@QEBAHXZ @1257
    ?hashCode@Normalizer@icu_58@@QEBAHXZ @1258
    ?hashCode@RuleBasedBreakIterator@icu_58@@UEBAHXZ @1259
    ?hashCode@UCharCharacterIterator@icu_58@@UEBAHXZ @1260
    ?hashCode@UnicodeSet@icu_58@@UEBAHXZ @1261
    ?hashCode@UnicodeString@icu_58@@QEBAHXZ @1262
    ?hashNode@StringTrieBuilder@icu_58@@SACPEBX@Z @1263
    ?inMessageFormatPattern@MessagePattern@icu_58@@AEAACH@Z @1264
    ?inTopLevelChoiceMessage@MessagePattern@icu_58@@AEAACHW4UMessagePatternArgType@@@Z @1265
    ?incrementItemsInUse@UnifiedCache@icu_58@@UEBAXXZ @1266
    ?indexOf@UVector32@icu_58@@QEBAHHH@Z @1267
    ?indexOf@UVector@icu_58@@AEBAHTUElement@@HC@Z @1268
    ?indexOf@UVector@icu_58@@QEBAHHH@Z @1269
    ?indexOf@UVector@icu_58@@QEBAHPEAXH@Z @1270
    ?indexOf@UnicodeSet@icu_58@@QEBAHH@Z @1271
    ?indexOf@UnicodeString@icu_58@@QEBAHAEBV12@@Z @1272
    ?indexOf@UnicodeString@icu_58@@QEBAHAEBV12@H@Z @1273
    ?indexOf@UnicodeString@icu_58@@QEBAHAEBV12@HH@Z @1274
    ?indexOf@UnicodeString@icu_58@@QEBAHAEBV12@HHHH@Z @1275
    ?indexOf@UnicodeString@icu_58@@QEBAHH@Z @1276
    ?indexOf@UnicodeString@icu_58@@QEBAHHH@Z @1277
    ?indexOf@UnicodeString@icu_58@@QEBAHHHH@Z @1278
    ?indexOf@UnicodeString@icu_58@@QEBAHPEB_WHH@Z @1279
    ?indexOf@UnicodeString@icu_58@@QEBAHPEB_WHHH@Z @1280
    ?indexOf@UnicodeString@icu_58@@QEBAHPEB_WHHHH@Z @1281
    ?indexOf@UnicodeString@icu_58@@QEBAH_W@Z @1282
    ?indexOf@UnicodeString@icu_58@@QEBAH_WH@Z @1283
    ?indexOf@UnicodeString@icu_58@@QEBAH_WHH@Z @1284
    ?indexOfElementWithNextUnit@BytesTrieBuilder@icu_58@@EEBAHHH_W@Z @1285
    ?indexOfElementWithNextUnit@UCharsTrieBuilder@icu_58@@EEBAHHH_W@Z @1286
    ?init@Hashtable@icu_58@@AEAAXP6AHTUElement@@@ZP6AC00@Z2AEAW4UErrorCode@@@Z @1287
    ?init@Locale@icu_58@@AEAAAEAV12@PEBDC@Z @1288
    ?init@MessagePattern@icu_58@@AEAACAEAW4UErrorCode@@@Z @1289
    ?init@Normalizer2Impl@icu_58@@QEAAXPEBHPEBUUTrie2@@PEBGPEBE@Z @1290
    ?init@Normalizer@icu_58@@AEAAXXZ @1291
    ?init@ReorderingBuffer@icu_58@@QEAACHAEAW4UErrorCode@@@Z @1292
    ?init@RuleBasedBreakIterator@icu_58@@AEAAXXZ @1293
    ?initBaseName@Locale@icu_58@@AEAAXAEAW4UErrorCode@@@Z @1294
    ?initLocaleFromName@LocaleUtility@icu_58@@SAAEAVLocale@2@AEBVUnicodeString@2@AEAV32@@Z @1295
    ?initNameFromLocale@LocaleUtility@icu_58@@SAAEAVUnicodeString@2@AEBVLocale@2@AEAV32@@Z @1296
    ?initializeHash@ListFormatter@icu_58@@CAXAEAW4UErrorCode@@@Z @1297
    ?insert@ReorderingBuffer@icu_58@@AEAAXHE@Z @1298
    ?insert@UnicodeString@icu_58@@QEAAAEAV12@HAEBV12@@Z @1299
    ?insert@UnicodeString@icu_58@@QEAAAEAV12@HAEBV12@HH@Z @1300
    ?insert@UnicodeString@icu_58@@QEAAAEAV12@HH@Z @1301
    ?insert@UnicodeString@icu_58@@QEAAAEAV12@HPEB_WH@Z @1302
    ?insert@UnicodeString@icu_58@@QEAAAEAV12@HPEB_WHH@Z @1303
    ?insert@UnicodeString@icu_58@@QEAAAEAV12@H_W@Z @1304
    ?insertElementAt@UVector32@icu_58@@QEAAXHHAEAW4UErrorCode@@@Z @1305
    ?insertElementAt@UVector64@icu_58@@QEAAX_JHAEAW4UErrorCode@@@Z @1306
    ?insertElementAt@UVector@icu_58@@QEAAXHHAEAW4UErrorCode@@@Z @1307
    ?insertElementAt@UVector@icu_58@@QEAAXPEAXHAEAW4UErrorCode@@@Z @1308
    ?internalGetResource@ResourceArray@icu_58@@QEBAIPEBUResourceData@@H@Z @1309
    ?isAlgorithmicNoNo@Normalizer2Impl@icu_58@@QEBACG@Z @1310
    ?isArgTypeChar@MessagePattern@icu_58@@CACH@Z @1311
    ?isBogus@Locale@icu_58@@QEBACXZ @1312
    ?isBogus@StringPair@icu_58@@QEBACXZ @1313
    ?isBogus@UnicodeSet@icu_58@@QEBACXZ @1314
    ?isBogus@UnicodeString@icu_58@@QEBACXZ @1315
    ?isBoundary@RuleBasedBreakIterator@icu_58@@UEAACH@Z @1316
    ?isBufferClone@BreakIterator@icu_58@@QEAACXZ @1317
    ?isBufferWritable@UnicodeString@icu_58@@AEBACXZ @1318
    ?isCanonSegmentStarter@Normalizer2Impl@icu_58@@QEBACH@Z @1319
    ?isChoice@MessagePattern@icu_58@@AEAACH@Z @1320
    ?isCompNo@Normalizer2Impl@icu_58@@QEBACG@Z @1321
    ?isCompYesAndZeroCC@Normalizer2Impl@icu_58@@AEBACG@Z @1322
    ?isDecompInert@Normalizer2Impl@icu_58@@QEBACH@Z @1323
    ?isDecompNoAlgorithmic@Normalizer2Impl@icu_58@@AEBACG@Z @1324
    ?isDecompYes@Normalizer2Impl@icu_58@@QEBACG@Z @1325
    ?isDecompYesAndZeroCC@Normalizer2Impl@icu_58@@AEBACG@Z @1326
    ?isDefault@ICUService@icu_58@@UEBACXZ @1327
    ?isEmpty@CharString@icu_58@@QEBACXZ @1328
    ?isEmpty@ReorderingBuffer@icu_58@@QEBACXZ @1329
    ?isEmpty@UVector32@icu_58@@QEBACXZ @1330
    ?isEmpty@UVector64@icu_58@@QEBACXZ @1331
    ?isEmpty@UVector@icu_58@@QEBACXZ @1332
    ?isEmpty@UnicodeSet@icu_58@@UEBACXZ @1333
    ?isEmpty@UnicodeString@icu_58@@QEBACXZ @1334
    ?isFCDInert@Normalizer2Impl@icu_58@@QEBACH@Z @1335
    ?isFailure@ErrorCode@icu_58@@QEBACXZ @1336
    ?isFallbackOf@ICUServiceKey@icu_58@@UEBACAEBVUnicodeString@2@@Z @1337
    ?isFallbackOf@LocaleKey@icu_58@@UEBACAEBVUnicodeString@2@@Z @1338
    ?isFallbackOf@LocaleUtility@icu_58@@SACAEBVUnicodeString@2@0@Z @1339
    ?isFrozen@UnicodeSet@icu_58@@QEBACXZ @1340
    ?isHangul@Hangul@icu_58@@SACH@Z @1341
    ?isHangul@Normalizer2Impl@icu_58@@AEBACG@Z @1342
    ?isHangulWithoutJamoT@Hangul@icu_58@@SAC_W@Z @1343
    ?isIdentifier@PatternProps@icu_58@@SACPEB_WH@Z @1344
    ?isInert@FilteredNormalizer2@icu_58@@UEBACH@Z @1345
    ?isInert@Normalizer2Impl@icu_58@@CACG@Z @1346
    ?isJamoL@Hangul@icu_58@@SACH@Z @1347
    ?isJamoL@Normalizer2Impl@icu_58@@CACG@Z @1348
    ?isJamoV@Hangul@icu_58@@SACH@Z @1349
    ?isJamoVT@Normalizer2Impl@icu_58@@CACG@Z @1350
    ?isMaybe@Normalizer2Impl@icu_58@@AEBACG@Z @1351
    ?isMaybeOrNonZeroCC@Normalizer2Impl@icu_58@@AEBACG@Z @1352
    ?isMostDecompYesAndZeroCC@Normalizer2Impl@icu_58@@AEBACG@Z @1353
    ?isNormalized@FilteredNormalizer2@icu_58@@UEBACAEBVUnicodeString@2@AEAW4UErrorCode@@@Z @1354
    ?isNormalized@Normalizer@icu_58@@SACAEBVUnicodeString@2@W4UNormalizationMode@@AEAW4UErrorCode@@@Z @1355
    ?isNormalized@Normalizer@icu_58@@SACAEBVUnicodeString@2@W4UNormalizationMode@@HAEAW4UErrorCode@@@Z @1356
    ?isOrdinal@MessagePattern@icu_58@@AEAACH@Z @1357
    ?isPlural@MessagePattern@icu_58@@AEAACH@Z @1358
    ?isRightToLeft@Locale@icu_58@@QEBACXZ @1359
    ?isSelect@MessagePattern@icu_58@@AEAACH@Z @1360
    ?isString@UnicodeSetIterator@icu_58@@QEBACXZ @1361
    ?isSuccess@ErrorCode@icu_58@@QEBACXZ @1362
    ?isSyntax@PatternProps@icu_58@@SACH@Z @1363
    ?isSyntaxOrWhiteSpace@PatternProps@icu_58@@SACH@Z @1364
    ?isTransitionalDifferent@IDNAInfo@icu_58@@QEBACXZ @1365
    ?isUnprintable@ICU_Utility@icu_58@@SACH@Z @1366
    ?isWhiteSpace@PatternProps@icu_58@@SACH@Z @1367
    ?isWritable@UnicodeString@icu_58@@AEBACXZ @1368
    ?jdkAposMode@MessageImpl@icu_58@@SACAEBVMessagePattern@2@@Z @1369
    ?jumpByDelta@BytesTrie@icu_58@@CAPEBEPEBE@Z @1370
    ?jumpByDelta@UCharsTrie@icu_58@@CAPEB_WPEB_W@Z @1371
    ?kFiveByteDeltaLead@BytesTrie@icu_58@@0HB @1372
    ?kFiveByteValueLead@BytesTrie@icu_58@@0HB @1373
    ?kFourByteDeltaLead@BytesTrie@icu_58@@0HB @1374
    ?kFourByteValueLead@BytesTrie@icu_58@@0HB @1375
    ?kMaxBranchLinearSubNodeLength@BytesTrie@icu_58@@0HB @1376
    ?kMaxBranchLinearSubNodeLength@StringTrieBuilder@icu_58@@1HB @1377
    ?kMaxBranchLinearSubNodeLength@UCharsTrie@icu_58@@0HB @1378
    ?kMaxLinearMatchLength@BytesTrie@icu_58@@0HB @1379
    ?kMaxLinearMatchLength@UCharsTrie@icu_58@@0HB @1380
    ?kMaxOneByteDelta@BytesTrie@icu_58@@0HB @1381
    ?kMaxOneByteValue@BytesTrie@icu_58@@0HB @1382
    ?kMaxOneUnitDelta@UCharsTrie@icu_58@@0HB @1383
    ?kMaxOneUnitNodeValue@UCharsTrie@icu_58@@0HB @1384
    ?kMaxOneUnitValue@UCharsTrie@icu_58@@0HB @1385
    ?kMaxSplitBranchLevels@StringTrieBuilder@icu_58@@1HB @1386
    ?kMaxThreeByteDelta@BytesTrie@icu_58@@0HB @1387
    ?kMaxThreeByteValue@BytesTrie@icu_58@@0HB @1388
    ?kMaxTwoByteDelta@BytesTrie@icu_58@@0HB @1389
    ?kMaxTwoByteValue@BytesTrie@icu_58@@0HB @1390
    ?kMaxTwoUnitDelta@UCharsTrie@icu_58@@0HB @1391
    ?kMaxTwoUnitNodeValue@UCharsTrie@icu_58@@0HB @1392
    ?kMaxTwoUnitValue@UCharsTrie@icu_58@@0HB @1393
    ?kMinLinearMatch@BytesTrie@icu_58@@0HB @1394
    ?kMinLinearMatch@UCharsTrie@icu_58@@0HB @1395
    ?kMinOneByteValueLead@BytesTrie@icu_58@@0HB @1396
    ?kMinThreeByteDeltaLead@BytesTrie@icu_58@@0HB @1397
    ?kMinThreeByteValueLead@BytesTrie@icu_58@@0HB @1398
    ?kMinTwoByteDeltaLead@BytesTrie@icu_58@@0HB @1399
    ?kMinTwoByteValueLead@BytesTrie@icu_58@@0HB @1400
    ?kMinTwoUnitDeltaLead@UCharsTrie@icu_58@@0HB @1401
    ?kMinTwoUnitNodeValueLead@UCharsTrie@icu_58@@0HB @1402
    ?kMinTwoUnitValueLead@UCharsTrie@icu_58@@0HB @1403
    ?kMinValueLead@BytesTrie@icu_58@@0HB @1404
    ?kMinValueLead@UCharsTrie@icu_58@@0HB @1405
    ?kNodeTypeMask@UCharsTrie@icu_58@@0HB @1406
    ?kThreeUnitDeltaLead@UCharsTrie@icu_58@@0HB @1407
    ?kThreeUnitNodeValueLead@UCharsTrie@icu_58@@0HB @1408
    ?kThreeUnitValueLead@UCharsTrie@icu_58@@0HB @1409
    ?kValueIsFinal@BytesTrie@icu_58@@0HB @1410
    ?kValueIsFinal@UCharsTrie@icu_58@@0HB @1411
    ?keyCount@UnifiedCache@icu_58@@QEBAHXZ @1412
    ?kind@LocaleKey@icu_58@@UEBAHXZ @1413
    ?labelToASCII_UTF8@IDNA@icu_58@@UEBAXVStringPiece@2@AEAVByteSink@2@AEAVIDNAInfo@2@AEAW4UErrorCode@@@Z @1414
    ?labelToUnicodeUTF8@IDNA@icu_58@@UEBAXVStringPiece@2@AEAVByteSink@2@AEAVIDNAInfo@2@AEAW4UErrorCode@@@Z @1415
    ?last32@UCharCharacterIterator@icu_58@@UEAAHXZ @1416
    ?last@Normalizer@icu_58@@QEAAHXZ @1417
    ?last@RuleBasedBreakIterator@icu_58@@UEAAHXZ @1418
    ?last@UCharCharacterIterator@icu_58@@UEAA_WXZ @1419
    ?lastElement@UVector@icu_58@@QEBAPEAXXZ @1420
    ?lastElementi@UVector32@icu_58@@QEBAHXZ @1421
    ?lastElementi@UVector64@icu_58@@QEBA_JXZ @1422
    ?lastElementi@UVector@icu_58@@QEBAHXZ @1423
    ?lastIndexOf@CharString@icu_58@@QEBAHD@Z @1424
    ?lastIndexOf@UnicodeString@icu_58@@QEBAHAEBV12@@Z @1425
    ?lastIndexOf@UnicodeString@icu_58@@QEBAHAEBV12@H@Z @1426
    ?lastIndexOf@UnicodeString@icu_58@@QEBAHAEBV12@HH@Z @1427
    ?lastIndexOf@UnicodeString@icu_58@@QEBAHAEBV12@HHHH@Z @1428
    ?lastIndexOf@UnicodeString@icu_58@@QEBAHH@Z @1429
    ?lastIndexOf@UnicodeString@icu_58@@QEBAHHH@Z @1430
    ?lastIndexOf@UnicodeString@icu_58@@QEBAHHHH@Z @1431
    ?lastIndexOf@UnicodeString@icu_58@@QEBAHPEB_WHH@Z @1432
    ?lastIndexOf@UnicodeString@icu_58@@QEBAHPEB_WHHH@Z @1433
    ?lastIndexOf@UnicodeString@icu_58@@QEBAHPEB_WHHHH@Z @1434
    ?lastIndexOf@UnicodeString@icu_58@@QEBAH_W@Z @1435
    ?lastIndexOf@UnicodeString@icu_58@@QEBAH_WH@Z @1436
    ?lastIndexOf@UnicodeString@icu_58@@QEBAH_WHH@Z @1437
    ?length@CharString@icu_58@@QEBAHXZ @1438
    ?length@ReorderingBuffer@icu_58@@QEBAHXZ @1439
    ?length@Replaceable@icu_58@@QEBAHXZ @1440
    ?length@StringPiece@icu_58@@QEBAHXZ @1441
    ?length@UnicodeString@icu_58@@QEBAHXZ @1442
    ?loadRange@UnicodeSetIterator@icu_58@@MEAAXH@Z @1443
    ?makeBranchSubNode@StringTrieBuilder@icu_58@@IEAAPEAVNode@12@HHHHAEAW4UErrorCode@@@Z @1444
    ?makeCanonIterDataFromNorm16@Normalizer2Impl@icu_58@@QEBAXHHGAEAUCanonIterData@2@AEAW4UErrorCode@@@Z @1445
    ?makeFCD@Normalizer2Impl@icu_58@@QEBAPEB_WPEB_W0PEAVReorderingBuffer@2@AEAW4UErrorCode@@@Z @1446
    ?makeFCDAndAppend@Normalizer2Impl@icu_58@@QEBAXPEB_W0CAEAVUnicodeString@2@AEAVReorderingBuffer@2@AEAW4UErrorCode@@@Z @1447
    ?makeInstance@BreakIterator@icu_58@@CAPEAV12@AEBVLocale@2@HAEAW4UErrorCode@@@Z @1448
    ?makeNode@StringTrieBuilder@icu_58@@IEAAPEAVNode@12@HHHAEAW4UErrorCode@@@Z @1449
    ?makeRuleStatusValid@RuleBasedBreakIterator@icu_58@@AEAAXXZ @1450
    ?mapAlgorithmic@Normalizer2Impl@icu_58@@AEBAHHG@Z @1451
    ?matchNodesCanHaveValues@BytesTrieBuilder@icu_58@@EEBACXZ @1452
    ?matchNodesCanHaveValues@UCharsTrieBuilder@icu_58@@EEBACXZ @1453
    ?matchRest@UnicodeSet@icu_58@@CAHAEBVReplaceable@2@HHAEBVUnicodeString@2@@Z @1454
    ?matches@BytesDictionaryMatcher@icu_58@@UEBAHPEAUUText@@HHPEAH111@Z @1455
    ?matches@UCharsDictionaryMatcher@icu_58@@UEBAHPEAUUText@@HHPEAH111@Z @1456
    ?matches@UnicodeFilter@icu_58@@UEAA?AW4UMatchDegree@2@AEBVReplaceable@2@AEAHHC@Z @1457
    ?matches@UnicodeSet@icu_58@@UEAA?AW4UMatchDegree@2@AEBVReplaceable@2@AEAHHC@Z @1458
    ?matchesIndexValue@UnicodeSet@icu_58@@EEBACE@Z @1459
    ?move32@UCharCharacterIterator@icu_58@@UEAAHHW4EOrigin@CharacterIterator@2@@Z @1460
    ?move@UCharCharacterIterator@icu_58@@UEAAHHW4EOrigin@CharacterIterator@2@@Z @1461
    ?moveFrom@UnicodeString@icu_58@@QEAAAEAV12@AEAV12@@Z @1462
    ?moveIndex32@UnicodeString@icu_58@@QEBAHHH@Z @1463
    ?nameToASCII_UTF8@IDNA@icu_58@@UEBAXVStringPiece@2@AEAVByteSink@2@AEAVIDNAInfo@2@AEAW4UErrorCode@@@Z @1464
    ?nameToUnicodeUTF8@IDNA@icu_58@@UEBAXVStringPiece@2@AEAVByteSink@2@AEAVIDNAInfo@2@AEAW4UErrorCode@@@Z @1465
    ?next32@UCharCharacterIterator@icu_58@@UEAAHXZ @1466
    ?next32PostInc@UCharCharacterIterator@icu_58@@UEAAHXZ @1467
    ?next@BytesTrie@icu_58@@QEAA?AW4UStringTrieResult@@H@Z @1468
    ?next@BytesTrie@icu_58@@QEAA?AW4UStringTrieResult@@PEBDH@Z @1469
    ?next@CanonicalIterator@icu_58@@QEAA?AVUnicodeString@2@XZ @1470
    ?next@FullCaseFoldingIterator@icu_58@@QEAAHAEAVUnicodeString@2@@Z @1471
    ?next@Iterator@BytesTrie@icu_58@@QEAACAEAW4UErrorCode@@@Z @1472
    ?next@Iterator@UCharsTrie@icu_58@@QEAACAEAW4UErrorCode@@@Z @1473
    ?next@Normalizer@icu_58@@QEAAHXZ @1474
    ?next@RuleBasedBreakIterator@icu_58@@UEAAHH@Z @1475
    ?next@RuleBasedBreakIterator@icu_58@@UEAAHXZ @1476
    ?next@StringEnumeration@icu_58@@UEAAPEBDPEAHAEAW4UErrorCode@@@Z @1477
    ?next@UCharCharacterIterator@icu_58@@UEAA_WXZ @1478
    ?next@UCharsTrie@icu_58@@QEAA?AW4UStringTrieResult@@H@Z @1479
    ?next@UCharsTrie@icu_58@@QEAA?AW4UStringTrieResult@@PEB_WH@Z @1480
    ?next@UStringEnumeration@icu_58@@UEAAPEBDPEAHAEAW4UErrorCode@@@Z @1481
    ?next@UnicodeSetIterator@icu_58@@QEAACXZ @1482
    ?nextElement@Hashtable@icu_58@@QEBAPEBUUHashElement@@AEAH@Z @1483
    ?nextFCD16@Normalizer2Impl@icu_58@@QEBAGAEAPEB_WPEB_W@Z @1484
    ?nextForCodePoint@UCharsTrie@icu_58@@QEAA?AW4UStringTrieResult@@H@Z @1485
    ?nextImpl@BytesTrie@icu_58@@AEAA?AW4UStringTrieResult@@PEBEH@Z @1486
    ?nextImpl@UCharsTrie@icu_58@@AEAA?AW4UStringTrieResult@@PEB_WH@Z @1487
    ?nextNormalize@Normalizer@icu_58@@AEAACXZ @1488
    ?nextPostInc@UCharCharacterIterator@icu_58@@UEAA_WXZ @1489
    ?nextRange@UnicodeSetIterator@icu_58@@QEAACXZ @1490
    ?noHardReferences@SharedObject@icu_58@@QEBACXZ @1491
    ?noSoftReferences@SharedObject@icu_58@@QEBACXZ @1492
    ?normalize@FilteredNormalizer2@icu_58@@AEBAAEAVUnicodeString@2@AEBV32@AEAV32@W4USetSpanCondition@@AEAW4UErrorCode@@@Z @1493
    ?normalize@FilteredNormalizer2@icu_58@@UEBAAEAVUnicodeString@2@AEBV32@AEAV32@AEAW4UErrorCode@@@Z @1494
    ?normalize@Normalizer2@icu_58@@QEBA?AVUnicodeString@2@AEBV32@AEAW4UErrorCode@@@Z @1495
    ?normalize@Normalizer@icu_58@@SAXAEBVUnicodeString@2@W4UNormalizationMode@@HAEAV32@AEAW4UErrorCode@@@Z @1496
    ?normalizeSecondAndAppend@FilteredNormalizer2@icu_58@@AEBAAEAVUnicodeString@2@AEAV32@AEBV32@CAEAW4UErrorCode@@@Z @1497
    ?normalizeSecondAndAppend@FilteredNormalizer2@icu_58@@UEBAAEAVUnicodeString@2@AEAV32@AEBV32@AEAW4UErrorCode@@@Z @1498
    ?notifyChanged@ICUNotifier@icu_58@@UEAAXXZ @1499
    ?notifyListener@ICUService@icu_58@@MEBAXAEAVEventListener@2@@Z @1500
    ?npos@StringPiece@icu_58@@2HB @1501
    ?orphanElementAt@UVector@icu_58@@QEAAPEAXH@Z @1502
    ?orphanOrClone@?$MaybeStackArray@D$0CI@@icu_58@@QEAAPEADHAEAH@Z @1503
    ?padLeading@UnicodeString@icu_58@@QEAACH_W@Z @1504
    ?padTrailing@UnicodeString@icu_58@@QEAACH_W@Z @1505
    ?parse@MessagePattern@icu_58@@QEAAAEAV12@AEBVUnicodeString@2@PEAUUParseError@@AEAW4UErrorCode@@@Z @1506
    ?parseArg@MessagePattern@icu_58@@AEAAHHHHPEAUUParseError@@AEAW4UErrorCode@@@Z @1507
    ?parseArgNumber@MessagePattern@icu_58@@AEAAHHH@Z @1508
    ?parseArgNumber@MessagePattern@icu_58@@CAHAEBVUnicodeString@2@HH@Z @1509
    ?parseChar@ICU_Utility@icu_58@@SACAEBVUnicodeString@2@AEAH_W@Z @1510
    ?parseChoiceStyle@MessagePattern@icu_58@@AEAAHHHPEAUUParseError@@AEAW4UErrorCode@@@Z @1511
    ?parseChoiceStyle@MessagePattern@icu_58@@QEAAAEAV12@AEBVUnicodeString@2@PEAUUParseError@@AEAW4UErrorCode@@@Z @1512
    ?parseDouble@MessagePattern@icu_58@@AEAAXHHCPEAUUParseError@@AEAW4UErrorCode@@@Z @1513
    ?parseInteger@ICU_Utility@icu_58@@SAHAEBVUnicodeString@2@AEAHH@Z @1514
    ?parseMessage@MessagePattern@icu_58@@AEAAHHHHW4UMessagePatternArgType@@PEAUUParseError@@AEAW4UErrorCode@@@Z @1515
    ?parseNumber@ICU_Utility@icu_58@@SAHAEBVUnicodeString@2@AEAHC@Z @1516
    ?parsePattern@ICU_Utility@icu_58@@SAHAEBVUnicodeString@2@AEBVReplaceable@2@HH@Z @1517
    ?parsePattern@ICU_Utility@icu_58@@SAHAEBVUnicodeString@2@HH0PEAH@Z @1518
    ?parsePluralOrSelectStyle@MessagePattern@icu_58@@AEAAHW4UMessagePatternArgType@@HHPEAUUParseError@@AEAW4UErrorCode@@@Z @1519
    ?parsePluralStyle@MessagePattern@icu_58@@QEAAAEAV12@AEBVUnicodeString@2@PEAUUParseError@@AEAW4UErrorCode@@@Z @1520
    ?parsePrefix@ICUServiceKey@icu_58@@SAAEAVUnicodeString@2@AEAV32@@Z @1521
    ?parseSelectStyle@MessagePattern@icu_58@@QEAAAEAV12@AEBVUnicodeString@2@PEAUUParseError@@AEAW4UErrorCode@@@Z @1522
    ?parseSimpleStyle@MessagePattern@icu_58@@AEAAHHPEAUUParseError@@AEAW4UErrorCode@@@Z @1523
    ?parseSuffix@ICUServiceKey@icu_58@@SAAEAVUnicodeString@2@AEAV32@@Z @1524
    ?parseUnicodeIdentifier@ICU_Utility@icu_58@@SA?AVUnicodeString@2@AEBV32@AEAH@Z @1525
    ?partSubstringMatches@MessagePattern@icu_58@@QEBACAEBVPart@12@AEBVUnicodeString@2@@Z @1526
    ?peek@UStack@icu_58@@QEBAPEAXXZ @1527
    ?peeki@UStack@icu_58@@QEBAHXZ @1528
    ?peeki@UVector32@icu_58@@QEBAHXZ @1529
    ?permute@CanonicalIterator@icu_58@@SAXAEAVUnicodeString@2@CPEAVHashtable@2@AEAW4UErrorCode@@@Z @1530
    ?pinIndex@UnicodeString@icu_58@@AEBAXAEAH@Z @1531
    ?pinIndices@UnicodeString@icu_58@@AEBAXAEAH0@Z @1532
    ?pop@UStack@icu_58@@QEAAPEAXXZ @1533
    ?popFrame@UVector32@icu_58@@QEAAPEAHH@Z @1534
    ?popFrame@UVector64@icu_58@@QEAAPEA_JH@Z @1535
    ?popi@UStack@icu_58@@QEAAHXZ @1536
    ?popi@UVector32@icu_58@@QEAAHXZ @1537
    ?popi@UVector64@icu_58@@QEAA_JXZ @1538
    ?postParse@MessagePattern@icu_58@@AEAAXXZ @1539
    ?preParse@MessagePattern@icu_58@@AEAAXAEBVUnicodeString@2@PEAUUParseError@@AEAW4UErrorCode@@@Z @1540
    ?preceding@RuleBasedBreakIterator@icu_58@@UEAAHH@Z @1541
    ?prefix@ICUServiceKey@icu_58@@UEBAAEAVUnicodeString@2@AEAV32@@Z @1542
    ?prefix@LocaleKey@icu_58@@UEBAAEAVUnicodeString@2@AEAV32@@Z @1543
    ?previous32@UCharCharacterIterator@icu_58@@UEAAHXZ @1544
    ?previous@Normalizer@icu_58@@QEAAHXZ @1545
    ?previous@RuleBasedBreakIterator@icu_58@@UEAAHXZ @1546
    ?previous@UCharCharacterIterator@icu_58@@UEAA_WXZ @1547
    ?previousCC@ReorderingBuffer@icu_58@@AEAAEXZ @1548
    ?previousFCD16@Normalizer2Impl@icu_58@@QEBAGPEB_WAEAPEB_W@Z @1549
    ?previousNormalize@Normalizer@icu_58@@AEAACXZ @1550
    ?push@UStack@icu_58@@QEAAHHAEAW4UErrorCode@@@Z @1551
    ?push@UStack@icu_58@@QEAAPEAXPEAXAEAW4UErrorCode@@@Z @1552
    ?push@UVector32@icu_58@@QEAAHHAEAW4UErrorCode@@@Z @1553
    ?push@UVector64@icu_58@@QEAA_J_JAEAW4UErrorCode@@@Z @1554
    ?put@Hashtable@icu_58@@QEAAPEAXAEBVUnicodeString@2@PEAXAEAW4UErrorCode@@@Z @1555
    ?puti@Hashtable@icu_58@@QEAAHAEBVUnicodeString@2@HAEAW4UErrorCode@@@Z @1556
    ?quickCheck@FilteredNormalizer2@icu_58@@UEBA?AW4UNormalizationCheckResult@@AEBVUnicodeString@2@AEAW4UErrorCode@@@Z @1557
    ?quickCheck@Normalizer@icu_58@@SA?AW4UNormalizationCheckResult@@AEBVUnicodeString@2@W4UNormalizationMode@@AEAW4UErrorCode@@@Z @1558
    ?quickCheck@Normalizer@icu_58@@SA?AW4UNormalizationCheckResult@@AEBVUnicodeString@2@W4UNormalizationMode@@HAEAW4UErrorCode@@@Z @1559
    ?reInitializeFactories@ICUService@icu_58@@MEAAXXZ @1560
    ?readNodeValue@UCharsTrie@icu_58@@CAHPEB_WH@Z @1561
    ?readValue@BytesTrie@icu_58@@CAHPEBEH@Z @1562
    ?readValue@UCharsTrie@icu_58@@CAHPEB_WH@Z @1563
    ?recompose@Normalizer2Impl@icu_58@@AEBAXAEAVReorderingBuffer@2@HC@Z @1564
    ?refCount@UnicodeString@icu_58@@AEBAHXZ @1565
    ?refreshInputText@RuleBasedBreakIterator@icu_58@@UEAAAEAV12@PEAUUText@@AEAW4UErrorCode@@@Z @1566
    ?registerFactory@ICUService@icu_58@@UEAAPEBXPEAVICUServiceFactory@2@AEAW4UErrorCode@@@Z @1567
    ?registerFinalValue@StringTrieBuilder@icu_58@@IEAAPEAVNode@12@HAEAW4UErrorCode@@@Z @1568
    ?registerInstance@BreakIterator@icu_58@@SAPEBXPEAV12@AEBVLocale@2@W4UBreakIteratorType@@AEAW4UErrorCode@@@Z @1569
    ?registerInstance@ICULocaleService@icu_58@@UEAAPEBXPEAVUObject@2@AEBVLocale@2@AEAW4UErrorCode@@@Z @1570
    ?registerInstance@ICULocaleService@icu_58@@UEAAPEBXPEAVUObject@2@AEBVLocale@2@HAEAW4UErrorCode@@@Z @1571
    ?registerInstance@ICULocaleService@icu_58@@UEAAPEBXPEAVUObject@2@AEBVLocale@2@HHAEAW4UErrorCode@@@Z @1572
    ?registerInstance@ICULocaleService@icu_58@@UEAAPEBXPEAVUObject@2@AEBVUnicodeString@2@CAEAW4UErrorCode@@@Z @1573
    ?registerInstance@ICUService@icu_58@@QEAAPEBXPEAVUObject@2@AEBVUnicodeString@2@AEAW4UErrorCode@@@Z @1574
    ?registerInstance@ICUService@icu_58@@UEAAPEBXPEAVUObject@2@AEBVUnicodeString@2@CAEAW4UErrorCode@@@Z @1575
    ?registerNode@StringTrieBuilder@icu_58@@IEAAPEAVNode@12@PEAV312@AEAW4UErrorCode@@@Z @1576
    ?registerWithCache@SharedObject@icu_58@@QEBAXPEBVUnifiedCacheBase@2@@Z @1577
    ?releaseArray@?$MaybeStackArray@D$0CI@@icu_58@@AEAAXXZ @1578
    ?releaseArray@UnicodeString@icu_58@@AEAAXXZ @1579
    ?releaseBuffer@UnicodeString@icu_58@@QEAAXH@Z @1580
    ?releasePattern@UnicodeSet@icu_58@@AEAAXXZ @1581
    ?remove@Hashtable@icu_58@@QEAAPEAXAEBVUnicodeString@2@@Z @1582
    ?remove@ReorderingBuffer@icu_58@@QEAAXXZ @1583
    ?remove@UStringSet@icu_58@@QEAACAEBVUnicodeString@2@AEAW4UErrorCode@@@Z @1584
    ?remove@UnicodeSet@icu_58@@QEAAAEAV12@AEBVUnicodeString@2@@Z @1585
    ?remove@UnicodeSet@icu_58@@QEAAAEAV12@H@Z @1586
    ?remove@UnicodeSet@icu_58@@UEAAAEAV12@HH@Z @1587
    ?remove@UnicodeString@icu_58@@QEAAAEAV12@HH@Z @1588
    ?remove@UnicodeString@icu_58@@QEAAAEAV12@XZ @1589
    ?removeAll@Hashtable@icu_58@@QEAAXXZ @1590
    ?removeAll@UVector32@icu_58@@QEAACAEBV12@@Z @1591
    ?removeAll@UVector@icu_58@@QEAACAEBV12@@Z @1592
    ?removeAll@UnicodeSet@icu_58@@QEAAAEAV12@AEBVUnicodeString@2@@Z @1593
    ?removeAll@UnicodeSet@icu_58@@UEAAAEAV12@AEBV12@@Z @1594
    ?removeAllElements@UVector32@icu_58@@QEAAXXZ @1595
    ?removeAllElements@UVector64@icu_58@@QEAAXXZ @1596
    ?removeAllElements@UVector@icu_58@@QEAAXXZ @1597
    ?removeAllStrings@UnicodeSet@icu_58@@UEAAAEAV12@XZ @1598
    ?removeBetween@UnicodeString@icu_58@@QEAAAEAV12@HH@Z @1599
    ?removeElement@UVector@icu_58@@QEAACPEAX@Z @1600
    ?removeElementAt@UVector32@icu_58@@QEAAXH@Z @1601
    ?removeElementAt@UVector@icu_58@@QEAAXH@Z @1602
    ?removeListener@ICUNotifier@icu_58@@UEAAXPEBVEventListener@2@AEAW4UErrorCode@@@Z @1603
    ?removeRef@SharedObject@icu_58@@AEBAXC@Z @1604
    ?removeRef@SharedObject@icu_58@@QEBAXXZ @1605
    ?removeRef@UnicodeString@icu_58@@AEAAHXZ @1606
    ?removeRefWhileHoldingCacheLock@SharedObject@icu_58@@QEBAXXZ @1607
    ?removeSoftRef@SharedObject@icu_58@@QEBAXXZ @1608
    ?removeSuffix@ReorderingBuffer@icu_58@@QEAAXH@Z @1609
    ?remove_prefix@StringPiece@icu_58@@QEAAXH@Z @1610
    ?remove_suffix@StringPiece@icu_58@@QEAAXH@Z @1611
    ?removei@Hashtable@icu_58@@QEAAHAEBVUnicodeString@2@@Z @1612
    ?replace@UnicodeString@icu_58@@QEAAAEAV12@HHAEBV12@@Z @1613
    ?replace@UnicodeString@icu_58@@QEAAAEAV12@HHAEBV12@HH@Z @1614
    ?replace@UnicodeString@icu_58@@QEAAAEAV12@HHH@Z @1615
    ?replace@UnicodeString@icu_58@@QEAAAEAV12@HHPEB_WH@Z @1616
    ?replace@UnicodeString@icu_58@@QEAAAEAV12@HHPEB_WHH@Z @1617
    ?replace@UnicodeString@icu_58@@QEAAAEAV12@HH_W@Z @1618
    ?replaceBetween@UnicodeString@icu_58@@QEAAAEAV12@HHAEBV12@@Z @1619
    ?replaceBetween@UnicodeString@icu_58@@QEAAAEAV12@HHAEBV12@HH@Z @1620
    ?resemblesPattern@UnicodeSet@icu_58@@SACAEBVUnicodeString@2@H@Z @1621
    ?resemblesPropertyPattern@UnicodeSet@icu_58@@CACAEAVRuleCharacterIterator@2@H@Z @1622
    ?resemblesPropertyPattern@UnicodeSet@icu_58@@CACAEBVUnicodeString@2@H@Z @1623
    ?reserveAppendCapacity@Appendable@icu_58@@UEAACH@Z @1624
    ?reserveAppendCapacity@UnicodeStringAppendable@icu_58@@UEAACH@Z @1625
    ?reserveBlock@UVector32@icu_58@@QEAAPEAHHAEAW4UErrorCode@@@Z @1626
    ?reserveBlock@UVector64@icu_58@@QEAAPEA_JHAEAW4UErrorCode@@@Z @1627
    ?reset@BytesTrie@icu_58@@QEAAAEAV12@XZ @1628
    ?reset@CanonicalIterator@icu_58@@QEAAXXZ @1629
    ?reset@ErrorCode@icu_58@@QEAA?AW4UErrorCode@@XZ @1630
    ?reset@ICUService@icu_58@@UEAAXXZ @1631
    ?reset@IDNAInfo@icu_58@@AEAAXXZ @1632
    ?reset@Iterator@BytesTrie@icu_58@@QEAAAEAV123@XZ @1633
    ?reset@Iterator@UCharsTrie@icu_58@@QEAAAEAV123@XZ @1634
    ?reset@Normalizer@icu_58@@QEAAXXZ @1635
    ?reset@RuleBasedBreakIterator@icu_58@@AEAAXXZ @1636
    ?reset@UCharsTrie@icu_58@@QEAAAEAV12@XZ @1637
    ?reset@UStringEnumeration@icu_58@@UEAAXAEAW4UErrorCode@@@Z @1638
    ?reset@UnicodeSetIterator@icu_58@@QEAAXAEBVUnicodeSet@2@@Z @1639
    ?reset@UnicodeSetIterator@icu_58@@QEAAXXZ @1640
    ?resetIterator@ResourceBundle@icu_58@@QEAAXXZ @1641
    ?resetToState@BytesTrie@icu_58@@QEAAAEAV12@AEBVState@12@@Z @1642
    ?resetToState@UCharsTrie@icu_58@@QEAAAEAV12@AEBVState@12@@Z @1643
    ?resize@?$MaybeStackArray@D$0CI@@icu_58@@QEAAPEADHH@Z @1644
    ?resize@ReorderingBuffer@icu_58@@AEAACHAEAW4UErrorCode@@@Z @1645
    ?retain@UnicodeSet@icu_58@@AEAAXPEBHHC@Z @1646
    ?retain@UnicodeSet@icu_58@@QEAAAEAV12@H@Z @1647
    ?retain@UnicodeSet@icu_58@@UEAAAEAV12@HH@Z @1648
    ?retainAll@UVector32@icu_58@@QEAACAEBV12@@Z @1649
    ?retainAll@UVector@icu_58@@QEAACAEBV12@@Z @1650
    ?retainAll@UnicodeSet@icu_58@@QEAAAEAV12@AEBVUnicodeString@2@@Z @1651
    ?retainAll@UnicodeSet@icu_58@@UEAAAEAV12@AEBV12@@Z @1652
    ?retainBetween@UnicodeString@icu_58@@QEAAAEAV12@HH@Z @1653
    ?reverse@UnicodeString@icu_58@@QEAAAEAV12@HH@Z @1654
    ?reverse@UnicodeString@icu_58@@QEAAAEAV12@XZ @1655
    ?saveState@BytesTrie@icu_58@@QEBAAEBV12@AEAVState@12@@Z @1656
    ?saveState@UCharsTrie@icu_58@@QEBAAEBV12@AEAVState@12@@Z @1657
    ?search@UStack@icu_58@@QEBAHPEAX@Z @1658
    ?serialize@UnicodeSet@icu_58@@QEBAHPEAGHAEAW4UErrorCode@@@Z @1659
    ?set@ErrorCode@icu_58@@QEAAXW4UErrorCode@@@Z @1660
    ?set@StringPiece@icu_58@@QEAAXPEBD@Z @1661
    ?set@StringPiece@icu_58@@QEAAXPEBDH@Z @1662
    ?set@UnicodeSet@icu_58@@QEAAAEAV12@HH@Z @1663
    ?setArray@UnicodeString@icu_58@@AEAAXPEA_WHH@Z @1664
    ?setBreakType@RuleBasedBreakIterator@icu_58@@AEAAXH@Z @1665
    ?setCharAt@UnicodeString@icu_58@@QEAAAEAV12@H_W@Z @1666
    ?setChars@StringEnumeration@icu_58@@IEAAPEAVUnicodeString@2@PEBDHAEAW4UErrorCode@@@Z @1667
    ?setComparer@UVector@icu_58@@QEAAP6ACTUElement@@0@ZP6AC00@Z@Z @1668
    ?setData@UnicodeFilter@icu_58@@UEAAXPEBVTransliterationRuleData@2@@Z @1669
    ?setDefault@Locale@icu_58@@SAXAEBV12@AEAW4UErrorCode@@@Z @1670
    ?setDeleter@UVector@icu_58@@QEAAP6AXPEAX@ZP6AX0@Z@Z @1671
    ?setElementAt@UVector32@icu_58@@QEAAXHH@Z @1672
    ?setElementAt@UVector64@icu_58@@QEAAX_JH@Z @1673
    ?setElementAt@UVector@icu_58@@QEAAXHH@Z @1674
    ?setElementAt@UVector@icu_58@@QEAAXPEAXH@Z @1675
    ?setErrorIndex@ParsePosition@icu_58@@QEAAXH@Z @1676
    ?setEvictionPolicy@UnifiedCache@icu_58@@QEAAXHHAEAW4UErrorCode@@@Z @1677
    ?setFromPOSIXID@Locale@icu_58@@IEAAXPEBD@Z @1678
    ?setIndex32@UCharCharacterIterator@icu_58@@UEAAHH@Z @1679
    ?setIndex@ParsePosition@icu_58@@QEAAXH@Z @1680
    ?setIndex@UCharCharacterIterator@icu_58@@UEAA_WH@Z @1681
    ?setIndexOnly@Normalizer@icu_58@@QEAAXH@Z @1682
    ?setIterator@ReorderingBuffer@icu_58@@AEAAXXZ @1683
    ?setKeyComparator@Hashtable@icu_58@@QEAAP6ACTUElement@@0@ZP6AC00@Z@Z @1684
    ?setKeywordValue@Locale@icu_58@@QEAAXPEBD0AEAW4UErrorCode@@@Z @1685
    ?setLastChar@ReorderingBuffer@icu_58@@QEAAX_W@Z @1686
    ?setLength@UnicodeString@icu_58@@AEAAXH@Z @1687
    ?setLocaleIDs@LocaleBased@icu_58@@QEAAXAEBVLocale@2@0@Z @1688
    ?setLocaleIDs@LocaleBased@icu_58@@QEAAXPEBD0@Z @1689
    ?setMaxCapacity@UVector32@icu_58@@QEAAXH@Z @1690
    ?setMaxCapacity@UVector64@icu_58@@QEAAXH@Z @1691
    ?setMode@Normalizer@icu_58@@QEAAXW4UNormalizationMode@@@Z @1692
    ?setOption@Normalizer@icu_58@@QEAAXHC@Z @1693
    ?setParseError@MessagePattern@icu_58@@AEAAXPEAUUParseError@@H@Z @1694
    ?setPattern@UnicodeSet@icu_58@@AEAAXAEBVUnicodeString@2@@Z @1695
    ?setReorderingLimit@ReorderingBuffer@icu_58@@QEAAXPEA_W@Z @1696
    ?setShortLength@UnicodeString@icu_58@@AEAAXH@Z @1697
    ?setSize@UVector32@icu_58@@QEAAXH@Z @1698
    ?setSize@UVector64@icu_58@@QEAAXH@Z @1699
    ?setSize@UVector@icu_58@@QEAAXHAEAW4UErrorCode@@@Z @1700
    ?setSource@CanonicalIterator@icu_58@@QEAAXAEBVUnicodeString@2@AEAW4UErrorCode@@@Z @1701
    ?setText@Normalizer@icu_58@@QEAAXAEBVCharacterIterator@2@AEAW4UErrorCode@@@Z @1702
    ?setText@Normalizer@icu_58@@QEAAXAEBVUnicodeString@2@AEAW4UErrorCode@@@Z @1703
    ?setText@Normalizer@icu_58@@QEAAXPEB_WHAEAW4UErrorCode@@@Z @1704
    ?setText@RuleBasedBreakIterator@icu_58@@UEAAXAEBVUnicodeString@2@@Z @1705
    ?setText@RuleBasedBreakIterator@icu_58@@UEAAXPEAUUText@@AEAW4UErrorCode@@@Z @1706
    ?setText@StringCharacterIterator@icu_58@@QEAAXAEBVUnicodeString@2@@Z @1707
    ?setText@UCharCharacterIterator@icu_58@@QEAAXPEB_WH@Z @1708
    ?setTo@UnicodeString@icu_58@@QEAAAEAV12@AEBV12@@Z @1709
    ?setTo@UnicodeString@icu_58@@QEAAAEAV12@AEBV12@H@Z @1710
    ?setTo@UnicodeString@icu_58@@QEAAAEAV12@AEBV12@HH@Z @1711
    ?setTo@UnicodeString@icu_58@@QEAAAEAV12@CPEB_WH@Z @1712
    ?setTo@UnicodeString@icu_58@@QEAAAEAV12@H@Z @1713
    ?setTo@UnicodeString@icu_58@@QEAAAEAV12@PEA_WHH@Z @1714
    ?setTo@UnicodeString@icu_58@@QEAAAEAV12@PEB_WH@Z @1715
    ?setTo@UnicodeString@icu_58@@QEAAAEAV12@_W@Z @1716
    ?setToBogus@Locale@icu_58@@QEAAXXZ @1717
    ?setToBogus@UnicodeSet@icu_58@@QEAAXXZ @1718
    ?setToBogus@UnicodeString@icu_58@@QEAAXXZ @1719
    ?setToEmpty@UnicodeString@icu_58@@AEAAXXZ @1720
    ?setToEnd@CharacterIterator@icu_58@@QEAAHXZ @1721
    ?setToStart@CharacterIterator@icu_58@@QEAAHXZ @1722
    ?setToUTF8@UnicodeString@icu_58@@AEAAAEAV12@VStringPiece@2@@Z @1723
    ?setValueComparator@Hashtable@icu_58@@QEAAP6ACTUElement@@0@ZP6AC00@Z@Z @1724
    ?setValueDeleter@Hashtable@icu_58@@QEAAP6AXPEAX@ZP6AX0@Z@Z @1725
    ?setZeroLength@UnicodeString@icu_58@@AEAAXXZ @1726
    ?singleLeadMightHaveNonZeroFCD16@Normalizer2Impl@icu_58@@QEBACH@Z @1727
    ?size@StringPiece@icu_58@@QEBAHXZ @1728
    ?size@UVector32@icu_58@@QEBAHXZ @1729
    ?size@UVector64@icu_58@@QEBAHXZ @1730
    ?size@UVector@icu_58@@QEBAHXZ @1731
    ?size@UnicodeSet@icu_58@@UEBAHXZ @1732
    ?skipDelta@BytesTrie@icu_58@@CAPEBEPEBE@Z @1733
    ?skipDelta@UCharsTrie@icu_58@@CAPEB_WPEB_W@Z @1734
    ?skipDouble@MessagePattern@icu_58@@AEAAHH@Z @1735
    ?skipElementsBySomeUnits@BytesTrieBuilder@icu_58@@EEBAHHHH@Z @1736
    ?skipElementsBySomeUnits@UCharsTrieBuilder@icu_58@@EEBAHHHH@Z @1737
    ?skipIdentifier@MessagePattern@icu_58@@AEAAHH@Z @1738
    ?skipIdentifier@PatternProps@icu_58@@SAPEB_WPEB_WH@Z @1739
    ?skipNodeValue@UCharsTrie@icu_58@@CAPEB_WPEB_WH@Z @1740
    ?skipPrevious@ReorderingBuffer@icu_58@@AEAAXXZ @1741
    ?skipValue@BytesTrie@icu_58@@CAPEBEPEBE@Z @1742
    ?skipValue@BytesTrie@icu_58@@CAPEBEPEBEH@Z @1743
    ?skipValue@UCharsTrie@icu_58@@CAPEB_WPEB_W@Z @1744
    ?skipValue@UCharsTrie@icu_58@@CAPEB_WPEB_WH@Z @1745
    ?skipWhiteSpace@MessagePattern@icu_58@@AEAAHH@Z @1746
    ?skipWhiteSpace@PatternProps@icu_58@@SAPEB_WPEB_WH@Z @1747
    ?skipWhitespace@ICU_Utility@icu_58@@SAHAEBVUnicodeString@2@AEAHC@Z @1748
    ?snext@StringEnumeration@icu_58@@UEAAPEBVUnicodeString@2@AEAW4UErrorCode@@@Z @1749
    ?snext@UStringEnumeration@icu_58@@UEAAPEBVUnicodeString@2@AEAW4UErrorCode@@@Z @1750
    ?sort@UVector@icu_58@@QEAAXP6ACTUElement@@0@ZAEAW4UErrorCode@@@Z @1751
    ?sortWithUComparator@UVector@icu_58@@QEAAXP6AHPEBX00@Z0AEAW4UErrorCode@@@Z @1752
    ?sortedInsert@UVector32@icu_58@@QEAAXHAEAW4UErrorCode@@@Z @1753
    ?sortedInsert@UVector@icu_58@@AEAAXTUElement@@P6AC00@ZAEAW4UErrorCode@@@Z @1754
    ?sortedInsert@UVector@icu_58@@QEAAXHP6ACTUElement@@0@ZAEAW4UErrorCode@@@Z @1755
    ?sortedInsert@UVector@icu_58@@QEAAXPEAXP6ACTUElement@@1@ZAEAW4UErrorCode@@@Z @1756
    ?sorti@UVector@icu_58@@QEAAXAEAW4UErrorCode@@@Z @1757
    ?span@UnicodeSet@icu_58@@QEBAHAEBVUnicodeString@2@HW4USetSpanCondition@@@Z @1758
    ?span@UnicodeSet@icu_58@@QEBAHPEB_WHW4USetSpanCondition@@@Z @1759
    ?spanBack@UnicodeSet@icu_58@@QEBAHAEBVUnicodeString@2@HW4USetSpanCondition@@@Z @1760
    ?spanBack@UnicodeSet@icu_58@@QEBAHPEB_WHW4USetSpanCondition@@@Z @1761
    ?spanBackUTF8@UnicodeSet@icu_58@@QEBAHPEBDHW4USetSpanCondition@@@Z @1762
    ?spanQuickCheckYes@FilteredNormalizer2@icu_58@@UEBAHAEBVUnicodeString@2@AEAW4UErrorCode@@@Z @1763
    ?spanUTF8@UnicodeSet@icu_58@@QEBAHPEBDHW4USetSpanCondition@@@Z @1764
    ?startIndex@CharacterIterator@icu_58@@QEBAHXZ @1765
    ?startIndex@Normalizer@icu_58@@QEBAHXZ @1766
    ?startsWith@UnicodeString@icu_58@@QEBACAEBV12@@Z @1767
    ?startsWith@UnicodeString@icu_58@@QEBACAEBV12@HH@Z @1768
    ?startsWith@UnicodeString@icu_58@@QEBACPEB_WH@Z @1769
    ?startsWith@UnicodeString@icu_58@@QEBACPEB_WHH@Z @1770
    ?stop@BytesTrie@icu_58@@AEAAXXZ @1771
    ?stop@UCharsTrie@icu_58@@AEAAXXZ @1772
    ?substr@StringPiece@icu_58@@QEBA?AV12@HH@Z @1773
    ?suppressBreakAfter@SimpleFilteredBreakIteratorBuilder@icu_58@@UEAACAEBVUnicodeString@2@AEAW4UErrorCode@@@Z @1774
    ?swap@UnicodeString@icu_58@@QEAAXAEAV12@@Z @1775
    ?swap@icu_58@@YAXAEAVUnicodeString@1@0@Z @1776
    ?swapBuffers@UnicodeSet@icu_58@@AEAAXXZ @1777
    ?tempSubString@UnicodeString@icu_58@@QEBA?AV12@HH@Z @1778
    ?tempSubStringBetween@UnicodeString@icu_58@@QEBA?AV12@HH@Z @1779
    ?toArray@UVector@icu_58@@QEBAPEAPEAXPEAPEAX@Z @1780
    ?toCategory@PluralMapBase@icu_58@@SA?AW4Category@12@AEBVUnicodeString@2@@Z @1781
    ?toCategory@PluralMapBase@icu_58@@SA?AW4Category@12@PEBD@Z @1782
    ?toLower@UnicodeString@icu_58@@QEAAAEAV12@AEBVLocale@2@@Z @1783
    ?toLower@UnicodeString@icu_58@@QEAAAEAV12@XZ @1784
    ?toMatcher@UnicodeFilter@icu_58@@UEBAPEAVUnicodeMatcher@2@XZ @1785
    ?toMatcher@UnicodeFunctor@icu_58@@UEBAPEAVUnicodeMatcher@2@XZ @1786
    ?toPattern@UnicodeSet@icu_58@@UEBAAEAVUnicodeString@2@AEAV32@C@Z @1787
    ?toReplacer@UnicodeFunctor@icu_58@@UEBAPEAVUnicodeReplacer@2@XZ @1788
    ?toStringPiece@CharString@icu_58@@QEBA?AVStringPiece@2@XZ @1789
    ?toTitle@UnicodeString@icu_58@@QEAAAEAV12@PEAVBreakIterator@2@@Z @1790
    ?toTitle@UnicodeString@icu_58@@QEAAAEAV12@PEAVBreakIterator@2@AEBVLocale@2@@Z @1791
    ?toTitle@UnicodeString@icu_58@@QEAAAEAV12@PEAVBreakIterator@2@AEBVLocale@2@I@Z @1792
    ?toUSet@UnicodeSet@icu_58@@QEAAPEAUUSet@@XZ @1793
    ?toUSet@UnicodeSet@icu_58@@QEBAPEBUUSet@@XZ @1794
    ?toUTF32@UnicodeString@icu_58@@QEBAHPEAHHAEAW4UErrorCode@@@Z @1795
    ?toUTF8@UnicodeString@icu_58@@AEBAHHHPEADH@Z @1796
    ?toUTF8@UnicodeString@icu_58@@QEBAXAEAVByteSink@2@@Z @1797
    ?toUpper@UnicodeString@icu_58@@QEAAAEAV12@AEBVLocale@2@@Z @1798
    ?toUpper@UnicodeString@icu_58@@QEAAAEAV12@XZ @1799
    ?transform@BytesDictionaryMatcher@icu_58@@AEBAHH@Z @1800
    ?trim@UnicodeString@icu_58@@QEAAAEAV12@XZ @1801
    ?trimWhiteSpace@PatternProps@icu_58@@SAPEB_WPEB_WAEAH@Z @1802
    ?truncate@CharString@icu_58@@QEAAAEAV12@H@Z @1803
    ?truncate@UnicodeString@icu_58@@QEAACH@Z @1804
    ?truncateAndStop@Iterator@BytesTrie@icu_58@@AEAACXZ @1805
    ?truncateAndStop@Iterator@UCharsTrie@icu_58@@AEAACXZ @1806
    ?umtx_initImplPostInit@icu_58@@YAXAEAUUInitOnce@1@@Z @1807
    ?umtx_initImplPreInit@icu_58@@YACAEAUUInitOnce@1@@Z @1808
    ?unBogus@UnicodeString@icu_58@@AEAAXXZ @1809
    ?unescape@UnicodeString@icu_58@@QEBA?AV12@XZ @1810
    ?unescapeAt@UnicodeString@icu_58@@QEBAHAEAH@Z @1811
    ?unext@StringEnumeration@icu_58@@UEAAPEB_WPEAHAEAW4UErrorCode@@@Z @1812
    ?unregister@BreakIterator@icu_58@@SACPEBXAEAW4UErrorCode@@@Z @1813
    ?unregister@ICUService@icu_58@@UEAACPEBXAEAW4UErrorCode@@@Z @1814
    ?unsuppressBreakAfter@SimpleFilteredBreakIteratorBuilder@icu_58@@UEAACAEBVUnicodeString@2@AEAW4UErrorCode@@@Z @1815
    ?unusedCount@UnifiedCache@icu_58@@QEBAHXZ @1816
    ?updateVisibleIDs@LocaleKeyFactory@icu_58@@UEBAXAEAVHashtable@2@AEAW4UErrorCode@@@Z @1817
    ?updateVisibleIDs@SimpleFactory@icu_58@@UEBAXAEAVHashtable@2@AEAW4UErrorCode@@@Z @1818
    ?updateVisibleIDs@SimpleLocaleKeyFactory@icu_58@@UEBAXAEAVHashtable@2@AEAW4UErrorCode@@@Z @1819
    ?uscript_getSampleUnicodeString_58@@YA?AVUnicodeString@icu_58@@W4UScriptCode@@@Z @1820
    ?validateArgumentName@MessagePattern@icu_58@@SAHAEBVUnicodeString@2@@Z @1821
    ?validateFallbackLocale@ICULocaleService@icu_58@@IEBAAEBVUnicodeString@2@XZ @1822
    ?valueResult@BytesTrie@icu_58@@CA?AW4UStringTrieResult@@H@Z @1823
    ?valueResult@UCharsTrie@icu_58@@CA?AW4UStringTrieResult@@H@Z @1824
    ?write@BytesTrieBuilder@icu_58@@AEAAHPEBDH@Z @1825
    ?write@BytesTrieBuilder@icu_58@@EEAAHH@Z @1826
    ?write@UCharsTrieBuilder@icu_58@@AEAAHPEB_WH@Z @1827
    ?write@UCharsTrieBuilder@icu_58@@EEAAHH@Z @1828
    ?writeBranchSubNode@StringTrieBuilder@icu_58@@IEAAHHHHH@Z @1829
    ?writeCodePoint@ReorderingBuffer@icu_58@@CAXPEA_WH@Z @1830
    ?writeDeltaTo@BytesTrieBuilder@icu_58@@EEAAHH@Z @1831
    ?writeDeltaTo@UCharsTrieBuilder@icu_58@@EEAAHH@Z @1832
    ?writeElementUnits@BytesTrieBuilder@icu_58@@EEAAHHHH@Z @1833
    ?writeElementUnits@UCharsTrieBuilder@icu_58@@EEAAHHHH@Z @1834
    ?writeNode@StringTrieBuilder@icu_58@@IEAAHHHH@Z @1835
    ?writeValueAndFinal@BytesTrieBuilder@icu_58@@EEAAHHC@Z @1836
    ?writeValueAndFinal@UCharsTrieBuilder@icu_58@@EEAAHHC@Z @1837
    ?writeValueAndType@BytesTrieBuilder@icu_58@@EEAAHCHH@Z @1838
    ?writeValueAndType@UCharsTrieBuilder@icu_58@@EEAAHCHH@Z @1839
    T_CString_int64ToString_58 @1840
    T_CString_integerToString_58 @1841
    T_CString_stringToInteger_58 @1842
    T_CString_toLowerCase_58 @1843
    T_CString_toUpperCase_58 @1844
    UCNV_FROM_U_CALLBACK_ESCAPE_58 @1845
    UCNV_FROM_U_CALLBACK_SKIP_58 @1846
    UCNV_FROM_U_CALLBACK_STOP_58 @1847
    UCNV_FROM_U_CALLBACK_SUBSTITUTE_58 @1848
    UCNV_TO_U_CALLBACK_ESCAPE_58 @1849
    UCNV_TO_U_CALLBACK_SKIP_58 @1850
    UCNV_TO_U_CALLBACK_STOP_58 @1851
    UCNV_TO_U_CALLBACK_SUBSTITUTE_58 @1852
    locale_getKeywordsStart_58 @1853
    res_countArrayItems_58 @1854
    res_getAlias_58 @1855
    res_getArrayItem_58 @1856
    res_getBinary_58 @1857
    res_getIntVector_58 @1858
    res_getPublicType_58 @1859
    res_getResource_58 @1860
    res_getString_58 @1861
    res_getTableItemByIndex_58 @1862
    res_getTableItemByKey_58 @1863
    res_read_58 @1864
    u_UCharsToChars_58 @1865
    u_austrcpy_58 @1866
    u_austrncpy_58 @1867
    u_caseInsensitivePrefixMatch_58 @1868
    u_catclose_58 @1869
    u_catgets_58 @1870
    u_catopen_58 @1871
    u_charAge_58 @1872
    u_charDigitValue_58 @1873
    u_charDirection_58 @1874
    u_charFromName_58 @1875
    u_charMirror_58 @1876
    u_charName_58 @1877
    u_charType_58 @1878
    u_charsToUChars_58 @1879
    u_cleanup_58 @1880
    u_countChar32_58 @1881
    u_digit_58 @1882
    u_enumCharNames_58 @1883
    u_enumCharTypes_58 @1884
    u_errorName_58 @1885
    u_flushDefaultConverter_58 @1886
    u_foldCase_58 @1887
    u_forDigit_58 @1888
    u_getBidiPairedBracket_58 @1889
    u_getCombiningClass_58 @1890
    u_getDataDirectory_58 @1891
    u_getDataVersion_58 @1892
    u_getDefaultConverter_58 @1893
    u_getFC_NFKC_Closure_58 @1894
    u_getISOComment_58 @1895
    u_getIntPropertyMaxValue_58 @1896
    u_getIntPropertyMinValue_58 @1897
    u_getIntPropertyValue_58 @1898
    u_getNumericValue_58 @1899
    u_getPropertyEnum_58 @1900
    u_getPropertyName_58 @1901
    u_getPropertyValueEnum_58 @1902
    u_getPropertyValueName_58 @1903
    u_getTimeZoneFilesDirectory_58 @1904
    u_getUnicodeVersion_58 @1905
    u_getVersion_58 @1906
    u_hasBinaryProperty_58 @1907
    u_init_58 @1908
    u_isIDIgnorable_58 @1909
    u_isIDPart_58 @1910
    u_isIDStart_58 @1911
    u_isISOControl_58 @1912
    u_isJavaIDPart_58 @1913
    u_isJavaIDStart_58 @1914
    u_isJavaSpaceChar_58 @1915
    u_isMirrored_58 @1916
    u_isUAlphabetic_58 @1917
    u_isULowercase_58 @1918
    u_isUUppercase_58 @1919
    u_isUWhiteSpace_58 @1920
    u_isWhitespace_58 @1921
    u_isalnum_58 @1922
    u_isalpha_58 @1923
    u_isbase_58 @1924
    u_isblank_58 @1925
    u_iscntrl_58 @1926
    u_isdefined_58 @1927
    u_isdigit_58 @1928
    u_isgraph_58 @1929
    u_islower_58 @1930
    u_isprint_58 @1931
    u_ispunct_58 @1932
    u_isspace_58 @1933
    u_istitle_58 @1934
    u_isupper_58 @1935
    u_isxdigit_58 @1936
    u_memcasecmp_58 @1937
    u_memchr32_58 @1938
    u_memchr_58 @1939
    u_memcmpCodePointOrder_58 @1940
    u_memcmp_58 @1941
    u_memcpy_58 @1942
    u_memmove_58 @1943
    u_memrchr32_58 @1944
    u_memrchr_58 @1945
    u_memset_58 @1946
    u_releaseDefaultConverter_58 @1947
    u_setAtomicIncDecFunctions_58 @1948
    u_setDataDirectory_58 @1949
    u_setMemoryFunctions_58 @1950
    u_setMutexFunctions_58 @1951
    u_setTimeZoneFilesDirectory_58 @1952
    u_shapeArabic_58 @1953
    u_strCaseCompare_58 @1954
    u_strCompareIter_58 @1955
    u_strCompare_58 @1956
    u_strFindFirst_58 @1957
    u_strFindLast_58 @1958
    u_strFoldCase_58 @1959
    u_strFromJavaModifiedUTF8WithSub_58 @1960
    u_strFromUTF32WithSub_58 @1961
    u_strFromUTF32_58 @1962
    u_strFromUTF8Lenient_58 @1963
    u_strFromUTF8WithSub_58 @1964
    u_strFromUTF8_58 @1965
    u_strFromWCS_58 @1966
    u_strHasMoreChar32Than_58 @1967
    u_strToJavaModifiedUTF8_58 @1968
    u_strToLower_58 @1969
    u_strToTitle_58 @1970
    u_strToUTF32WithSub_58 @1971
    u_strToUTF32_58 @1972
    u_strToUTF8WithSub_58 @1973
    u_strToUTF8_58 @1974
    u_strToUpper_58 @1975
    u_strToWCS_58 @1976
    u_strcasecmp_58 @1977
    u_strcat_58 @1978
    u_strchr32_58 @1979
    u_strchr_58 @1980
    u_strcmpCodePointOrder_58 @1981
    u_strcmp_58 @1982
    u_strcpy_58 @1983
    u_strcspn_58 @1984
    u_strlen_58 @1985
    u_strncasecmp_58 @1986
    u_strncat_58 @1987
    u_strncmpCodePointOrder_58 @1988
    u_strncmp_58 @1989
    u_strncpy_58 @1990
    u_strpbrk_58 @1991
    u_strrchr32_58 @1992
    u_strrchr_58 @1993
    u_strrstr_58 @1994
    u_strspn_58 @1995
    u_strstr_58 @1996
    u_strtok_r_58 @1997
    u_terminateChars_58 @1998
    u_terminateUChar32s_58 @1999
    u_terminateUChars_58 @2000
    u_terminateWChars_58 @2001
    u_tolower_58 @2002
    u_totitle_58 @2003
    u_toupper_58 @2004
    u_uastrcpy_58 @2005
    u_uastrncpy_58 @2006
    u_unescapeAt_58 @2007
    u_unescape_58 @2008
    u_versionFromString_58 @2009
    u_versionFromUString_58 @2010
    u_versionToString_58 @2011
    ubidi_close_58 @2012
    ubidi_countParagraphs_58 @2013
    ubidi_countRuns_58 @2014
    ubidi_getBaseDirection_58 @2015
    ubidi_getClassCallback_58 @2016
    ubidi_getClass_58 @2017
    ubidi_getCustomizedClass_58 @2018
    ubidi_getDirection_58 @2019
    ubidi_getLength_58 @2020
    ubidi_getLevelAt_58 @2021
    ubidi_getLevels_58 @2022
    ubidi_getLogicalIndex_58 @2023
    ubidi_getLogicalMap_58 @2024
    ubidi_getLogicalRun_58 @2025
    ubidi_getParaLevel_58 @2026
    ubidi_getParagraphByIndex_58 @2027
    ubidi_getParagraph_58 @2028
    ubidi_getProcessedLength_58 @2029
    ubidi_getReorderingMode_58 @2030
    ubidi_getReorderingOptions_58 @2031
    ubidi_getResultLength_58 @2032
    ubidi_getText_58 @2033
    ubidi_getVisualIndex_58 @2034
    ubidi_getVisualMap_58 @2035
    ubidi_getVisualRun_58 @2036
    ubidi_invertMap_58 @2037
    ubidi_isInverse_58 @2038
    ubidi_isOrderParagraphsLTR_58 @2039
    ubidi_openSized_58 @2040
    ubidi_open_58 @2041
    ubidi_orderParagraphsLTR_58 @2042
    ubidi_reorderLogical_58 @2043
    ubidi_reorderVisual_58 @2044
    ubidi_setClassCallback_58 @2045
    ubidi_setContext_58 @2046
    ubidi_setInverse_58 @2047
    ubidi_setLine_58 @2048
    ubidi_setPara_58 @2049
    ubidi_setReorderingMode_58 @2050
    ubidi_setReorderingOptions_58 @2051
    ubidi_writeReordered_58 @2052
    ubidi_writeReverse_58 @2053
    ubiditransform_close_58 @2054
    ubiditransform_open_58 @2055
    ubiditransform_transform_58 @2056
    ublock_getCode_58 @2057
    ubrk_close_58 @2058
    ubrk_countAvailable_58 @2059
    ubrk_current_58 @2060
    ubrk_first_58 @2061
    ubrk_following_58 @2062
    ubrk_getAvailable_58 @2063
    ubrk_getLocaleByType_58 @2064
    ubrk_getRuleStatusVec_58 @2065
    ubrk_getRuleStatus_58 @2066
    ubrk_isBoundary_58 @2067
    ubrk_last_58 @2068
    ubrk_next_58 @2069
    ubrk_openRules_58 @2070
    ubrk_open_58 @2071
    ubrk_preceding_58 @2072
    ubrk_previous_58 @2073
    ubrk_refreshUText_58 @2074
    ubrk_safeClone_58 @2075
    ubrk_setText_58 @2076
    ubrk_setUText_58 @2077
    ubrk_swap_58 @2078
    ucache_compareKeys_58 @2079
    ucache_deleteKey_58 @2080
    ucache_hashKeys_58 @2081
    ucase_fold_58 @2082
    ucase_getSingleton_58 @2083
    ucase_getTypeOrIgnorable_58 @2084
    ucase_getType_58 @2085
    ucase_isCaseSensitive_58 @2086
    ucase_isSoftDotted_58 @2087
    ucase_toFullFolding_58 @2088
    ucase_toFullLower_58 @2089
    ucase_toFullTitle_58 @2090
    ucase_toFullUpper_58 @2091
    ucase_tolower_58 @2092
    ucase_totitle_58 @2093
    ucase_toupper_58 @2094
    ucasemap_close_58 @2095
    ucasemap_getBreakIterator_58 @2096
    ucasemap_getLocale_58 @2097
    ucasemap_getOptions_58 @2098
    ucasemap_open_58 @2099
    ucasemap_setBreakIterator_58 @2100
    ucasemap_setLocale_58 @2101
    ucasemap_setOptions_58 @2102
    ucasemap_toTitle_58 @2103
    ucasemap_utf8FoldCase_58 @2104
    ucasemap_utf8ToLower_58 @2105
    ucasemap_utf8ToTitle_58 @2106
    ucasemap_utf8ToUpper_58 @2107
    uchar_swapNames_58 @2108
    ucln_cleanupOne_58 @2109
    ucln_registerCleanup_58 @2110
    ucnv_cbFromUWriteBytes_58 @2111
    ucnv_cbFromUWriteSub_58 @2112
    ucnv_cbFromUWriteUChars_58 @2113
    ucnv_cbToUWriteSub_58 @2114
    ucnv_cbToUWriteUChars_58 @2115
    ucnv_close_58 @2116
    ucnv_compareNames_58 @2117
    ucnv_convertEx_58 @2118
    ucnv_convert_58 @2119
    ucnv_countAliases_58 @2120
    ucnv_countAvailable_58 @2121
    ucnv_countStandards_58 @2122
    ucnv_createConverter_58 @2123
    ucnv_detectUnicodeSignature_58 @2124
    ucnv_fixFileSeparator_58 @2125
    ucnv_flushCache_58 @2126
    ucnv_fromAlgorithmic_58 @2127
    ucnv_fromUChars_58 @2128
    ucnv_fromUCountPending_58 @2129
    ucnv_fromUnicode_58 @2130
    ucnv_getAlias_58 @2131
    ucnv_getAliases_58 @2132
    ucnv_getAvailableName_58 @2133
    ucnv_getCCSID_58 @2134
    ucnv_getCanonicalName_58 @2135
    ucnv_getDefaultName_58 @2136
    ucnv_getDisplayName_58 @2137
    ucnv_getFromUCallBack_58 @2138
    ucnv_getInvalidChars_58 @2139
    ucnv_getInvalidUChars_58 @2140
    ucnv_getMaxCharSize_58 @2141
    ucnv_getMinCharSize_58 @2142
    ucnv_getName_58 @2143
    ucnv_getNextUChar_58 @2144
    ucnv_getPlatform_58 @2145
    ucnv_getStandardName_58 @2146
    ucnv_getStandard_58 @2147
    ucnv_getStarters_58 @2148
    ucnv_getSubstChars_58 @2149
    ucnv_getToUCallBack_58 @2150
    ucnv_getType_58 @2151
    ucnv_getUnicodeSet_58 @2152
    ucnv_io_countKnownConverters_58 @2153
    ucnv_io_getConverterName_58 @2154
    ucnv_io_stripASCIIForCompare_58 @2155
    ucnv_io_stripEBCDICForCompare_58 @2156
    ucnv_isAmbiguous_58 @2157
    ucnv_isFixedWidth_58 @2158
    ucnv_load_58 @2159
    ucnv_openAllNames_58 @2160
    ucnv_openCCSID_58 @2161
    ucnv_openPackage_58 @2162
    ucnv_openStandardNames_58 @2163
    ucnv_openU_58 @2164
    ucnv_open_58 @2165
    ucnv_resetFromUnicode_58 @2166
    ucnv_resetToUnicode_58 @2167
    ucnv_reset_58 @2168
    ucnv_safeClone_58 @2169
    ucnv_setDefaultName_58 @2170
    ucnv_setFallback_58 @2171
    ucnv_setFromUCallBack_58 @2172
    ucnv_setSubstChars_58 @2173
    ucnv_setSubstString_58 @2174
    ucnv_setToUCallBack_58 @2175
    ucnv_swapAliases_58 @2176
    ucnv_swap_58 @2177
    ucnv_toAlgorithmic_58 @2178
    ucnv_toUChars_58 @2179
    ucnv_toUCountPending_58 @2180
    ucnv_toUnicode_58 @2181
    ucnv_unload_58 @2182
    ucnv_usesFallback_58 @2183
    ucnvsel_close_58 @2184
    ucnvsel_openFromSerialized_58 @2185
    ucnvsel_open_58 @2186
    ucnvsel_selectForString_58 @2187
    ucnvsel_selectForUTF8_58 @2188
    ucnvsel_serialize_58 @2189
    ucol_looksLikeCollationBinary_58 @2190
    ucol_swapInverseUCA_58 @2191
    ucol_swap_58 @2192
    ucurr_countCurrencies_58 @2193
    ucurr_forLocaleAndDate_58 @2194
    ucurr_forLocale_58 @2195
    ucurr_getDefaultFractionDigitsForUsage_58 @2196
    ucurr_getDefaultFractionDigits_58 @2197
    ucurr_getKeywordValuesForLocale_58 @2198
    ucurr_getName_58 @2199
    ucurr_getNumericCode_58 @2200
    ucurr_getPluralName_58 @2201
    ucurr_getRoundingIncrementForUsage_58 @2202
    ucurr_getRoundingIncrement_58 @2203
    ucurr_isAvailable_58 @2204
    ucurr_openISOCurrencies_58 @2205
    ucurr_register_58 @2206
    ucurr_unregister_58 @2207
    udata_closeSwapper_58 @2208
    udata_close_58 @2209
    udata_getInfo_58 @2210
    udata_getLength_58 @2211
    udata_getMemory_58 @2212
    udata_getRawMemory_58 @2213
    udata_openChoice_58 @2214
    udata_openSwapperForInputData_58 @2215
    udata_openSwapper_58 @2216
    udata_open_58 @2217
    udata_printError_58 @2218
    udata_readInt16_58 @2219
    udata_readInt32_58 @2220
    udata_setAppData_58 @2221
    udata_setCommonData_58 @2222
    udata_setFileAccess_58 @2223
    udata_swapDataHeader_58 @2224
    udata_swapInvStringBlock_58 @2225
    udict_swap_58 @2226
    uenum_close_58 @2227
    uenum_count_58 @2228
    uenum_nextDefault_58 @2229
    uenum_next_58 @2230
    uenum_openCharStringsEnumeration_58 @2231
    uenum_openFromStringEnumeration_58 @2232
    uenum_openUCharStringsEnumeration_58 @2233
    uenum_reset_58 @2234
    uenum_unextDefault_58 @2235
    uenum_unext_58 @2236
    uhash_close_58 @2237
    uhash_compareCaselessUnicodeString_58 @2238
    uhash_compareChars_58 @2239
    uhash_compareIChars_58 @2240
    uhash_compareLong_58 @2241
    uhash_compareUChars_58 @2242
    uhash_compareUnicodeString_58 @2243
    uhash_count_58 @2244
    uhash_deleteHashtable_58 @2245
    uhash_equals_58 @2246
    uhash_find_58 @2247
    uhash_get_58 @2248
    uhash_geti_58 @2249
    uhash_hashCaselessUnicodeString_58 @2250
    uhash_hashChars_58 @2251
    uhash_hashIChars_58 @2252
    uhash_hashLong_58 @2253
    uhash_hashUChars_58 @2254
    uhash_hashUnicodeString_58 @2255
    uhash_iget_58 @2256
    uhash_igeti_58 @2257
    uhash_init_58 @2258
    uhash_iput_58 @2259
    uhash_iputi_58 @2260
    uhash_iremove_58 @2261
    uhash_iremovei_58 @2262
    uhash_nextElement_58 @2263
    uhash_openSize_58 @2264
    uhash_open_58 @2265
    uhash_put_58 @2266
    uhash_puti_58 @2267
    uhash_removeAll_58 @2268
    uhash_removeElement_58 @2269
    uhash_remove_58 @2270
    uhash_removei_58 @2271
    uhash_setKeyComparator_58 @2272
    uhash_setKeyDeleter_58 @2273
    uhash_setKeyHasher_58 @2274
    uhash_setResizePolicy_58 @2275
    uhash_setValueComparator_58 @2276
    uhash_setValueDeleter_58 @2277
    uidna_IDNToASCII_58 @2278
    uidna_IDNToUnicode_58 @2279
    uidna_close_58 @2280
    uidna_compare_58 @2281
    uidna_labelToASCII_58 @2282
    uidna_labelToASCII_UTF8_58 @2283
    uidna_labelToUnicodeUTF8_58 @2284
    uidna_labelToUnicode_58 @2285
    uidna_nameToASCII_58 @2286
    uidna_nameToASCII_UTF8_58 @2287
    uidna_nameToUnicodeUTF8_58 @2288
    uidna_nameToUnicode_58 @2289
    uidna_openUTS46_58 @2290
    uidna_toASCII_58 @2291
    uidna_toUnicode_58 @2292
    uiter_current32_58 @2293
    uiter_getState_58 @2294
    uiter_next32_58 @2295
    uiter_previous32_58 @2296
    uiter_setCharacterIterator_58 @2297
    uiter_setReplaceable_58 @2298
    uiter_setState_58 @2299
    uiter_setString_58 @2300
    uiter_setUTF16BE_58 @2301
    uiter_setUTF8_58 @2302
    uldn_close_58 @2303
    uldn_getContext_58 @2304
    uldn_getDialectHandling_58 @2305
    uldn_getLocale_58 @2306
    uldn_keyDisplayName_58 @2307
    uldn_keyValueDisplayName_58 @2308
    uldn_languageDisplayName_58 @2309
    uldn_localeDisplayName_58 @2310
    uldn_openForContext_58 @2311
    uldn_open_58 @2312
    uldn_regionDisplayName_58 @2313
    uldn_scriptCodeDisplayName_58 @2314
    uldn_scriptDisplayName_58 @2315
    uldn_variantDisplayName_58 @2316
    ulist_addItemBeginList_58 @2317
    ulist_addItemEndList_58 @2318
    ulist_close_keyword_values_iterator_58 @2319
    ulist_containsString_58 @2320
    ulist_count_keyword_values_58 @2321
    ulist_createEmptyList_58 @2322
    ulist_deleteList_58 @2323
    ulist_getListFromEnum_58 @2324
    ulist_getListSize_58 @2325
    ulist_getNext_58 @2326
    ulist_next_keyword_value_58 @2327
    ulist_removeString_58 @2328
    ulist_resetList_58 @2329
    ulist_reset_keyword_values_iterator_58 @2330
    ulistfmt_close_58 @2331
    ulistfmt_format_58 @2332
    ulistfmt_open_58 @2333
    uloc_acceptLanguageFromHTTP_58 @2334
    uloc_acceptLanguage_58 @2335
    uloc_addLikelySubtags_58 @2336
    uloc_canonicalize_58 @2337
    uloc_countAvailable_58 @2338
    uloc_forLanguageTag_58 @2339
    uloc_getAvailable_58 @2340
    uloc_getBaseName_58 @2341
    uloc_getCharacterOrientation_58 @2342
    uloc_getCountry_58 @2343
    uloc_getDefault_58 @2344
    uloc_getDisplayCountry_58 @2345
    uloc_getDisplayKeywordValue_58 @2346
    uloc_getDisplayKeyword_58 @2347
    uloc_getDisplayLanguage_58 @2348
    uloc_getDisplayName_58 @2349
    uloc_getDisplayScriptInContext_58 @2350
    uloc_getDisplayScript_58 @2351
    uloc_getDisplayVariant_58 @2352
    uloc_getISO3Country_58 @2353
    uloc_getISO3Language_58 @2354
    uloc_getISOCountries_58 @2355
    uloc_getISOLanguages_58 @2356
    uloc_getKeywordValue_58 @2357
    uloc_getLCID_58 @2358
    uloc_getLanguage_58 @2359
    uloc_getLineOrientation_58 @2360
    uloc_getLocaleForLCID_58 @2361
    uloc_getName_58 @2362
    uloc_getParent_58 @2363
    uloc_getScript_58 @2364
    uloc_getTableStringWithFallback_58 @2365
    uloc_getVariant_58 @2366
    uloc_isRightToLeft_58 @2367
    uloc_minimizeSubtags_58 @2368
    uloc_openKeywordList_58 @2369
    uloc_openKeywords_58 @2370
    uloc_setDefault_58 @2371
    uloc_setKeywordValue_58 @2372
    uloc_toLanguageTag_58 @2373
    uloc_toLegacyKey_58 @2374
    uloc_toLegacyType_58 @2375
    uloc_toUnicodeLocaleKey_58 @2376
    uloc_toUnicodeLocaleType_58 @2377
    ulocimp_getRegionForSupplementalData_58 @2378
    umtx_condBroadcast_58 @2379
    umtx_condSignal_58 @2380
    umtx_condWait_58 @2381
    umtx_lock_58 @2382
    umtx_unlock_58 @2383
    unorm2_append_58 @2384
    unorm2_close_58 @2385
    unorm2_composePair_58 @2386
    unorm2_getCombiningClass_58 @2387
    unorm2_getDecomposition_58 @2388
    unorm2_getInstance_58 @2389
    unorm2_getNFCInstance_58 @2390
    unorm2_getNFDInstance_58 @2391
    unorm2_getNFKCCasefoldInstance_58 @2392
    unorm2_getNFKCInstance_58 @2393
    unorm2_getNFKDInstance_58 @2394
    unorm2_getRawDecomposition_58 @2395
    unorm2_hasBoundaryAfter_58 @2396
    unorm2_hasBoundaryBefore_58 @2397
    unorm2_isInert_58 @2398
    unorm2_isNormalized_58 @2399
    unorm2_normalizeSecondAndAppend_58 @2400
    unorm2_normalize_58 @2401
    unorm2_openFiltered_58 @2402
    unorm2_quickCheck_58 @2403
    unorm2_spanQuickCheckYes_58 @2404
    unorm2_swap_58 @2405
    unorm_compare_58 @2406
    unorm_concatenate_58 @2407
    unorm_isNormalizedWithOptions_58 @2408
    unorm_isNormalized_58 @2409
    unorm_next_58 @2410
    unorm_normalize_58 @2411
    unorm_previous_58 @2412
    unorm_quickCheckWithOptions_58 @2413
    unorm_quickCheck_58 @2414
    uprv_aestrncpy_58 @2415
    uprv_asciitolower_58 @2416
    uprv_calloc_58 @2417
    uprv_ceil_58 @2418
    uprv_compareASCIIPropertyNames_58 @2419
    uprv_compareEBCDICPropertyNames_58 @2420
    uprv_compareInvEbcdicAsAscii_58 @2421
    uprv_convertToLCID_58 @2422
    uprv_convertToPosix_58 @2423
    uprv_deleteUObject_58 @2424
    uprv_dl_close_58 @2425
    uprv_dl_open_58 @2426
    uprv_dlsym_func_58 @2427
    uprv_eastrncpy_58 @2428
    uprv_ebcdicFromAscii_58 @2429
    uprv_ebcdicToLowercaseAscii_58 @2430
    uprv_ebcdictolower_58 @2431
    uprv_fabs_58 @2432
    uprv_floor_58 @2433
    uprv_fmax_58 @2434
    uprv_fmin_58 @2435
    uprv_fmod_58 @2436
    uprv_free_58 @2437
    uprv_getCharNameCharacters_58 @2438
    uprv_getDefaultCodepage_58 @2439
    uprv_getDefaultLocaleID_58 @2440
    uprv_getInfinity_58 @2441
    uprv_getMaxCharNameLength_58 @2442
    uprv_getNaN_58 @2443
    uprv_getRawUTCtime_58 @2444
    uprv_getStaticCurrencyName_58 @2445
    uprv_getUTCtime_58 @2446
    uprv_int32Comparator_58 @2447
    uprv_isASCIILetter_58 @2448
    uprv_isInfinite_58 @2449
    uprv_isInvariantString_58 @2450
    uprv_isInvariantUString_58 @2451
    uprv_isInvariantUnicodeString @2452
    uprv_isNaN_58 @2453
    uprv_isNegativeInfinity_58 @2454
    uprv_isPositiveInfinity_58 @2455
    uprv_itou_58 @2456
    uprv_log_58 @2457
    uprv_malloc_58 @2458
    uprv_maxMantissa_58 @2459
    uprv_max_58 @2460
    uprv_maximumPtr_58 @2461
    uprv_min_58 @2462
    uprv_modf_58 @2463
    uprv_parseCurrency_58 @2464
    uprv_pathIsAbsolute_58 @2465
    uprv_pow10_58 @2466
    uprv_pow_58 @2467
    uprv_realloc_58 @2468
    uprv_round_58 @2469
    uprv_sortArray_58 @2470
    uprv_stableBinarySearch_58 @2471
    uprv_strdup_58 @2472
    uprv_stricmp_58 @2473
    uprv_strndup_58 @2474
    uprv_strnicmp_58 @2475
    uprv_syntaxError_58 @2476
    uprv_timezone_58 @2477
    uprv_toupper_58 @2478
    uprv_trunc_58 @2479
    uprv_tzname_58 @2480
    uprv_tzname_clear_cache_58 @2481
    uprv_tzset_58 @2482
    uprv_uint16Comparator_58 @2483
    uprv_uint32Comparator_58 @2484
    upvec_cloneArray_58 @2485
    upvec_close_58 @2486
    upvec_compactToUTrie2Handler_58 @2487
    upvec_compactToUTrie2WithRowIndexes_58 @2488
    upvec_compact_58 @2489
    upvec_getArray_58 @2490
    upvec_getRow_58 @2491
    upvec_getValue_58 @2492
    upvec_open_58 @2493
    upvec_setValue_58 @2494
    ures_close_58 @2495
    ures_countArrayItems_58 @2496
    ures_findResource_58 @2497
    ures_findSubResource_58 @2498
    ures_getAllItemsWithFallback_58 @2499
    ures_getBinary_58 @2500
    ures_getByIndex_58 @2501
    ures_getByKeyWithFallback_58 @2502
    ures_getByKey_58 @2503
    ures_getFunctionalEquivalent_58 @2504
    ures_getIntVector_58 @2505
    ures_getInt_58 @2506
    ures_getKey_58 @2507
    ures_getKeywordValues_58 @2508
    ures_getLocaleByType_58 @2509
    ures_getLocaleInternal_58 @2510
    ures_getLocale_58 @2511
    ures_getNextResource_58 @2512
    ures_getNextString_58 @2513
    ures_getSize_58 @2514
    ures_getStringByIndex_58 @2515
    ures_getStringByKeyWithFallback_58 @2516
    ures_getStringByKey_58 @2517
    ures_getString_58 @2518
    ures_getType_58 @2519
    ures_getUInt_58 @2520
    ures_getUTF8StringByIndex_58 @2521
    ures_getUTF8StringByKey_58 @2522
    ures_getUTF8String_58 @2523
    ures_getVersionByKey_58 @2524
    ures_getVersionNumberInternal_58 @2525
    ures_getVersionNumber_58 @2526
    ures_getVersion_58 @2527
    ures_hasNext_58 @2528
    ures_initStackObject_58 @2529
    ures_openAvailableLocales_58 @2530
    ures_openDirect_58 @2531
    ures_openFillIn_58 @2532
    ures_openNoDefault_58 @2533
    ures_openU_58 @2534
    ures_open_58 @2535
    ures_resetIterator_58 @2536
    ures_swap_58 @2537
    uscript_breaksBetweenLetters_58 @2538
    uscript_closeRun_58 @2539
    uscript_getCode_58 @2540
    uscript_getName_58 @2541
    uscript_getSampleString_58 @2542
    uscript_getScriptExtensions_58 @2543
    uscript_getScript_58 @2544
    uscript_getShortName_58 @2545
    uscript_getUsage_58 @2546
    uscript_hasScript_58 @2547
    uscript_isCased_58 @2548
    uscript_isRightToLeft_58 @2549
    uscript_nextRun_58 @2550
    uscript_openRun_58 @2551
    uscript_resetRun_58 @2552
    uscript_setRunText_58 @2553
    uset_addAllCodePoints_58 @2554
    uset_addAll_58 @2555
    uset_addRange_58 @2556
    uset_addString_58 @2557
    uset_add_58 @2558
    uset_applyIntPropertyValue_58 @2559
    uset_applyPattern_58 @2560
    uset_applyPropertyAlias_58 @2561
    uset_charAt_58 @2562
    uset_clear_58 @2563
    uset_cloneAsThawed_58 @2564
    uset_clone_58 @2565
    uset_closeOver_58 @2566
    uset_close_58 @2567
    uset_compact_58 @2568
    uset_complementAll_58 @2569
    uset_complement_58 @2570
    uset_containsAllCodePoints_58 @2571
    uset_containsAll_58 @2572
    uset_containsNone_58 @2573
    uset_containsRange_58 @2574
    uset_containsSome_58 @2575
    uset_containsString_58 @2576
    uset_contains_58 @2577
    uset_equals_58 @2578
    uset_freeze_58 @2579
    uset_getItemCount_58 @2580
    uset_getItem_58 @2581
    uset_getSerializedRangeCount_58 @2582
    uset_getSerializedRange_58 @2583
    uset_getSerializedSet_58 @2584
    uset_indexOf_58 @2585
    uset_isEmpty_58 @2586
    uset_isFrozen_58 @2587
    uset_openEmpty_58 @2588
    uset_openPatternOptions_58 @2589
    uset_openPattern_58 @2590
    uset_open_58 @2591
    uset_removeAllStrings_58 @2592
    uset_removeAll_58 @2593
    uset_removeRange_58 @2594
    uset_removeString_58 @2595
    uset_remove_58 @2596
    uset_resemblesPattern_58 @2597
    uset_retainAll_58 @2598
    uset_retain_58 @2599
    uset_serialize_58 @2600
    uset_serializedContains_58 @2601
    uset_setSerializedToOne_58 @2602
    uset_set_58 @2603
    uset_size_58 @2604
    uset_spanBackUTF8_58 @2605
    uset_spanBack_58 @2606
    uset_spanUTF8_58 @2607
    uset_span_58 @2608
    uset_toPattern_58 @2609
    usprep_close_58 @2610
    usprep_openByType_58 @2611
    usprep_open_58 @2612
    usprep_prepare_58 @2613
    usprep_swap_58 @2614
    ustr_hashCharsN_58 @2615
    ustr_hashICharsN_58 @2616
    ustr_hashUCharsN_58 @2617
    utext_char32At_58 @2618
    utext_clone_58 @2619
    utext_close_58 @2620
    utext_copy_58 @2621
    utext_current32_58 @2622
    utext_equals_58 @2623
    utext_extract_58 @2624
    utext_freeze_58 @2625
    utext_getNativeIndex_58 @2626
    utext_getPreviousNativeIndex_58 @2627
    utext_hasMetaData_58 @2628
    utext_isLengthExpensive_58 @2629
    utext_isWritable_58 @2630
    utext_moveIndex32_58 @2631
    utext_nativeLength_58 @2632
    utext_next32From_58 @2633
    utext_next32_58 @2634
    utext_openCharacterIterator_58 @2635
    utext_openConstUnicodeString_58 @2636
    utext_openReplaceable_58 @2637
    utext_openUChars_58 @2638
    utext_openUTF8_58 @2639
    utext_openUnicodeString_58 @2640
    utext_previous32From_58 @2641
    utext_previous32_58 @2642
    utext_replace_58 @2643
    utext_setNativeIndex_58 @2644
    utext_setup_58 @2645
    utf8_appendCharSafeBody_58 @2646
    utf8_back1SafeBody_58 @2647
    utf8_countTrailBytes_58 @2648
    utf8_nextCharSafeBody_58 @2649
    utf8_prevCharSafeBody_58 @2650
    utrace_data_58 @2651
    utrace_entry_58 @2652
    utrace_exit_58 @2653
    utrace_format_58 @2654
    utrace_functionName_58 @2655
    utrace_getFunctions_58 @2656
    utrace_getLevel_58 @2657
    utrace_level_58 @2658
    utrace_setFunctions_58 @2659
    utrace_setLevel_58 @2660
    utrace_vformat_58 @2661
    utrie2_cloneAsThawed_58 @2662
    utrie2_clone_58 @2663
    utrie2_close_58 @2664
    utrie2_enumForLeadSurrogate_58 @2665
    utrie2_enum_58 @2666
    utrie2_freeze_58 @2667
    utrie2_fromUTrie_58 @2668
    utrie2_get32FromLeadSurrogateCodeUnit_58 @2669
    utrie2_get32_58 @2670
    utrie2_getVersion_58 @2671
    utrie2_internalU8NextIndex_58 @2672
    utrie2_internalU8PrevIndex_58 @2673
    utrie2_isFrozen_58 @2674
    utrie2_openDummy_58 @2675
    utrie2_openFromSerialized_58 @2676
    utrie2_open_58 @2677
    utrie2_serialize_58 @2678
    utrie2_set32ForLeadSurrogateCodeUnit_58 @2679
    utrie2_set32_58 @2680
    utrie2_setRange32_58 @2681
    utrie2_swapAnyVersion_58 @2682
    utrie2_swap_58 @2683
    utrie_clone_58 @2684
    utrie_close_58 @2685
    utrie_defaultGetFoldingOffset_58 @2686
    utrie_enum_58 @2687
    utrie_get32_58 @2688
    utrie_getData_58 @2689
    utrie_open_58 @2690
    utrie_serialize_58 @2691
    utrie_set32_58 @2692
    utrie_setRange32_58 @2693
    utrie_swap_58 @2694
    utrie_unserializeDummy_58 @2695
    utrie_unserialize_58 @2696
